EXPORTS
    ??$?0$$QEAH$$Z$$V@?$pair@$$CBHH@std@@QEAA@Upiecewise_construct_t@1@V?$tuple@$$QEAH@1@V?$tuple@$$V@1@@Z
    ??$?0$$QEAH$$Z$$V@?$pair@$$CBHV?$basic_string@DU?$char_traits@D@std@@V?$allocator@D@2@@std@@@std@@QEAA@Upiecewise_construct_t@1@V?$tuple@$$QEAH@1@V?$tuple@$$V@1@@Z
    ??$?0$$QEAPEAVRegexp@re2@@$$Z$$V@?$pair@QEAVRegexp@re2@@H@std@@QEAA@Upiecewise_construct_t@1@V?$tuple@$$QEAPEAVRegexp@re2@@@1@V?$tuple@$$V@1@@Z
    ??$?0$$V@?$_Compressed_pair@U?$default_delete@V?$SparseSetT@X@re2@@@std@@PEAV?$SparseSetT@X@re2@@$00@std@@QEAA@U_Zero_then_variadic_args_t@1@@Z
    ??$?0$$V@?$_Compressed_pair@U?$default_delete@VProg@re2@@@std@@PEAVProg@re2@@$00@std@@QEAA@U_Zero_then_variadic_args_t@1@@Z
    ??$?0$$V@?$_Compressed_pair@UDeleter@?$PODArray@E@re2@@PEAE$0A@@std@@QEAA@U_Zero_then_variadic_args_t@1@@Z
    ??$?0$$V@?$_Compressed_pair@UDeleter@?$PODArray@G@re2@@PEAG$0A@@std@@QEAA@U_Zero_then_variadic_args_t@1@@Z
    ??$?0$$V@?$_Compressed_pair@UDeleter@?$PODArray@H@re2@@PEAH$0A@@std@@QEAA@U_Zero_then_variadic_args_t@1@@Z
    ??$?0$$V@?$_Compressed_pair@UDeleter@?$PODArray@PEAVRegexp@re2@@@re2@@PEAPEAVRegexp@3@$0A@@std@@QEAA@U_Zero_then_variadic_args_t@1@@Z
    ??$?0$$V@?$_Compressed_pair@UDeleter@?$PODArray@PEBD@re2@@PEAPEBD$0A@@std@@QEAA@U_Zero_then_variadic_args_t@1@@Z
    ??$?0$$V@?$_Compressed_pair@UDeleter@?$PODArray@UAddState@NFA@re2@@@re2@@PEAUAddState@NFA@3@$0A@@std@@QEAA@U_Zero_then_variadic_args_t@1@@Z
    ??$?0$$V@?$_Compressed_pair@UDeleter@?$PODArray@UJob@re2@@@re2@@PEAUJob@3@$0A@@std@@QEAA@U_Zero_then_variadic_args_t@1@@Z
    ??$?0$$V@?$_Compressed_pair@UDeleter@?$PODArray@VIndexValue@?$SparseArray@PEAUThread@NFA@re2@@@re2@@@re2@@PEAVIndexValue@?$SparseArray@PEAUThread@NFA@re2@@@3@$0A@@std@@QEAA@U_Zero_then_variadic_args_t@1@@Z
    ??$?0$$V@?$_Compressed_pair@UDeleter@?$PODArray@VInst@Prog@re2@@@re2@@PEAVInst@Prog@3@$0A@@std@@QEAA@U_Zero_then_variadic_args_t@1@@Z
    ??$?0$$V@?$_Compressed_pair@UDeleter@?$PODArray@_K@re2@@PEA_K$0A@@std@@QEAA@U_Zero_then_variadic_args_t@1@@Z
    ??$?0$$V@?$_Compressed_pair@V?$allocator@D@std@@V?$_String_val@U?$_Simple_types@D@std@@@2@$00@std@@QEAA@U_Zero_then_variadic_args_t@1@@Z
    ??$?0$$V@?$_Compressed_pair@V?$allocator@E@std@@V?$_Vector_val@U?$_Simple_types@E@std@@@2@$00@std@@QEAA@U_Zero_then_variadic_args_t@1@@Z
    ??$?0$$V@?$_Compressed_pair@V?$allocator@H@std@@V?$_Vector_val@U?$_Simple_types@H@std@@@2@$00@std@@QEAA@U_Zero_then_variadic_args_t@1@@Z
    ??$?0$$V@?$_Compressed_pair@V?$allocator@PEAUState@DFA@re2@@@std@@V?$_Deque_val@U?$_Deque_simple_types@PEAUState@DFA@re2@@@std@@@2@$00@std@@QEAA@U_Zero_then_variadic_args_t@1@@Z
    ??$?0$$V@?$_Compressed_pair@V?$allocator@PEAVPrefilter@re2@@@std@@V?$_Vector_val@U?$_Simple_types@PEAVPrefilter@re2@@@std@@@2@$00@std@@QEAA@U_Zero_then_variadic_args_t@1@@Z
    ??$?0$$V@?$_Compressed_pair@V?$allocator@PEAVRE2@re2@@@std@@V?$_Vector_val@U?$_Simple_types@PEAVRE2@re2@@@std@@@2@$00@std@@QEAA@U_Zero_then_variadic_args_t@1@@Z
    ??$?0$$V@?$_Compressed_pair@V?$allocator@PEAVRegexp@re2@@@std@@V?$_Vector_val@U?$_Simple_types@PEAVRegexp@re2@@@std@@@2@$00@std@@QEAA@U_Zero_then_variadic_args_t@1@@Z
    ??$?0$$V@?$_Compressed_pair@V?$allocator@U?$WalkState@H@re2@@@std@@V?$_Deque_val@U?$_Deque_simple_types@U?$WalkState@H@re2@@@std@@@2@$00@std@@QEAA@U_Zero_then_variadic_args_t@1@@Z
    ??$?0$$V@?$_Compressed_pair@V?$allocator@U?$WalkState@PEAVInfo@Prefilter@re2@@@re2@@@std@@V?$_Deque_val@U?$_Deque_simple_types@U?$WalkState@PEAVInfo@Prefilter@re2@@@re2@@@std@@@2@$00@std@@QEAA@U_Zero_then_variadic_args_t@1@@Z
    ??$?0$$V@?$_Compressed_pair@V?$allocator@U?$WalkState@PEAVRegexp@re2@@@re2@@@std@@V?$_Deque_val@U?$_Deque_simple_types@U?$WalkState@PEAVRegexp@re2@@@re2@@@std@@@2@$00@std@@QEAA@U_Zero_then_variadic_args_t@1@@Z
    ??$?0$$V@?$_Compressed_pair@V?$allocator@U?$WalkState@UFrag@re2@@@re2@@@std@@V?$_Deque_val@U?$_Deque_simple_types@U?$WalkState@UFrag@re2@@@re2@@@std@@@2@$00@std@@QEAA@U_Zero_then_variadic_args_t@1@@Z
    ??$?0$$V@?$_Compressed_pair@V?$allocator@U?$WalkState@_N@re2@@@std@@V?$_Deque_val@U?$_Deque_simple_types@U?$WalkState@_N@re2@@@std@@@2@$00@std@@QEAA@U_Zero_then_variadic_args_t@1@@Z
    ??$?0$$V@?$_Compressed_pair@V?$allocator@U?$_Tree_node@HPEAX@std@@@std@@V?$_Tree_val@U?$_Tree_simple_types@H@std@@@2@$00@std@@QEAA@U_Zero_then_variadic_args_t@1@@Z
    ??$?0$$V@?$_Compressed_pair@V?$allocator@U?$_Tree_node@U?$pair@$$CBHH@std@@PEAX@std@@@std@@V?$_Tree_val@U?$_Tree_simple_types@U?$pair@$$CBHH@std@@@std@@@2@$00@std@@QEAA@U_Zero_then_variadic_args_t@1@@Z
    ??$?0$$V@?$_Compressed_pair@V?$allocator@U?$_Tree_node@U?$pair@$$CBHV?$basic_string@DU?$char_traits@D@std@@V?$allocator@D@2@@std@@@std@@PEAX@std@@@std@@V?$_Tree_val@U?$_Tree_simple_types@U?$pair@$$CBHV?$basic_string@DU?$char_traits@D@std@@V?$allocator@D@2@@std@@@std@@@std@@@2@$00@std@@QEAA@U_Zero_then_variadic_args_t@1@@Z
    ??$?0$$V@?$_Compressed_pair@V?$allocator@U?$_Tree_node@U?$pair@$$CBV?$basic_string@DU?$char_traits@D@std@@V?$allocator@D@2@@std@@H@std@@PEAX@std@@@std@@V?$_Tree_val@U?$_Tree_simple_types@U?$pair@$$CBV?$basic_string@DU?$char_traits@D@std@@V?$allocator@D@2@@std@@H@std@@@std@@@2@$00@std@@QEAA@U_Zero_then_variadic_args_t@1@@Z
    ??$?0$$V@?$_Compressed_pair@V?$allocator@U?$_Tree_node@U?$pair@$$CBV?$basic_string@DU?$char_traits@D@std@@V?$allocator@D@2@@std@@PEAVPrefilter@re2@@@std@@PEAX@std@@@std@@V?$_Tree_val@U?$_Tree_simple_types@U?$pair@$$CBV?$basic_string@DU?$char_traits@D@std@@V?$allocator@D@2@@std@@PEAVPrefilter@re2@@@std@@@std@@@2@$00@std@@QEAA@U_Zero_then_variadic_args_t@1@@Z
    ??$?0$$V@?$_Compressed_pair@V?$allocator@U?$_Tree_node@U?$pair@QEAVRegexp@re2@@H@std@@PEAX@std@@@std@@V?$_Tree_val@U?$_Tree_simple_types@U?$pair@QEAVRegexp@re2@@H@std@@@std@@@2@$00@std@@QEAA@U_Zero_then_variadic_args_t@1@@Z
    ??$?0$$V@?$_Compressed_pair@V?$allocator@U?$_Tree_node@URuneRange@re2@@PEAX@std@@@std@@V?$_Tree_val@U?$_Tree_simple_types@URuneRange@re2@@@std@@@2@$00@std@@QEAA@U_Zero_then_variadic_args_t@1@@Z
    ??$?0$$V@?$_Compressed_pair@V?$allocator@U?$_Tree_node@V?$basic_string@DU?$char_traits@D@std@@V?$allocator@D@2@@std@@PEAX@std@@@std@@V?$_Tree_val@U?$_Tree_simple_types@V?$basic_string@DU?$char_traits@D@std@@V?$allocator@D@2@@std@@@std@@@2@$00@std@@QEAA@U_Zero_then_variadic_args_t@1@@Z
    ??$?0$$V@?$_Compressed_pair@V?$allocator@U?$pair@HH@std@@@std@@V?$_Vector_val@U?$_Simple_types@U?$pair@HH@std@@@std@@@2@$00@std@@QEAA@U_Zero_then_variadic_args_t@1@@Z
    ??$?0$$V@?$_Compressed_pair@V?$allocator@U?$pair@V?$basic_string@DU?$char_traits@D@std@@V?$allocator@D@2@@std@@PEAVRegexp@re2@@@std@@@std@@V?$_Vector_val@U?$_Simple_types@U?$pair@V?$basic_string@DU?$char_traits@D@std@@V?$allocator@D@2@@std@@PEAVRegexp@re2@@@std@@@std@@@2@$00@std@@QEAA@U_Zero_then_variadic_args_t@1@@Z
    ??$?0$$V@?$_Compressed_pair@V?$allocator@UEntry@PrefilterTree@re2@@@std@@V?$_Vector_val@U?$_Simple_types@UEntry@PrefilterTree@re2@@@std@@@2@$00@std@@QEAA@U_Zero_then_variadic_args_t@1@@Z
    ??$?0$$V@?$_Compressed_pair@V?$allocator@UFrame@re2@@@std@@V?$_Vector_val@U?$_Simple_types@UFrame@re2@@@std@@@2@$00@std@@QEAA@U_Zero_then_variadic_args_t@1@@Z
    ??$?0$$V@?$_Compressed_pair@V?$allocator@URuneRange@re2@@@std@@V?$_Vector_val@U?$_Simple_types@URuneRange@re2@@@std@@@2@$00@std@@QEAA@U_Zero_then_variadic_args_t@1@@Z
    ??$?0$$V@?$_Compressed_pair@V?$allocator@USplice@re2@@@std@@V?$_Vector_val@U?$_Simple_types@USplice@re2@@@std@@@2@$00@std@@QEAA@U_Zero_then_variadic_args_t@1@@Z
    ??$?0$$V@?$_Compressed_pair@V?$allocator@UThread@NFA@re2@@@std@@V?$_Deque_val@U?$_Deque_simple_types@UThread@NFA@re2@@@std@@@2@$00@std@@QEAA@U_Zero_then_variadic_args_t@1@@Z
    ??$?0$$V@?$_Compressed_pair@V?$allocator@V?$vector@HV?$allocator@H@std@@@std@@@std@@V?$_Vector_val@U?$_Simple_types@V?$vector@HV?$allocator@H@std@@@std@@@std@@@2@$00@std@@QEAA@U_Zero_then_variadic_args_t@1@@Z
    ??$?0$$V@?$_Compressed_pair@V?$allocator@VInst@Prog@re2@@@std@@V?$_Vector_val@U?$_Simple_types@VInst@Prog@re2@@@std@@@2@$00@std@@QEAA@U_Zero_then_variadic_args_t@1@@Z
    ??$?0AEAHAEAH$0A@@?$pair@HH@std@@QEAA@AEAH0@Z
    ??$?0AEAPEAHAEAPEAH$0A@@?$pair@PEAHPEAH@std@@QEAA@AEAPEAH0@Z
    ??$?0AEAPEAU?$_List_node@U?$pair@$$CB_KH@std@@PEAX@std@@_N$0A@@?$pair@PEAU?$_List_node@U?$pair@$$CB_KH@std@@PEAX@std@@_N@std@@QEAA@AEAPEAU?$_List_node@U?$pair@$$CB_KH@std@@PEAX@1@$$QEA_N@Z
    ??$?0AEAPEAU?$_List_node@U?$pair@QEAUState@DFA@re2@@H@std@@PEAX@std@@_N$0A@@?$pair@PEAU?$_List_node@U?$pair@QEAUState@DFA@re2@@H@std@@PEAX@std@@_N@std@@QEAA@AEAPEAU?$_List_node@U?$pair@QEAUState@DFA@re2@@H@std@@PEAX@1@$$QEA_N@Z
    ??$?0AEAPEAU?$_Tree_node@HPEAX@std@@_N$0A@@?$pair@PEAU?$_Tree_node@HPEAX@std@@_N@std@@QEAA@AEAPEAU?$_Tree_node@HPEAX@1@$$QEA_N@Z
    ??$?0AEAPEAU?$_Tree_node@U?$pair@$$CBV?$basic_string@DU?$char_traits@D@std@@V?$allocator@D@2@@std@@PEAVPrefilter@re2@@@std@@PEAX@std@@_N$0A@@?$pair@PEAU?$_Tree_node@U?$pair@$$CBV?$basic_string@DU?$char_traits@D@std@@V?$allocator@D@2@@std@@PEAVPrefilter@re2@@@std@@PEAX@std@@_N@std@@QEAA@AEAPEAU?$_Tree_node@U?$pair@$$CBV?$basic_string@DU?$char_traits@D@std@@V?$allocator@D@2@@std@@PEAVPrefilter@re2@@@std@@PEAX@1@$$QEA_N@Z
    ??$?0AEAPEAU?$_Tree_node@U?$pair@QEAVRegexp@re2@@H@std@@PEAX@std@@AEAPEAU01@$0A@@?$pair@PEAU?$_Tree_node@U?$pair@QEAVRegexp@re2@@H@std@@PEAX@std@@PEAU12@@std@@QEAA@AEAPEAU?$_Tree_node@U?$pair@QEAVRegexp@re2@@H@std@@PEAX@1@0@Z
    ??$?0AEAPEAU?$_Tree_node@URuneRange@re2@@PEAX@std@@_N$0A@@?$pair@PEAU?$_Tree_node@URuneRange@re2@@PEAX@std@@_N@std@@QEAA@AEAPEAU?$_Tree_node@URuneRange@re2@@PEAX@1@$$QEA_N@Z
    ??$?0AEAPEAU?$_Tree_node@V?$basic_string@DU?$char_traits@D@std@@V?$allocator@D@2@@std@@PEAX@std@@_N$0A@@?$pair@PEAU?$_Tree_node@V?$basic_string@DU?$char_traits@D@std@@V?$allocator@D@2@@std@@PEAX@std@@_N@std@@QEAA@AEAPEAU?$_Tree_node@V?$basic_string@DU?$char_traits@D@std@@V?$allocator@D@2@@std@@PEAX@1@$$QEA_N@Z
    ??$?0AEAPEAU?$pair@V?$basic_string@DU?$char_traits@D@std@@V?$allocator@D@2@@std@@PEAVRegexp@re2@@@std@@AEAPEAU01@$0A@@?$pair@PEAU?$pair@V?$basic_string@DU?$char_traits@D@std@@V?$allocator@D@2@@std@@PEAVRegexp@re2@@@std@@PEAU12@@std@@QEAA@AEAPEAU?$pair@V?$basic_string@DU?$char_traits@D@std@@V?$allocator@D@2@@std@@PEAVRegexp@re2@@@1@0@Z
    ??$?0AEAPEAUState@DFA@re2@@H$0A@@?$pair@QEAUState@DFA@re2@@H@std@@QEAA@AEAPEAUState@DFA@re2@@$$QEAH@Z
    ??$?0AEAPEAUState@DFA@re2@@H@?$_List_node_emplace_op2@V?$allocator@U?$_List_node@U?$pair@QEAUState@DFA@re2@@H@std@@PEAX@std@@@std@@@std@@QEAA@AEAV?$allocator@U?$_List_node@U?$pair@QEAUState@DFA@re2@@H@std@@PEAX@std@@@1@AEAPEAUState@DFA@re2@@$$QEAH@Z
    ??$?0AEAPEAVIndexValue@?$SparseArray@H@re2@@AEAPEAV012@$0A@@?$pair@PEAVIndexValue@?$SparseArray@H@re2@@PEAV123@@std@@QEAA@AEAPEAVIndexValue@?$SparseArray@H@re2@@0@Z
    ??$?0AEAPEAVPrefilterTree@re2@@@?$_Compressed_pair@U?$default_delete@VPrefilterTree@re2@@@std@@PEAVPrefilterTree@re2@@$00@std@@QEAA@U_Zero_then_variadic_args_t@1@AEAPEAVPrefilterTree@re2@@@Z
    ??$?0AEBE@?$_Alloc_temporary@V?$allocator@E@std@@@std@@QEAA@AEAV?$allocator@E@1@AEBE@Z
    ??$?0AEBH$$Z$$V@?$pair@$$CBHH@std@@QEAA@Upiecewise_construct_t@1@V?$tuple@AEBH@1@V?$tuple@$$V@1@@Z
    ??$?0AEBH$0A@@?$tuple@AEBH@std@@QEAA@AEBH@Z
    ??$?0AEBH@?$_Tree_temp_node@V?$allocator@U?$_Tree_node@HPEAX@std@@@std@@@std@@QEAA@AEAV?$allocator@U?$_Tree_node@HPEAX@std@@@1@PEAU?$_Tree_node@HPEAX@1@AEBH@Z
    ??$?0AEBH@?$_Tuple_val@AEBH@std@@QEAA@AEBH@Z
    ??$?0AEBQEAU?$_Tree_node@U?$pair@$$CBHH@std@@PEAX@std@@_N$0A@@?$pair@PEAU?$_Tree_node@U?$pair@$$CBHH@std@@PEAX@std@@_N@std@@QEAA@AEBQEAU?$_Tree_node@U?$pair@$$CBHH@std@@PEAX@1@$$QEA_N@Z
    ??$?0AEBQEAU?$_Tree_node@U?$pair@$$CBHV?$basic_string@DU?$char_traits@D@std@@V?$allocator@D@2@@std@@@std@@PEAX@std@@_N$0A@@?$pair@PEAU?$_Tree_node@U?$pair@$$CBHV?$basic_string@DU?$char_traits@D@std@@V?$allocator@D@2@@std@@@std@@PEAX@std@@_N@std@@QEAA@AEBQEAU?$_Tree_node@U?$pair@$$CBHV?$basic_string@DU?$char_traits@D@std@@V?$allocator@D@2@@std@@@std@@PEAX@1@$$QEA_N@Z
    ??$?0AEBQEAU?$_Tree_node@U?$pair@$$CBV?$basic_string@DU?$char_traits@D@std@@V?$allocator@D@2@@std@@H@std@@PEAX@std@@_N$0A@@?$pair@PEAU?$_Tree_node@U?$pair@$$CBV?$basic_string@DU?$char_traits@D@std@@V?$allocator@D@2@@std@@H@std@@PEAX@std@@_N@std@@QEAA@AEBQEAU?$_Tree_node@U?$pair@$$CBV?$basic_string@DU?$char_traits@D@std@@V?$allocator@D@2@@std@@H@std@@PEAX@1@$$QEA_N@Z
    ??$?0AEBQEAU?$_Tree_node@U?$pair@QEAVRegexp@re2@@H@std@@PEAX@std@@_N$0A@@?$pair@PEAU?$_Tree_node@U?$pair@QEAVRegexp@re2@@H@std@@PEAX@std@@_N@std@@QEAA@AEBQEAU?$_Tree_node@U?$pair@QEAVRegexp@re2@@H@std@@PEAX@1@$$QEA_N@Z
    ??$?0AEBQEAUState@DFA@re2@@$$Z$$V@?$pair@QEAUState@DFA@re2@@H@std@@QEAA@Upiecewise_construct_t@1@V?$tuple@AEBQEAUState@DFA@re2@@@1@V?$tuple@$$V@1@@Z
    ??$?0AEBQEAUState@DFA@re2@@$0A@@?$tuple@AEBQEAUState@DFA@re2@@@std@@QEAA@AEBQEAUState@DFA@re2@@@Z
    ??$?0AEBQEAUState@DFA@re2@@@?$_List_node_emplace_op2@V?$allocator@U?$_List_node@PEAUState@DFA@re2@@PEAX@std@@@std@@@std@@QEAA@AEAV?$allocator@U?$_List_node@PEAUState@DFA@re2@@PEAX@std@@@1@AEBQEAUState@DFA@re2@@@Z
    ??$?0AEBQEAUState@DFA@re2@@@?$_Tuple_val@AEBQEAUState@DFA@re2@@@std@@QEAA@AEBQEAUState@DFA@re2@@@Z
    ??$?0AEBU?$less@H@std@@U_Zero_then_variadic_args_t@1@@?$_Compressed_pair@U?$less@H@std@@V?$_Compressed_pair@V?$allocator@U?$_Tree_node@HPEAX@std@@@std@@V?$_Tree_val@U?$_Tree_simple_types@H@std@@@2@$00@2@$00@std@@QEAA@U_One_then_variadic_args_t@1@AEBU?$less@H@1@$$QEAU_Zero_then_variadic_args_t@1@@Z
    ??$?0AEBU?$less@H@std@@U_Zero_then_variadic_args_t@1@@?$_Compressed_pair@U?$less@H@std@@V?$_Compressed_pair@V?$allocator@U?$_Tree_node@U?$pair@$$CBHH@std@@PEAX@std@@@std@@V?$_Tree_val@U?$_Tree_simple_types@U?$pair@$$CBHH@std@@@std@@@2@$00@2@$00@std@@QEAA@U_One_then_variadic_args_t@1@AEBU?$less@H@1@$$QEAU_Zero_then_variadic_args_t@1@@Z
    ??$?0AEBU?$less@H@std@@U_Zero_then_variadic_args_t@1@@?$_Compressed_pair@U?$less@H@std@@V?$_Compressed_pair@V?$allocator@U?$_Tree_node@U?$pair@$$CBHV?$basic_string@DU?$char_traits@D@std@@V?$allocator@D@2@@std@@@std@@PEAX@std@@@std@@V?$_Tree_val@U?$_Tree_simple_types@U?$pair@$$CBHV?$basic_string@DU?$char_traits@D@std@@V?$allocator@D@2@@std@@@std@@@std@@@2@$00@2@$00@std@@QEAA@U_One_then_variadic_args_t@1@AEBU?$less@H@1@$$QEAU_Zero_then_variadic_args_t@1@@Z
    ??$?0AEBU?$less@PEAVRegexp@re2@@@std@@U_Zero_then_variadic_args_t@1@@?$_Compressed_pair@U?$less@PEAVRegexp@re2@@@std@@V?$_Compressed_pair@V?$allocator@U?$_Tree_node@U?$pair@QEAVRegexp@re2@@H@std@@PEAX@std@@@std@@V?$_Tree_val@U?$_Tree_simple_types@U?$pair@QEAVRegexp@re2@@H@std@@@std@@@2@$00@2@$00@std@@QEAA@U_One_then_variadic_args_t@1@AEBU?$less@PEAVRegexp@re2@@@1@$$QEAU_Zero_then_variadic_args_t@1@@Z
    ??$?0AEBU?$less@V?$basic_string@DU?$char_traits@D@std@@V?$allocator@D@2@@std@@@std@@U_Zero_then_variadic_args_t@1@@?$_Compressed_pair@U?$less@V?$basic_string@DU?$char_traits@D@std@@V?$allocator@D@2@@std@@@std@@V?$_Compressed_pair@V?$allocator@U?$_Tree_node@U?$pair@$$CBV?$basic_string@DU?$char_traits@D@std@@V?$allocator@D@2@@std@@H@std@@PEAX@std@@@std@@V?$_Tree_val@U?$_Tree_simple_types@U?$pair@$$CBV?$basic_string@DU?$char_traits@D@std@@V?$allocator@D@2@@std@@H@std@@@std@@@2@$00@2@$00@std@@QEAA@U_One_then_variadic_args_t@1@AEBU?$less@V?$basic_string@DU?$char_traits@D@std@@V?$allocator@D@2@@std@@@1@$$QEAU_Zero_then_variadic_args_t@1@@Z
    ??$?0AEBU?$less@V?$basic_string@DU?$char_traits@D@std@@V?$allocator@D@2@@std@@@std@@U_Zero_then_variadic_args_t@1@@?$_Compressed_pair@U?$less@V?$basic_string@DU?$char_traits@D@std@@V?$allocator@D@2@@std@@@std@@V?$_Compressed_pair@V?$allocator@U?$_Tree_node@U?$pair@$$CBV?$basic_string@DU?$char_traits@D@std@@V?$allocator@D@2@@std@@PEAVPrefilter@re2@@@std@@PEAX@std@@@std@@V?$_Tree_val@U?$_Tree_simple_types@U?$pair@$$CBV?$basic_string@DU?$char_traits@D@std@@V?$allocator@D@2@@std@@PEAVPrefilter@re2@@@std@@@std@@@2@$00@2@$00@std@@QEAA@U_One_then_variadic_args_t@1@AEBU?$less@V?$basic_string@DU?$char_traits@D@std@@V?$allocator@D@2@@std@@@1@$$QEAU_Zero_then_variadic_args_t@1@@Z
    ??$?0AEBU?$less@V?$basic_string@DU?$char_traits@D@std@@V?$allocator@D@2@@std@@@std@@U_Zero_then_variadic_args_t@1@@?$_Compressed_pair@U?$less@V?$basic_string@DU?$char_traits@D@std@@V?$allocator@D@2@@std@@@std@@V?$_Compressed_pair@V?$allocator@U?$_Tree_node@V?$basic_string@DU?$char_traits@D@std@@V?$allocator@D@2@@std@@PEAX@std@@@std@@V?$_Tree_val@U?$_Tree_simple_types@V?$basic_string@DU?$char_traits@D@std@@V?$allocator@D@2@@std@@@std@@@2@$00@2@$00@std@@QEAA@U_One_then_variadic_args_t@1@AEBU?$less@V?$basic_string@DU?$char_traits@D@std@@V?$allocator@D@2@@std@@@1@$$QEAU_Zero_then_variadic_args_t@1@@Z
    ??$?0AEBURuneRange@re2@@@?$_Tree_temp_node@V?$allocator@U?$_Tree_node@URuneRange@re2@@PEAX@std@@@std@@@std@@QEAA@AEAV?$allocator@U?$_Tree_node@URuneRange@re2@@PEAX@std@@@1@PEAU?$_Tree_node@URuneRange@re2@@PEAX@1@AEBURuneRange@re2@@@Z
    ??$?0AEBURuneRangeLess@re2@@U_Zero_then_variadic_args_t@std@@@?$_Compressed_pair@URuneRangeLess@re2@@V?$_Compressed_pair@V?$allocator@U?$_Tree_node@URuneRange@re2@@PEAX@std@@@std@@V?$_Tree_val@U?$_Tree_simple_types@URuneRange@re2@@@std@@@2@$00@std@@$00@std@@QEAA@U_One_then_variadic_args_t@1@AEBURuneRangeLess@re2@@$$QEAU_Zero_then_variadic_args_t@1@@Z
    ??$?0AEBUpiecewise_construct_t@std@@V?$tuple@$$QEAH@1@V?$tuple@$$V@1@@?$_Tree_temp_node@V?$allocator@U?$_Tree_node@U?$pair@$$CBHH@std@@PEAX@std@@@std@@@std@@QEAA@AEAV?$allocator@U?$_Tree_node@U?$pair@$$CBHH@std@@PEAX@std@@@1@PEAU?$_Tree_node@U?$pair@$$CBHH@std@@PEAX@1@AEBUpiecewise_construct_t@1@$$QEAV?$tuple@$$QEAH@1@$$QEAV?$tuple@$$V@1@@Z
    ??$?0AEBUpiecewise_construct_t@std@@V?$tuple@$$QEAH@1@V?$tuple@$$V@1@@?$_Tree_temp_node@V?$allocator@U?$_Tree_node@U?$pair@$$CBHV?$basic_string@DU?$char_traits@D@std@@V?$allocator@D@2@@std@@@std@@PEAX@std@@@std@@@std@@QEAA@AEAV?$allocator@U?$_Tree_node@U?$pair@$$CBHV?$basic_string@DU?$char_traits@D@std@@V?$allocator@D@2@@std@@@std@@PEAX@std@@@1@PEAU?$_Tree_node@U?$pair@$$CBHV?$basic_string@DU?$char_traits@D@std@@V?$allocator@D@2@@std@@@std@@PEAX@1@AEBUpiecewise_construct_t@1@$$QEAV?$tuple@$$QEAH@1@$$QEAV?$tuple@$$V@1@@Z
    ??$?0AEBUpiecewise_construct_t@std@@V?$tuple@$$QEAPEAVRegexp@re2@@@1@V?$tuple@$$V@1@@?$_Tree_temp_node@V?$allocator@U?$_Tree_node@U?$pair@QEAVRegexp@re2@@H@std@@PEAX@std@@@std@@@std@@QEAA@AEAV?$allocator@U?$_Tree_node@U?$pair@QEAVRegexp@re2@@H@std@@PEAX@std@@@1@PEAU?$_Tree_node@U?$pair@QEAVRegexp@re2@@H@std@@PEAX@1@AEBUpiecewise_construct_t@1@$$QEAV?$tuple@$$QEAPEAVRegexp@re2@@@1@$$QEAV?$tuple@$$V@1@@Z
    ??$?0AEBUpiecewise_construct_t@std@@V?$tuple@AEBH@1@V?$tuple@$$V@1@@?$_Tree_temp_node@V?$allocator@U?$_Tree_node@U?$pair@$$CBHH@std@@PEAX@std@@@std@@@std@@QEAA@AEAV?$allocator@U?$_Tree_node@U?$pair@$$CBHH@std@@PEAX@std@@@1@PEAU?$_Tree_node@U?$pair@$$CBHH@std@@PEAX@1@AEBUpiecewise_construct_t@1@$$QEAV?$tuple@AEBH@1@$$QEAV?$tuple@$$V@1@@Z
    ??$?0AEBUpiecewise_construct_t@std@@V?$tuple@AEBQEAUState@DFA@re2@@@1@V?$tuple@$$V@1@@?$_List_node_emplace_op2@V?$allocator@U?$_List_node@U?$pair@QEAUState@DFA@re2@@H@std@@PEAX@std@@@std@@@std@@QEAA@AEAV?$allocator@U?$_List_node@U?$pair@QEAUState@DFA@re2@@H@std@@PEAX@std@@@1@AEBUpiecewise_construct_t@1@$$QEAV?$tuple@AEBQEAUState@DFA@re2@@@1@$$QEAV?$tuple@$$V@1@@Z
    ??$?0AEBUpiecewise_construct_t@std@@V?$tuple@AEBV?$basic_string@DU?$char_traits@D@std@@V?$allocator@D@2@@std@@@1@V?$tuple@$$V@1@@?$_Tree_temp_node@V?$allocator@U?$_Tree_node@U?$pair@$$CBV?$basic_string@DU?$char_traits@D@std@@V?$allocator@D@2@@std@@H@std@@PEAX@std@@@std@@@std@@QEAA@AEAV?$allocator@U?$_Tree_node@U?$pair@$$CBV?$basic_string@DU?$char_traits@D@std@@V?$allocator@D@2@@std@@H@std@@PEAX@std@@@1@PEAU?$_Tree_node@U?$pair@$$CBV?$basic_string@DU?$char_traits@D@std@@V?$allocator@D@2@@std@@H@std@@PEAX@1@AEBUpiecewise_construct_t@1@$$QEAV?$tuple@AEBV?$basic_string@DU?$char_traits@D@std@@V?$allocator@D@2@@std@@@1@$$QEAV?$tuple@$$V@1@@Z
    ??$?0AEBUpiecewise_construct_t@std@@V?$tuple@AEB_K@1@V?$tuple@$$V@1@@?$_List_node_emplace_op2@V?$allocator@U?$_List_node@U?$pair@$$CB_KH@std@@PEAX@std@@@std@@@std@@QEAA@AEAV?$allocator@U?$_List_node@U?$pair@$$CB_KH@std@@PEAX@std@@@1@AEBUpiecewise_construct_t@1@$$QEAV?$tuple@AEB_K@1@$$QEAV?$tuple@$$V@1@@Z
    ??$?0AEBV?$allocator@D@std@@$$V@?$_Compressed_pair@V?$allocator@D@std@@V?$_String_val@U?$_Simple_types@D@std@@@2@$00@std@@QEAA@U_One_then_variadic_args_t@1@AEBV?$allocator@D@1@@Z
    ??$?0AEBV?$allocator@H@std@@$$V@?$_Compressed_pair@V?$allocator@H@std@@V?$_Vector_val@U?$_Simple_types@H@std@@@2@$00@std@@QEAA@U_One_then_variadic_args_t@1@AEBV?$allocator@H@1@@Z
    ??$?0AEBV?$allocator@PEAUState@DFA@re2@@@std@@$$V@?$_Compressed_pair@V?$allocator@U?$_List_node@PEAUState@DFA@re2@@PEAX@std@@@std@@V?$_List_val@U?$_List_simple_types@PEAUState@DFA@re2@@@std@@@2@$00@std@@QEAA@U_One_then_variadic_args_t@1@AEBV?$allocator@PEAUState@DFA@re2@@@1@@Z
    ??$?0AEBV?$allocator@PEAUState@DFA@re2@@@std@@$$V@?$_Compressed_pair@V?$allocator@V?$_List_unchecked_const_iterator@V?$_List_val@U?$_List_simple_types@PEAUState@DFA@re2@@@std@@@std@@U_Iterator_base0@2@@std@@@std@@V?$_Vector_val@U?$_Simple_types@V?$_List_unchecked_const_iterator@V?$_List_val@U?$_List_simple_types@PEAUState@DFA@re2@@@std@@@std@@U_Iterator_base0@2@@std@@@std@@@2@$00@std@@QEAA@U_One_then_variadic_args_t@1@AEBV?$allocator@PEAUState@DFA@re2@@@1@@Z
    ??$?0AEBV?$allocator@PEAUState@DFA@re2@@@std@@$0A@@?$_Hash_vec@V?$allocator@V?$_List_unchecked_const_iterator@V?$_List_val@U?$_List_simple_types@PEAUState@DFA@re2@@@std@@@std@@U_Iterator_base0@2@@std@@@std@@@std@@QEAA@AEBV?$allocator@PEAUState@DFA@re2@@@1@@Z
    ??$?0AEBV?$allocator@U?$pair@$$CB_KH@std@@@std@@$$V@?$_Compressed_pair@V?$allocator@U?$_List_node@U?$pair@$$CB_KH@std@@PEAX@std@@@std@@V?$_List_val@U?$_List_simple_types@U?$pair@$$CB_KH@std@@@std@@@2@$00@std@@QEAA@U_One_then_variadic_args_t@1@AEBV?$allocator@U?$pair@$$CB_KH@std@@@1@@Z
    ??$?0AEBV?$allocator@U?$pair@$$CB_KH@std@@@std@@$$V@?$_Compressed_pair@V?$allocator@V?$_List_unchecked_iterator@V?$_List_val@U?$_List_simple_types@U?$pair@$$CB_KH@std@@@std@@@std@@@std@@@std@@V?$_Vector_val@U?$_Simple_types@V?$_List_unchecked_iterator@V?$_List_val@U?$_List_simple_types@U?$pair@$$CB_KH@std@@@std@@@std@@@std@@@std@@@2@$00@std@@QEAA@U_One_then_variadic_args_t@1@AEBV?$allocator@U?$pair@$$CB_KH@std@@@1@@Z
    ??$?0AEBV?$allocator@U?$pair@$$CB_KH@std@@@std@@$0A@@?$_Hash_vec@V?$allocator@V?$_List_unchecked_iterator@V?$_List_val@U?$_List_simple_types@U?$pair@$$CB_KH@std@@@std@@@std@@@std@@@std@@@std@@QEAA@AEBV?$allocator@U?$pair@$$CB_KH@std@@@1@@Z
    ??$?0AEBV?$allocator@U?$pair@QEAUState@DFA@re2@@H@std@@@std@@$$V@?$_Compressed_pair@V?$allocator@U?$_List_node@U?$pair@QEAUState@DFA@re2@@H@std@@PEAX@std@@@std@@V?$_List_val@U?$_List_simple_types@U?$pair@QEAUState@DFA@re2@@H@std@@@std@@@2@$00@std@@QEAA@U_One_then_variadic_args_t@1@AEBV?$allocator@U?$pair@QEAUState@DFA@re2@@H@std@@@1@@Z
    ??$?0AEBV?$allocator@U?$pair@QEAUState@DFA@re2@@H@std@@@std@@$$V@?$_Compressed_pair@V?$allocator@V?$_List_unchecked_iterator@V?$_List_val@U?$_List_simple_types@U?$pair@QEAUState@DFA@re2@@H@std@@@std@@@std@@@std@@@std@@V?$_Vector_val@U?$_Simple_types@V?$_List_unchecked_iterator@V?$_List_val@U?$_List_simple_types@U?$pair@QEAUState@DFA@re2@@H@std@@@std@@@std@@@std@@@std@@@2@$00@std@@QEAA@U_One_then_variadic_args_t@1@AEBV?$allocator@U?$pair@QEAUState@DFA@re2@@H@std@@@1@@Z
    ??$?0AEBV?$allocator@U?$pair@QEAUState@DFA@re2@@H@std@@@std@@$0A@@?$_Hash_vec@V?$allocator@V?$_List_unchecked_iterator@V?$_List_val@U?$_List_simple_types@U?$pair@QEAUState@DFA@re2@@H@std@@@std@@@std@@@std@@@std@@@std@@QEAA@AEBV?$allocator@U?$pair@QEAUState@DFA@re2@@H@std@@@1@@Z
    ??$?0AEBV?$basic_string@DU?$char_traits@D@std@@V?$allocator@D@2@@std@@$$Z$$V@?$pair@$$CBV?$basic_string@DU?$char_traits@D@std@@V?$allocator@D@2@@std@@H@std@@QEAA@Upiecewise_construct_t@1@V?$tuple@AEBV?$basic_string@DU?$char_traits@D@std@@V?$allocator@D@2@@std@@@1@V?$tuple@$$V@1@@Z
    ??$?0AEBV?$basic_string@DU?$char_traits@D@std@@V?$allocator@D@2@@std@@$0A@@?$tuple@AEBV?$basic_string@DU?$char_traits@D@std@@V?$allocator@D@2@@std@@@std@@QEAA@AEBV?$basic_string@DU?$char_traits@D@std@@V?$allocator@D@2@@1@@Z
    ??$?0AEBV?$basic_string@DU?$char_traits@D@std@@V?$allocator@D@2@@std@@@?$_Tree_temp_node@V?$allocator@U?$_Tree_node@V?$basic_string@DU?$char_traits@D@std@@V?$allocator@D@2@@std@@PEAX@std@@@std@@@std@@QEAA@AEAV?$allocator@U?$_Tree_node@V?$basic_string@DU?$char_traits@D@std@@V?$allocator@D@2@@std@@PEAX@std@@@1@PEAU?$_Tree_node@V?$basic_string@DU?$char_traits@D@std@@V?$allocator@D@2@@std@@PEAX@1@AEBV?$basic_string@DU?$char_traits@D@std@@V?$allocator@D@2@@1@@Z
    ??$?0AEBV?$basic_string@DU?$char_traits@D@std@@V?$allocator@D@2@@std@@@?$_Tuple_val@AEBV?$basic_string@DU?$char_traits@D@std@@V?$allocator@D@2@@std@@@std@@QEAA@AEBV?$basic_string@DU?$char_traits@D@std@@V?$allocator@D@2@@1@@Z
    ??$?0AEB_K$$Z$$V@?$pair@$$CB_KH@std@@QEAA@Upiecewise_construct_t@1@V?$tuple@AEB_K@1@V?$tuple@$$V@1@@Z
    ??$?0AEB_K$0A@@?$tuple@AEB_K@std@@QEAA@AEB_K@Z
    ??$?0AEB_K@?$_Tuple_val@AEB_K@std@@QEAA@AEB_K@Z
    ??$?0H$$V$0A@@?$tuple@$$QEAH@std@@QEAA@$$QEAH@Z
    ??$?0H@?$_Tuple_val@$$QEAH@std@@QEAA@$$QEAH@Z
    ??$?0M@?$_Compressed_pair@U?$equal_to@PEAUState@DFA@re2@@@std@@M$00@std@@QEAA@U_Zero_then_variadic_args_t@1@$$QEAM@Z
    ??$?0M@?$_Compressed_pair@U?$equal_to@_K@std@@M$00@std@@QEAA@U_Zero_then_variadic_args_t@1@$$QEAM@Z
    ??$?0M@?$_Compressed_pair@UStateEqual@DFA@re2@@M$00@std@@QEAA@U_Zero_then_variadic_args_t@1@$$QEAM@Z
    ??$?0PEAEUDeleter@?$PODArray@E@re2@@$0A@X@?$unique_ptr@$$BY0A@EUDeleter@?$PODArray@E@re2@@@std@@QEAA@PEAE$$QEAUDeleter@?$PODArray@E@re2@@@Z
    ??$?0PEAGUDeleter@?$PODArray@G@re2@@$0A@X@?$unique_ptr@$$BY0A@GUDeleter@?$PODArray@G@re2@@@std@@QEAA@PEAG$$QEAUDeleter@?$PODArray@G@re2@@@Z
    ??$?0PEAHUDeleter@?$PODArray@H@re2@@$0A@X@?$unique_ptr@$$BY0A@HUDeleter@?$PODArray@H@re2@@@std@@QEAA@PEAH$$QEAUDeleter@?$PODArray@H@re2@@@Z
    ??$?0PEAPEAVRegexp@re2@@UDeleter@?$PODArray@PEAVRegexp@re2@@@1@$0A@X@?$unique_ptr@$$BY0A@PEAVRegexp@re2@@UDeleter@?$PODArray@PEAVRegexp@re2@@@2@@std@@QEAA@PEAPEAVRegexp@re2@@$$QEAUDeleter@?$PODArray@PEAVRegexp@re2@@@3@@Z
    ??$?0PEAPEBDUDeleter@?$PODArray@PEBD@re2@@$0A@X@?$unique_ptr@$$BY0A@PEBDUDeleter@?$PODArray@PEBD@re2@@@std@@QEAA@PEAPEBD$$QEAUDeleter@?$PODArray@PEBD@re2@@@Z
    ??$?0PEAU?$_List_node@U?$pair@$$CB_KH@std@@PEAX@std@@_N$0A@@?$pair@PEAU?$_List_node@U?$pair@$$CB_KH@std@@PEAX@std@@_N@std@@QEAA@$$QEAPEAU?$_List_node@U?$pair@$$CB_KH@std@@PEAX@1@$$QEA_N@Z
    ??$?0PEAU?$_List_node@U?$pair@QEAUState@DFA@re2@@H@std@@PEAX@std@@_N$0A@@?$pair@PEAU?$_List_node@U?$pair@QEAUState@DFA@re2@@H@std@@PEAX@std@@_N@std@@QEAA@$$QEAPEAU?$_List_node@U?$pair@QEAUState@DFA@re2@@H@std@@PEAX@1@$$QEA_N@Z
    ??$?0PEAU?$_Tree_node@HPEAX@std@@_N$0A@@?$pair@PEAU?$_Tree_node@HPEAX@std@@_N@std@@QEAA@$$QEAPEAU?$_Tree_node@HPEAX@1@$$QEA_N@Z
    ??$?0PEAU?$_Tree_node@U?$pair@$$CBHH@std@@PEAX@std@@_N$0A@@?$pair@PEAU?$_Tree_node@U?$pair@$$CBHH@std@@PEAX@std@@_N@std@@QEAA@$$QEAPEAU?$_Tree_node@U?$pair@$$CBHH@std@@PEAX@1@$$QEA_N@Z
    ??$?0PEAU?$_Tree_node@U?$pair@$$CBHV?$basic_string@DU?$char_traits@D@std@@V?$allocator@D@2@@std@@@std@@PEAX@std@@_N$0A@@?$pair@PEAU?$_Tree_node@U?$pair@$$CBHV?$basic_string@DU?$char_traits@D@std@@V?$allocator@D@2@@std@@@std@@PEAX@std@@_N@std@@QEAA@$$QEAPEAU?$_Tree_node@U?$pair@$$CBHV?$basic_string@DU?$char_traits@D@std@@V?$allocator@D@2@@std@@@std@@PEAX@1@$$QEA_N@Z
    ??$?0PEAU?$_Tree_node@U?$pair@$$CBV?$basic_string@DU?$char_traits@D@std@@V?$allocator@D@2@@std@@H@std@@PEAX@std@@_N$0A@@?$pair@PEAU?$_Tree_node@U?$pair@$$CBV?$basic_string@DU?$char_traits@D@std@@V?$allocator@D@2@@std@@H@std@@PEAX@std@@_N@std@@QEAA@$$QEAPEAU?$_Tree_node@U?$pair@$$CBV?$basic_string@DU?$char_traits@D@std@@V?$allocator@D@2@@std@@H@std@@PEAX@1@$$QEA_N@Z
    ??$?0PEAU?$_Tree_node@U?$pair@$$CBV?$basic_string@DU?$char_traits@D@std@@V?$allocator@D@2@@std@@PEAVPrefilter@re2@@@std@@PEAX@std@@_N$0A@@?$pair@PEAU?$_Tree_node@U?$pair@$$CBV?$basic_string@DU?$char_traits@D@std@@V?$allocator@D@2@@std@@PEAVPrefilter@re2@@@std@@PEAX@std@@_N@std@@QEAA@$$QEAPEAU?$_Tree_node@U?$pair@$$CBV?$basic_string@DU?$char_traits@D@std@@V?$allocator@D@2@@std@@PEAVPrefilter@re2@@@std@@PEAX@1@$$QEA_N@Z
    ??$?0PEAU?$_Tree_node@U?$pair@QEAVRegexp@re2@@H@std@@PEAX@std@@_N$0A@@?$pair@PEAU?$_Tree_node@U?$pair@QEAVRegexp@re2@@H@std@@PEAX@std@@_N@std@@QEAA@$$QEAPEAU?$_Tree_node@U?$pair@QEAVRegexp@re2@@H@std@@PEAX@1@$$QEA_N@Z
    ??$?0PEAU?$_Tree_node@URuneRange@re2@@PEAX@std@@_N$0A@@?$pair@PEAU?$_Tree_node@URuneRange@re2@@PEAX@std@@_N@std@@QEAA@$$QEAPEAU?$_Tree_node@URuneRange@re2@@PEAX@1@$$QEA_N@Z
    ??$?0PEAU?$_Tree_node@V?$basic_string@DU?$char_traits@D@std@@V?$allocator@D@2@@std@@PEAX@std@@_N$0A@@?$pair@PEAU?$_Tree_node@V?$basic_string@DU?$char_traits@D@std@@V?$allocator@D@2@@std@@PEAX@std@@_N@std@@QEAA@$$QEAPEAU?$_Tree_node@V?$basic_string@DU?$char_traits@D@std@@V?$allocator@D@2@@std@@PEAX@1@$$QEA_N@Z
    ??$?0PEAUAddState@NFA@re2@@UDeleter@?$PODArray@UAddState@NFA@re2@@@2@$0A@X@?$unique_ptr@$$BY0A@UAddState@NFA@re2@@UDeleter@?$PODArray@UAddState@NFA@re2@@@3@@std@@QEAA@PEAUAddState@NFA@re2@@$$QEAUDeleter@?$PODArray@UAddState@NFA@re2@@@4@@Z
    ??$?0PEAUInstCond@re2@@UDeleter@?$PODArray@UInstCond@re2@@@1@$0A@X@?$unique_ptr@$$BY0A@UInstCond@re2@@UDeleter@?$PODArray@UInstCond@re2@@@2@@std@@QEAA@PEAUInstCond@re2@@$$QEAUDeleter@?$PODArray@UInstCond@re2@@@3@@Z
    ??$?0PEAUJob@re2@@UDeleter@?$PODArray@UJob@re2@@@1@$0A@X@?$unique_ptr@$$BY0A@UJob@re2@@UDeleter@?$PODArray@UJob@re2@@@2@@std@@QEAA@PEAUJob@re2@@$$QEAUDeleter@?$PODArray@UJob@re2@@@3@@Z
    ??$?0PEAUState@DFA@re2@@@?$allocator@PEAPEAUState@DFA@re2@@@std@@QEAA@AEBV?$allocator@PEAUState@DFA@re2@@@1@@Z
    ??$?0PEAUState@DFA@re2@@@?$allocator@U?$_List_node@PEAUState@DFA@re2@@PEAX@std@@@std@@QEAA@AEBV?$allocator@PEAUState@DFA@re2@@@1@@Z
    ??$?0PEAUState@DFA@re2@@@?$allocator@U_Container_proxy@std@@@std@@QEAA@AEBV?$allocator@PEAUState@DFA@re2@@@1@@Z
    ??$?0PEAUState@DFA@re2@@@?$allocator@V?$_List_unchecked_const_iterator@V?$_List_val@U?$_List_simple_types@PEAUState@DFA@re2@@@std@@@std@@U_Iterator_base0@2@@std@@@std@@QEAA@AEBV?$allocator@PEAUState@DFA@re2@@@1@@Z
    ??$?0PEAVIndexValue@?$SparseArray@H@re2@@UDeleter@?$PODArray@VIndexValue@?$SparseArray@H@re2@@@2@$0A@X@?$unique_ptr@$$BY0A@VIndexValue@?$SparseArray@H@re2@@UDeleter@?$PODArray@VIndexValue@?$SparseArray@H@re2@@@3@@std@@QEAA@PEAVIndexValue@?$SparseArray@H@re2@@$$QEAUDeleter@?$PODArray@VIndexValue@?$SparseArray@H@re2@@@4@@Z
    ??$?0PEAVIndexValue@?$SparseArray@PEAUThread@NFA@re2@@@re2@@UDeleter@?$PODArray@VIndexValue@?$SparseArray@PEAUThread@NFA@re2@@@re2@@@2@$0A@X@?$unique_ptr@$$BY0A@VIndexValue@?$SparseArray@PEAUThread@NFA@re2@@@re2@@UDeleter@?$PODArray@VIndexValue@?$SparseArray@PEAUThread@NFA@re2@@@re2@@@3@@std@@QEAA@PEAVIndexValue@?$SparseArray@PEAUThread@NFA@re2@@@re2@@$$QEAUDeleter@?$PODArray@VIndexValue@?$SparseArray@PEAUThread@NFA@re2@@@re2@@@4@@Z
    ??$?0PEAVInst@Prog@re2@@UDeleter@?$PODArray@VInst@Prog@re2@@@2@$0A@X@?$unique_ptr@$$BY0A@VInst@Prog@re2@@UDeleter@?$PODArray@VInst@Prog@re2@@@3@@std@@QEAA@PEAVInst@Prog@re2@@$$QEAUDeleter@?$PODArray@VInst@Prog@re2@@@4@@Z
    ??$?0PEAVRegexp@re2@@$$V$0A@@?$tuple@$$QEAPEAVRegexp@re2@@@std@@QEAA@$$QEAPEAVRegexp@re2@@@Z
    ??$?0PEAVRegexp@re2@@@?$_Tuple_val@$$QEAPEAVRegexp@re2@@@std@@QEAA@$$QEAPEAVRegexp@re2@@@Z
    ??$?0PEA_KUDeleter@?$PODArray@_K@re2@@$0A@X@?$unique_ptr@$$BY0A@_KUDeleter@?$PODArray@_K@re2@@@std@@QEAA@PEA_K$$QEAUDeleter@?$PODArray@_K@re2@@@Z
    ??$?0U?$WalkState@H@re2@@@?$allocator@PEAU?$WalkState@H@re2@@@std@@QEAA@AEBV?$allocator@U?$WalkState@H@re2@@@1@@Z
    ??$?0U?$WalkState@H@re2@@@?$allocator@U_Container_proxy@std@@@std@@QEAA@AEBV?$allocator@U?$WalkState@H@re2@@@1@@Z
    ??$?0U?$WalkState@PEAVInfo@Prefilter@re2@@@re2@@@?$allocator@PEAU?$WalkState@PEAVInfo@Prefilter@re2@@@re2@@@std@@QEAA@AEBV?$allocator@U?$WalkState@PEAVInfo@Prefilter@re2@@@re2@@@1@@Z
    ??$?0U?$WalkState@PEAVInfo@Prefilter@re2@@@re2@@@?$allocator@U_Container_proxy@std@@@std@@QEAA@AEBV?$allocator@U?$WalkState@PEAVInfo@Prefilter@re2@@@re2@@@1@@Z
    ??$?0U?$WalkState@PEAVRegexp@re2@@@re2@@@?$allocator@PEAU?$WalkState@PEAVRegexp@re2@@@re2@@@std@@QEAA@AEBV?$allocator@U?$WalkState@PEAVRegexp@re2@@@re2@@@1@@Z
    ??$?0U?$WalkState@PEAVRegexp@re2@@@re2@@@?$allocator@U_Container_proxy@std@@@std@@QEAA@AEBV?$allocator@U?$WalkState@PEAVRegexp@re2@@@re2@@@1@@Z
    ??$?0U?$WalkState@UFrag@re2@@@re2@@@?$allocator@PEAU?$WalkState@UFrag@re2@@@re2@@@std@@QEAA@AEBV?$allocator@U?$WalkState@UFrag@re2@@@re2@@@1@@Z
    ??$?0U?$WalkState@UFrag@re2@@@re2@@@?$allocator@U_Container_proxy@std@@@std@@QEAA@AEBV?$allocator@U?$WalkState@UFrag@re2@@@re2@@@1@@Z
    ??$?0U?$WalkState@_N@re2@@@?$allocator@PEAU?$WalkState@_N@re2@@@std@@QEAA@AEBV?$allocator@U?$WalkState@_N@re2@@@1@@Z
    ??$?0U?$WalkState@_N@re2@@@?$allocator@U_Container_proxy@std@@@std@@QEAA@AEBV?$allocator@U?$WalkState@_N@re2@@@1@@Z
    ??$?0U?$default_delete@V?$SparseSetT@X@re2@@@std@@$0A@@?$unique_ptr@V?$SparseSetT@X@re2@@U?$default_delete@V?$SparseSetT@X@re2@@@std@@@std@@QEAA@XZ
    ??$?0U?$default_delete@VPrefilterTree@re2@@@std@@$0A@@?$unique_ptr@VPrefilterTree@re2@@U?$default_delete@VPrefilterTree@re2@@@std@@@std@@QEAA@$$QEAV01@@Z
    ??$?0U?$default_delete@VPrefilterTree@re2@@@std@@$0A@@?$unique_ptr@VPrefilterTree@re2@@U?$default_delete@VPrefilterTree@re2@@@std@@@std@@QEAA@PEAVPrefilterTree@re2@@@Z
    ??$?0U?$default_delete@VPrefilterTree@re2@@@std@@PEAVPrefilterTree@re2@@@?$_Compressed_pair@U?$default_delete@VPrefilterTree@re2@@@std@@PEAVPrefilterTree@re2@@$00@std@@QEAA@U_One_then_variadic_args_t@1@$$QEAU?$default_delete@VPrefilterTree@re2@@@1@$$QEAPEAVPrefilterTree@re2@@@Z
    ??$?0U?$default_delete@VProg@re2@@@std@@$0A@@?$unique_ptr@VProg@re2@@U?$default_delete@VProg@re2@@@std@@@std@@QEAA@$$QEAV01@@Z
    ??$?0U?$default_delete@VProg@re2@@@std@@$0A@@?$unique_ptr@VProg@re2@@U?$default_delete@VProg@re2@@@std@@@std@@QEAA@XZ
    ??$?0U?$default_delete@VProg@re2@@@std@@PEAVProg@re2@@@?$_Compressed_pair@U?$default_delete@VProg@re2@@@std@@PEAVProg@re2@@$00@std@@QEAA@U_One_then_variadic_args_t@1@$$QEAU?$default_delete@VProg@re2@@@1@$$QEAPEAVProg@re2@@@Z
    ??$?0U?$integral_constant@_N$00@std@@@_Unused_parameter@std@@QEAA@$$QEAU?$integral_constant@_N$00@1@@Z
    ??$?0U?$pair@$$CB_KH@std@@@?$allocator@U?$_List_node@U?$pair@$$CB_KH@std@@PEAX@std@@@std@@QEAA@AEBV?$allocator@U?$pair@$$CB_KH@std@@@1@@Z
    ??$?0U?$pair@$$CB_KH@std@@@?$allocator@V?$_List_unchecked_iterator@V?$_List_val@U?$_List_simple_types@U?$pair@$$CB_KH@std@@@std@@@std@@@std@@@std@@QEAA@AEBV?$allocator@U?$pair@$$CB_KH@std@@@1@@Z
    ??$?0U?$pair@QEAUState@DFA@re2@@H@std@@@?$allocator@U?$_List_node@U?$pair@QEAUState@DFA@re2@@H@std@@PEAX@std@@@std@@QEAA@AEBV?$allocator@U?$pair@QEAUState@DFA@re2@@H@std@@@1@@Z
    ??$?0U?$pair@QEAUState@DFA@re2@@H@std@@@?$allocator@V?$_List_unchecked_iterator@V?$_List_val@U?$_List_simple_types@U?$pair@QEAUState@DFA@re2@@H@std@@@std@@@std@@@std@@@std@@QEAA@AEBV?$allocator@U?$pair@QEAUState@DFA@re2@@H@std@@@1@@Z
    ??$?0UDeleter@?$PODArray@E@re2@@$0A@@?$unique_ptr@$$BY0A@EUDeleter@?$PODArray@E@re2@@@std@@QEAA@XZ
    ??$?0UDeleter@?$PODArray@E@re2@@AEAPEAE@?$_Compressed_pair@UDeleter@?$PODArray@E@re2@@PEAE$0A@@std@@QEAA@U_One_then_variadic_args_t@1@$$QEAUDeleter@?$PODArray@E@re2@@AEAPEAE@Z
    ??$?0UDeleter@?$PODArray@G@re2@@$0A@@?$unique_ptr@$$BY0A@GUDeleter@?$PODArray@G@re2@@@std@@QEAA@XZ
    ??$?0UDeleter@?$PODArray@G@re2@@AEAPEAG@?$_Compressed_pair@UDeleter@?$PODArray@G@re2@@PEAG$0A@@std@@QEAA@U_One_then_variadic_args_t@1@$$QEAUDeleter@?$PODArray@G@re2@@AEAPEAG@Z
    ??$?0UDeleter@?$PODArray@H@re2@@$0A@@?$unique_ptr@$$BY0A@HUDeleter@?$PODArray@H@re2@@@std@@QEAA@XZ
    ??$?0UDeleter@?$PODArray@H@re2@@AEAPEAH@?$_Compressed_pair@UDeleter@?$PODArray@H@re2@@PEAH$0A@@std@@QEAA@U_One_then_variadic_args_t@1@$$QEAUDeleter@?$PODArray@H@re2@@AEAPEAH@Z
    ??$?0UDeleter@?$PODArray@PEAVRegexp@re2@@@re2@@$0A@@?$unique_ptr@$$BY0A@PEAVRegexp@re2@@UDeleter@?$PODArray@PEAVRegexp@re2@@@2@@std@@QEAA@XZ
    ??$?0UDeleter@?$PODArray@PEAVRegexp@re2@@@re2@@AEAPEAPEAVRegexp@2@@?$_Compressed_pair@UDeleter@?$PODArray@PEAVRegexp@re2@@@re2@@PEAPEAVRegexp@3@$0A@@std@@QEAA@U_One_then_variadic_args_t@1@$$QEAUDeleter@?$PODArray@PEAVRegexp@re2@@@re2@@AEAPEAPEAVRegexp@5@@Z
    ??$?0UDeleter@?$PODArray@PEBD@re2@@$0A@@?$unique_ptr@$$BY0A@PEBDUDeleter@?$PODArray@PEBD@re2@@@std@@QEAA@XZ
    ??$?0UDeleter@?$PODArray@PEBD@re2@@AEAPEAPEBD@?$_Compressed_pair@UDeleter@?$PODArray@PEBD@re2@@PEAPEBD$0A@@std@@QEAA@U_One_then_variadic_args_t@1@$$QEAUDeleter@?$PODArray@PEBD@re2@@AEAPEAPEBD@Z
    ??$?0UDeleter@?$PODArray@UAddState@NFA@re2@@@re2@@$0A@@?$unique_ptr@$$BY0A@UAddState@NFA@re2@@UDeleter@?$PODArray@UAddState@NFA@re2@@@3@@std@@QEAA@XZ
    ??$?0UDeleter@?$PODArray@UAddState@NFA@re2@@@re2@@AEAPEAUAddState@NFA@2@@?$_Compressed_pair@UDeleter@?$PODArray@UAddState@NFA@re2@@@re2@@PEAUAddState@NFA@3@$0A@@std@@QEAA@U_One_then_variadic_args_t@1@$$QEAUDeleter@?$PODArray@UAddState@NFA@re2@@@re2@@AEAPEAUAddState@NFA@5@@Z
    ??$?0UDeleter@?$PODArray@UInstCond@re2@@@re2@@AEAPEAUInstCond@2@@?$_Compressed_pair@UDeleter@?$PODArray@UInstCond@re2@@@re2@@PEAUInstCond@3@$0A@@std@@QEAA@U_One_then_variadic_args_t@1@$$QEAUDeleter@?$PODArray@UInstCond@re2@@@re2@@AEAPEAUInstCond@5@@Z
    ??$?0UDeleter@?$PODArray@UJob@re2@@@re2@@$0A@@?$unique_ptr@$$BY0A@UJob@re2@@UDeleter@?$PODArray@UJob@re2@@@2@@std@@QEAA@XZ
    ??$?0UDeleter@?$PODArray@UJob@re2@@@re2@@AEAPEAUJob@2@@?$_Compressed_pair@UDeleter@?$PODArray@UJob@re2@@@re2@@PEAUJob@3@$0A@@std@@QEAA@U_One_then_variadic_args_t@1@$$QEAUDeleter@?$PODArray@UJob@re2@@@re2@@AEAPEAUJob@5@@Z
    ??$?0UDeleter@?$PODArray@VIndexValue@?$SparseArray@H@re2@@@re2@@AEAPEAVIndexValue@?$SparseArray@H@2@@?$_Compressed_pair@UDeleter@?$PODArray@VIndexValue@?$SparseArray@H@re2@@@re2@@PEAVIndexValue@?$SparseArray@H@3@$0A@@std@@QEAA@U_One_then_variadic_args_t@1@$$QEAUDeleter@?$PODArray@VIndexValue@?$SparseArray@H@re2@@@re2@@AEAPEAVIndexValue@?$SparseArray@H@5@@Z
    ??$?0UDeleter@?$PODArray@VIndexValue@?$SparseArray@PEAUThread@NFA@re2@@@re2@@@re2@@$0A@@?$unique_ptr@$$BY0A@VIndexValue@?$SparseArray@PEAUThread@NFA@re2@@@re2@@UDeleter@?$PODArray@VIndexValue@?$SparseArray@PEAUThread@NFA@re2@@@re2@@@3@@std@@QEAA@XZ
    ??$?0UDeleter@?$PODArray@VIndexValue@?$SparseArray@PEAUThread@NFA@re2@@@re2@@@re2@@AEAPEAVIndexValue@?$SparseArray@PEAUThread@NFA@re2@@@2@@?$_Compressed_pair@UDeleter@?$PODArray@VIndexValue@?$SparseArray@PEAUThread@NFA@re2@@@re2@@@re2@@PEAVIndexValue@?$SparseArray@PEAUThread@NFA@re2@@@3@$0A@@std@@QEAA@U_One_then_variadic_args_t@1@$$QEAUDeleter@?$PODArray@VIndexValue@?$SparseArray@PEAUThread@NFA@re2@@@re2@@@re2@@AEAPEAVIndexValue@?$SparseArray@PEAUThread@NFA@re2@@@5@@Z
    ??$?0UDeleter@?$PODArray@VInst@Prog@re2@@@re2@@$0A@@?$unique_ptr@$$BY0A@VInst@Prog@re2@@UDeleter@?$PODArray@VInst@Prog@re2@@@3@@std@@QEAA@XZ
    ??$?0UDeleter@?$PODArray@VInst@Prog@re2@@@re2@@AEAPEAVInst@Prog@2@@?$_Compressed_pair@UDeleter@?$PODArray@VInst@Prog@re2@@@re2@@PEAVInst@Prog@3@$0A@@std@@QEAA@U_One_then_variadic_args_t@1@$$QEAUDeleter@?$PODArray@VInst@Prog@re2@@@re2@@AEAPEAVInst@Prog@5@@Z
    ??$?0UDeleter@?$PODArray@_K@re2@@$0A@@?$unique_ptr@$$BY0A@_KUDeleter@?$PODArray@_K@re2@@@std@@QEAA@XZ
    ??$?0UDeleter@?$PODArray@_K@re2@@AEAPEA_K@?$_Compressed_pair@UDeleter@?$PODArray@_K@re2@@PEA_K$0A@@std@@QEAA@U_One_then_variadic_args_t@1@$$QEAUDeleter@?$PODArray@_K@re2@@AEAPEA_K@Z
    ??$?0URuneRange@re2@@@?$_Tree_temp_node@V?$allocator@U?$_Tree_node@URuneRange@re2@@PEAX@std@@@std@@@std@@QEAA@AEAV?$allocator@U?$_Tree_node@URuneRange@re2@@PEAX@std@@@1@PEAU?$_Tree_node@URuneRange@re2@@PEAX@1@$$QEAURuneRange@re2@@@Z
    ??$?0UThread@NFA@re2@@@?$allocator@PEAUThread@NFA@re2@@@std@@QEAA@AEBV?$allocator@UThread@NFA@re2@@@1@@Z
    ??$?0UThread@NFA@re2@@@?$allocator@U_Container_proxy@std@@@std@@QEAA@AEBV?$allocator@UThread@NFA@re2@@@1@@Z
    ??$?0U_Exact_args_t@std@@$0A@@?$tuple@$$V@std@@QEAA@U_Exact_args_t@1@@Z
    ??$?0U_Exact_args_t@std@@AEBH$$V$0A@@?$tuple@AEBH@std@@QEAA@U_Exact_args_t@1@AEBH@Z
    ??$?0U_Exact_args_t@std@@AEBQEAUState@DFA@re2@@$$V$0A@@?$tuple@AEBQEAUState@DFA@re2@@@std@@QEAA@U_Exact_args_t@1@AEBQEAUState@DFA@re2@@@Z
    ??$?0U_Exact_args_t@std@@AEBV?$basic_string@DU?$char_traits@D@std@@V?$allocator@D@2@@1@$$V$0A@@?$tuple@AEBV?$basic_string@DU?$char_traits@D@std@@V?$allocator@D@2@@std@@@std@@QEAA@U_Exact_args_t@1@AEBV?$basic_string@DU?$char_traits@D@std@@V?$allocator@D@2@@1@@Z
    ??$?0U_Exact_args_t@std@@AEB_K$$V$0A@@?$tuple@AEB_K@std@@QEAA@U_Exact_args_t@1@AEB_K@Z
    ??$?0U_Exact_args_t@std@@H$$V$0A@@?$tuple@$$QEAH@std@@QEAA@U_Exact_args_t@1@$$QEAH@Z
    ??$?0U_Exact_args_t@std@@PEAVRegexp@re2@@$$V$0A@@?$tuple@$$QEAPEAVRegexp@re2@@@std@@QEAA@U_Exact_args_t@1@$$QEAPEAVRegexp@re2@@@Z
    ??$?0U_Zero_then_variadic_args_t@std@@M@?$_Compressed_pair@U?$hash@PEAUState@DFA@re2@@@std@@V?$_Compressed_pair@U?$equal_to@PEAUState@DFA@re2@@@std@@M$00@2@$00@std@@QEAA@U_Zero_then_variadic_args_t@1@$$QEAU21@$$QEAM@Z
    ??$?0U_Zero_then_variadic_args_t@std@@M@?$_Compressed_pair@U?$hash@_K@std@@V?$_Compressed_pair@U?$equal_to@_K@std@@M$00@2@$00@std@@QEAA@U_Zero_then_variadic_args_t@1@$$QEAU21@$$QEAM@Z
    ??$?0U_Zero_then_variadic_args_t@std@@M@?$_Compressed_pair@UStateHash@DFA@re2@@V?$_Compressed_pair@UStateEqual@DFA@re2@@M$00@std@@$00@std@@QEAA@U_Zero_then_variadic_args_t@1@$$QEAU21@$$QEAM@Z
    ??$?0V?$_List_iterator@V?$_List_val@U?$_List_simple_types@PEAUState@DFA@re2@@@std@@@std@@@std@@_N$0A@@?$pair@V?$_List_const_iterator@V?$_List_val@U?$_List_simple_types@PEAUState@DFA@re2@@@std@@@std@@@std@@_N@std@@QEAA@$$QEAV?$_List_iterator@V?$_List_val@U?$_List_simple_types@PEAUState@DFA@re2@@@std@@@std@@@1@$$QEA_N@Z
    ??$?0V?$_List_iterator@V?$_List_val@U?$_List_simple_types@U?$pair@QEAUState@DFA@re2@@H@std@@@std@@@std@@@std@@_N$0A@@?$pair@V?$_List_iterator@V?$_List_val@U?$_List_simple_types@U?$pair@QEAUState@DFA@re2@@H@std@@@std@@@std@@@std@@_N@std@@QEAA@$$QEAV?$_List_iterator@V?$_List_val@U?$_List_simple_types@U?$pair@QEAUState@DFA@re2@@H@std@@@std@@@std@@@1@$$QEA_N@Z
    ??$?0V?$_Tree_const_iterator@V?$_Tree_val@U?$_Tree_simple_types@H@std@@@std@@@std@@AEB_N$0A@@?$pair@V?$_Tree_const_iterator@V?$_Tree_val@U?$_Tree_simple_types@H@std@@@std@@@std@@_N@std@@QEAA@$$QEAV?$_Tree_const_iterator@V?$_Tree_val@U?$_Tree_simple_types@H@std@@@std@@@1@AEB_N@Z
    ??$?0V?$_Tree_const_iterator@V?$_Tree_val@U?$_Tree_simple_types@URuneRange@re2@@@std@@@std@@@std@@AEB_N$0A@@?$pair@V?$_Tree_const_iterator@V?$_Tree_val@U?$_Tree_simple_types@URuneRange@re2@@@std@@@std@@@std@@_N@std@@QEAA@$$QEAV?$_Tree_const_iterator@V?$_Tree_val@U?$_Tree_simple_types@URuneRange@re2@@@std@@@std@@@1@AEB_N@Z
    ??$?0V?$_Tree_const_iterator@V?$_Tree_val@U?$_Tree_simple_types@V?$basic_string@DU?$char_traits@D@std@@V?$allocator@D@2@@std@@@std@@@std@@@std@@AEB_N$0A@@?$pair@V?$_Tree_const_iterator@V?$_Tree_val@U?$_Tree_simple_types@V?$basic_string@DU?$char_traits@D@std@@V?$allocator@D@2@@std@@@std@@@std@@@std@@_N@std@@QEAA@$$QEAV?$_Tree_const_iterator@V?$_Tree_val@U?$_Tree_simple_types@V?$basic_string@DU?$char_traits@D@std@@V?$allocator@D@2@@std@@@std@@@std@@@1@AEB_N@Z
    ??$?0V?$_Tree_iterator@V?$_Tree_val@U?$_Tree_simple_types@U?$pair@$$CBV?$basic_string@DU?$char_traits@D@std@@V?$allocator@D@2@@std@@PEAVPrefilter@re2@@@std@@@std@@@std@@@std@@AEB_N$0A@@?$pair@V?$_Tree_iterator@V?$_Tree_val@U?$_Tree_simple_types@U?$pair@$$CBV?$basic_string@DU?$char_traits@D@std@@V?$allocator@D@2@@std@@PEAVPrefilter@re2@@@std@@@std@@@std@@@std@@_N@std@@QEAA@$$QEAV?$_Tree_iterator@V?$_Tree_val@U?$_Tree_simple_types@U?$pair@$$CBV?$basic_string@DU?$char_traits@D@std@@V?$allocator@D@2@@std@@PEAVPrefilter@re2@@@std@@@std@@@std@@@1@AEB_N@Z
    ??$?0V?$allocator@D@std@@$$V@?$_Compressed_pair@V?$allocator@D@std@@V?$_String_val@U?$_Simple_types@D@std@@@2@$00@std@@QEAA@U_One_then_variadic_args_t@1@$$QEAV?$allocator@D@1@@Z
    ??$?0V?$basic_string@DU?$char_traits@D@std@@V?$allocator@D@2@@std@@@?$_Tree_temp_node@V?$allocator@U?$_Tree_node@V?$basic_string@DU?$char_traits@D@std@@V?$allocator@D@2@@std@@PEAX@std@@@std@@@std@@QEAA@AEAV?$allocator@U?$_Tree_node@V?$basic_string@DU?$char_traits@D@std@@V?$allocator@D@2@@std@@PEAX@std@@@1@PEAU?$_Tree_node@V?$basic_string@DU?$char_traits@D@std@@V?$allocator@D@2@@std@@PEAX@1@$$QEAV?$basic_string@DU?$char_traits@D@std@@V?$allocator@D@2@@1@@Z
    ??$?0V?$basic_string@DU?$char_traits@D@std@@V?$allocator@D@2@@std@@AEAPEAVPrefilter@re2@@$0A@@?$pair@$$CBV?$basic_string@DU?$char_traits@D@std@@V?$allocator@D@2@@std@@PEAVPrefilter@re2@@@std@@QEAA@$$QEAV?$basic_string@DU?$char_traits@D@std@@V?$allocator@D@2@@1@AEAPEAVPrefilter@re2@@@Z
    ??$?0V?$basic_string@DU?$char_traits@D@std@@V?$allocator@D@2@@std@@AEAPEAVPrefilter@re2@@@?$_Tree_temp_node@V?$allocator@U?$_Tree_node@U?$pair@$$CBV?$basic_string@DU?$char_traits@D@std@@V?$allocator@D@2@@std@@PEAVPrefilter@re2@@@std@@PEAX@std@@@std@@@std@@QEAA@AEAV?$allocator@U?$_Tree_node@U?$pair@$$CBV?$basic_string@DU?$char_traits@D@std@@V?$allocator@D@2@@std@@PEAVPrefilter@re2@@@std@@PEAX@std@@@1@PEAU?$_Tree_node@U?$pair@$$CBV?$basic_string@DU?$char_traits@D@std@@V?$allocator@D@2@@std@@PEAVPrefilter@re2@@@std@@PEAX@1@$$QEAV?$basic_string@DU?$char_traits@D@std@@V?$allocator@D@2@@1@AEAPEAVPrefilter@re2@@@Z
    ??$?0V?$basic_string@DU?$char_traits@D@std@@V?$allocator@D@2@@std@@AEAPEAVRegexp@re2@@$0A@@?$pair@V?$basic_string@DU?$char_traits@D@std@@V?$allocator@D@2@@std@@PEAVRegexp@re2@@@std@@QEAA@$$QEAV?$basic_string@DU?$char_traits@D@std@@V?$allocator@D@2@@1@AEAPEAVRegexp@re2@@@Z
    ??$?0V?$tuple@$$QEAH@std@@V?$tuple@$$V@1@$0A@$$Z$S@?$pair@$$CBHH@std@@QEAA@AEAV?$tuple@$$QEAH@1@AEAV?$tuple@$$V@1@U?$integer_sequence@_K$0A@@1@U?$integer_sequence@_K$S@1@@Z
    ??$?0V?$tuple@$$QEAH@std@@V?$tuple@$$V@1@$0A@$$Z$S@?$pair@$$CBHV?$basic_string@DU?$char_traits@D@std@@V?$allocator@D@2@@std@@@std@@QEAA@AEAV?$tuple@$$QEAH@1@AEAV?$tuple@$$V@1@U?$integer_sequence@_K$0A@@1@U?$integer_sequence@_K$S@1@@Z
    ??$?0V?$tuple@$$QEAPEAVRegexp@re2@@@std@@V?$tuple@$$V@1@$0A@$$Z$S@?$pair@QEAVRegexp@re2@@H@std@@QEAA@AEAV?$tuple@$$QEAPEAVRegexp@re2@@@1@AEAV?$tuple@$$V@1@U?$integer_sequence@_K$0A@@1@U?$integer_sequence@_K$S@1@@Z
    ??$?0V?$tuple@AEBH@std@@V?$tuple@$$V@1@$0A@$$Z$S@?$pair@$$CBHH@std@@QEAA@AEAV?$tuple@AEBH@1@AEAV?$tuple@$$V@1@U?$integer_sequence@_K$0A@@1@U?$integer_sequence@_K$S@1@@Z
    ??$?0V?$tuple@AEBQEAUState@DFA@re2@@@std@@V?$tuple@$$V@1@$0A@$$Z$S@?$pair@QEAUState@DFA@re2@@H@std@@QEAA@AEAV?$tuple@AEBQEAUState@DFA@re2@@@1@AEAV?$tuple@$$V@1@U?$integer_sequence@_K$0A@@1@U?$integer_sequence@_K$S@1@@Z
    ??$?0V?$tuple@AEBV?$basic_string@DU?$char_traits@D@std@@V?$allocator@D@2@@std@@@std@@V?$tuple@$$V@1@$0A@$$Z$S@?$pair@$$CBV?$basic_string@DU?$char_traits@D@std@@V?$allocator@D@2@@std@@H@std@@QEAA@AEAV?$tuple@AEBV?$basic_string@DU?$char_traits@D@std@@V?$allocator@D@2@@std@@@1@AEAV?$tuple@$$V@1@U?$integer_sequence@_K$0A@@1@U?$integer_sequence@_K$S@1@@Z
    ??$?0V?$tuple@AEB_K@std@@V?$tuple@$$V@1@$0A@$$Z$S@?$pair@$$CB_KH@std@@QEAA@AEAV?$tuple@AEB_K@1@AEAV?$tuple@$$V@1@U?$integer_sequence@_K$0A@@1@U?$integer_sequence@_K$S@1@@Z
    ??$?4U?$pair@V?$basic_string@DU?$char_traits@D@std@@V?$allocator@D@2@@std@@PEAVRegexp@re2@@@std@@$0A@@?$pair@V?$basic_string@DU?$char_traits@D@std@@V?$allocator@D@2@@std@@PEAVRegexp@re2@@@std@@QEAAAEAU01@$$QEAU01@@Z
    ??$?4UDeleter@?$PODArray@E@re2@@$0A@@?$unique_ptr@$$BY0A@EUDeleter@?$PODArray@E@re2@@@std@@QEAAAEAV01@$$QEAV01@@Z
    ??$?4UDeleter@?$PODArray@G@re2@@$0A@@?$unique_ptr@$$BY0A@GUDeleter@?$PODArray@G@re2@@@std@@QEAAAEAV01@$$QEAV01@@Z
    ??$?4UDeleter@?$PODArray@H@re2@@$0A@@?$unique_ptr@$$BY0A@HUDeleter@?$PODArray@H@re2@@@std@@QEAAAEAV01@$$QEAV01@@Z
    ??$?4UDeleter@?$PODArray@PEAVRegexp@re2@@@re2@@$0A@@?$unique_ptr@$$BY0A@PEAVRegexp@re2@@UDeleter@?$PODArray@PEAVRegexp@re2@@@2@@std@@QEAAAEAV01@$$QEAV01@@Z
    ??$?4UDeleter@?$PODArray@PEBD@re2@@$0A@@?$unique_ptr@$$BY0A@PEBDUDeleter@?$PODArray@PEBD@re2@@@std@@QEAAAEAV01@$$QEAV01@@Z
    ??$?4UDeleter@?$PODArray@UAddState@NFA@re2@@@re2@@$0A@@?$unique_ptr@$$BY0A@UAddState@NFA@re2@@UDeleter@?$PODArray@UAddState@NFA@re2@@@3@@std@@QEAAAEAV01@$$QEAV01@@Z
    ??$?4UDeleter@?$PODArray@UJob@re2@@@re2@@$0A@@?$unique_ptr@$$BY0A@UJob@re2@@UDeleter@?$PODArray@UJob@re2@@@2@@std@@QEAAAEAV01@$$QEAV01@@Z
    ??$?4UDeleter@?$PODArray@VIndexValue@?$SparseArray@PEAUThread@NFA@re2@@@re2@@@re2@@$0A@@?$unique_ptr@$$BY0A@VIndexValue@?$SparseArray@PEAUThread@NFA@re2@@@re2@@UDeleter@?$PODArray@VIndexValue@?$SparseArray@PEAUThread@NFA@re2@@@re2@@@3@@std@@QEAAAEAV01@$$QEAV01@@Z
    ??$?4UDeleter@?$PODArray@VInst@Prog@re2@@@re2@@$0A@@?$unique_ptr@$$BY0A@VInst@Prog@re2@@UDeleter@?$PODArray@VInst@Prog@re2@@@3@@std@@QEAAAEAV01@$$QEAV01@@Z
    ??$?4UDeleter@?$PODArray@_K@re2@@$0A@@?$unique_ptr@$$BY0A@_KUDeleter@?$PODArray@_K@re2@@@std@@QEAAAEAV01@$$QEAV01@@Z
    ??$?6DU?$char_traits@D@std@@V?$allocator@D@1@@std@@YAAEAV?$basic_ostream@DU?$char_traits@D@std@@@0@AEAV10@AEBV?$basic_string@DU?$char_traits@D@std@@V?$allocator@D@2@@0@@Z
    ??$?6U?$char_traits@D@std@@@std@@YAAEAV?$basic_ostream@DU?$char_traits@D@std@@@0@AEAV10@D@Z
    ??$?6U?$char_traits@D@std@@@std@@YAAEAV?$basic_ostream@DU?$char_traits@D@std@@@0@AEAV10@E@Z
    ??$?6U?$char_traits@D@std@@@std@@YAAEAV?$basic_ostream@DU?$char_traits@D@std@@@0@AEAV10@PEBD@Z
    ??$?8VProg@re2@@U?$default_delete@VProg@re2@@@std@@@std@@YA_NAEBV?$unique_ptr@VProg@re2@@U?$default_delete@VProg@re2@@@std@@@0@$$T@Z
    ??$?9VProg@re2@@U?$default_delete@VProg@re2@@@std@@@std@@YA_NAEBV?$unique_ptr@VProg@re2@@U?$default_delete@VProg@re2@@@std@@@0@$$T@Z
    ??$?BV?$allocator@D@std@@@StringPiece@re2@@QEBA?AV?$basic_string@DU?$char_traits@D@std@@V?$allocator@D@2@@std@@XZ
    ??$?HDU?$char_traits@D@std@@V?$allocator@D@1@@std@@YA?AV?$basic_string@DU?$char_traits@D@std@@V?$allocator@D@2@@0@$$QEAV10@QEBD@Z
    ??$?HDU?$char_traits@D@std@@V?$allocator@D@1@@std@@YA?AV?$basic_string@DU?$char_traits@D@std@@V?$allocator@D@2@@0@AEBV10@0@Z
    ??$?MDU?$char_traits@D@std@@V?$allocator@D@1@@std@@YA_NAEBV?$basic_string@DU?$char_traits@D@std@@V?$allocator@D@2@@0@0@Z
    ??$?RAEAHAEAH@?$less@X@std@@QEBA_NAEAH0@Z
    ??$?RAEBDAEBD@?$equal_to@X@std@@QEBA_NAEBD0@Z
    ??$?RPEAUState@DFA@re2@@@?$_Uhash_compare@PEAUState@DFA@re2@@U?$hash@PEAUState@DFA@re2@@@std@@U?$equal_to@PEAUState@DFA@re2@@@5@@std@@QEBA_KAEBQEAUState@DFA@re2@@@Z
    ??$?RPEAUState@DFA@re2@@@?$_Uhash_compare@PEAUState@DFA@re2@@UStateHash@23@UStateEqual@23@@std@@QEBA_KAEBQEAUState@DFA@re2@@@Z
    ??$?RPEAUState@DFA@re2@@PEAU012@@?$_Uhash_compare@PEAUState@DFA@re2@@U?$hash@PEAUState@DFA@re2@@@std@@U?$equal_to@PEAUState@DFA@re2@@@5@@std@@QEBA_NAEBQEAUState@DFA@re2@@0@Z
    ??$?RPEAUState@DFA@re2@@PEAU012@@?$_Uhash_compare@PEAUState@DFA@re2@@UStateHash@23@UStateEqual@23@@std@@QEBA_NAEBQEAUState@DFA@re2@@0@Z
    ??$?R_K@?$_Uhash_compare@_KU?$hash@_K@std@@U?$equal_to@_K@2@@std@@QEBA_KAEB_K@Z
    ??$?R_K_K@?$_Uhash_compare@_KU?$hash@_K@std@@U?$equal_to@_K@2@@std@@QEBA_NAEB_K0@Z
    ??$Apply@P6A_NAEBVStringPiece@re2@@AEBVRE2@2@QEBQEBVArg@32@H@ZV12@@RE2@re2@@CA_NP6A_NAEBVStringPiece@1@AEBV01@QEBQEBVArg@01@H@ZV21@1@Z
    ??$InlinedSearchLoop@$00$00$00@DFA@re2@@AEAA_NPEAUSearchParams@01@@Z
    ??$InlinedSearchLoop@$00$00$0A@@DFA@re2@@AEAA_NPEAUSearchParams@01@@Z
    ??$InlinedSearchLoop@$00$0A@$00@DFA@re2@@AEAA_NPEAUSearchParams@01@@Z
    ??$InlinedSearchLoop@$00$0A@$0A@@DFA@re2@@AEAA_NPEAUSearchParams@01@@Z
    ??$InlinedSearchLoop@$0A@$00$00@DFA@re2@@AEAA_NPEAUSearchParams@01@@Z
    ??$InlinedSearchLoop@$0A@$00$0A@@DFA@re2@@AEAA_NPEAUSearchParams@01@@Z
    ??$InlinedSearchLoop@$0A@$0A@$00@DFA@re2@@AEAA_NPEAUSearchParams@01@@Z
    ??$InlinedSearchLoop@$0A@$0A@$0A@@DFA@re2@@AEAA_NPEAUSearchParams@01@@Z
    ??$Parse@C@re2_internal@re2@@YA_NPEBD_KPEAC@Z
    ??$Parse@D@re2_internal@re2@@YA_NPEBD_KPEAD@Z
    ??$Parse@E@re2_internal@re2@@YA_NPEBD_KPEAE@Z
    ??$Parse@F@re2_internal@re2@@YA_NPEBD_KPEAFH@Z
    ??$Parse@G@re2_internal@re2@@YA_NPEBD_KPEAGH@Z
    ??$Parse@H@re2_internal@re2@@YA_NPEBD_KPEAHH@Z
    ??$Parse@I@re2_internal@re2@@YA_NPEBD_KPEAIH@Z
    ??$Parse@J@re2_internal@re2@@YA_NPEBD_KPEAJH@Z
    ??$Parse@K@re2_internal@re2@@YA_NPEBD_KPEAKH@Z
    ??$Parse@M@re2_internal@re2@@YA_NPEBD_KPEAM@Z
    ??$Parse@N@re2_internal@re2@@YA_NPEBD_KPEAN@Z
    ??$Parse@V?$basic_string@DU?$char_traits@D@std@@V?$allocator@D@2@@std@@@re2_internal@re2@@YA_NPEBD_KPEAV?$basic_string@DU?$char_traits@D@std@@V?$allocator@D@2@@std@@@Z
    ??$Parse@VStringPiece@re2@@@re2_internal@re2@@YA_NPEBD_KPEAVStringPiece@1@@Z
    ??$Parse@X@re2_internal@re2@@YA_NPEBD_KPEAX@Z
    ??$Parse@_J@re2_internal@re2@@YA_NPEBD_KPEA_JH@Z
    ??$Parse@_K@re2_internal@re2@@YA_NPEBD_KPEA_KH@Z
    ??$PartialMatch@$$V@RE2@re2@@SA_NAEBVStringPiece@1@AEBV01@@Z
    ??$_Adl_verify_range@PEAEPEAE@std@@YAXAEBQEAE0@Z
    ??$_Adl_verify_range@PEAHPEAH@std@@YAXAEBQEAH0@Z
    ??$_Adl_verify_range@PEAPEAPEAUState@DFA@re2@@PEAPEAPEAU123@@std@@YAXAEBQEAPEAPEAUState@DFA@re2@@0@Z
    ??$_Adl_verify_range@PEAPEAU?$WalkState@H@re2@@PEAPEAU12@@std@@YAXAEBQEAPEAU?$WalkState@H@re2@@0@Z
    ??$_Adl_verify_range@PEAPEAU?$WalkState@PEAVInfo@Prefilter@re2@@@re2@@PEAPEAU12@@std@@YAXAEBQEAPEAU?$WalkState@PEAVInfo@Prefilter@re2@@@re2@@0@Z
    ??$_Adl_verify_range@PEAPEAU?$WalkState@PEAVRegexp@re2@@@re2@@PEAPEAU12@@std@@YAXAEBQEAPEAU?$WalkState@PEAVRegexp@re2@@@re2@@0@Z
    ??$_Adl_verify_range@PEAPEAU?$WalkState@UFrag@re2@@@re2@@PEAPEAU12@@std@@YAXAEBQEAPEAU?$WalkState@UFrag@re2@@@re2@@0@Z
    ??$_Adl_verify_range@PEAPEAU?$WalkState@_N@re2@@PEAPEAU12@@std@@YAXAEBQEAPEAU?$WalkState@_N@re2@@0@Z
    ??$_Adl_verify_range@PEAPEAUThread@NFA@re2@@PEAPEAU123@@std@@YAXAEBQEAPEAUThread@NFA@re2@@0@Z
    ??$_Adl_verify_range@PEAV?$_List_unchecked_const_iterator@V?$_List_val@U?$_List_simple_types@PEAUState@DFA@re2@@@std@@@std@@U_Iterator_base0@2@@std@@PEAV12@@std@@YAXAEBQEAV?$_List_unchecked_const_iterator@V?$_List_val@U?$_List_simple_types@PEAUState@DFA@re2@@@std@@@std@@U_Iterator_base0@2@@0@0@Z
    ??$_Adl_verify_range@PEAV?$_List_unchecked_iterator@V?$_List_val@U?$_List_simple_types@U?$pair@$$CB_KH@std@@@std@@@std@@@std@@PEAV12@@std@@YAXAEBQEAV?$_List_unchecked_iterator@V?$_List_val@U?$_List_simple_types@U?$pair@$$CB_KH@std@@@std@@@std@@@0@0@Z
    ??$_Adl_verify_range@PEAV?$_List_unchecked_iterator@V?$_List_val@U?$_List_simple_types@U?$pair@QEAUState@DFA@re2@@H@std@@@std@@@std@@@std@@PEAV12@@std@@YAXAEBQEAV?$_List_unchecked_iterator@V?$_List_val@U?$_List_simple_types@U?$pair@QEAUState@DFA@re2@@H@std@@@std@@@std@@@0@0@Z
    ??$_Adl_verify_range@PEAVIndexValue@?$SparseArray@H@re2@@PEAV123@@std@@YAXAEBQEAVIndexValue@?$SparseArray@H@re2@@0@Z
    ??$_Adl_verify_range@PEBDPEBD@std@@YAXAEBQEBD0@Z
    ??$_Adl_verify_range@V?$_Tree_unchecked_const_iterator@V?$_Tree_val@U?$_Tree_simple_types@U?$pair@QEAVRegexp@re2@@H@std@@@std@@@std@@U_Iterator_base0@2@@std@@V12@@std@@YAXAEBV?$_Tree_unchecked_const_iterator@V?$_Tree_val@U?$_Tree_simple_types@U?$pair@QEAVRegexp@re2@@H@std@@@std@@@std@@U_Iterator_base0@2@@0@0@Z
    ??$_Adl_verify_range@V?$_Vector_const_iterator@V?$_Vector_val@U?$_Simple_types@H@std@@@std@@@std@@V12@@std@@YAXAEBV?$_Vector_const_iterator@V?$_Vector_val@U?$_Simple_types@H@std@@@std@@@0@0@Z
    ??$_Adl_verify_range@V?$_Vector_iterator@V?$_Vector_val@U?$_Simple_types@H@std@@@std@@@std@@V12@@std@@YAXAEBV?$_Vector_iterator@V?$_Vector_val@U?$_Simple_types@H@std@@@std@@@0@0@Z
    ??$_Adl_verify_range@V?$_Vector_iterator@V?$_Vector_val@U?$_Simple_types@U?$pair@HH@std@@@std@@@std@@@std@@V12@@std@@YAXAEBV?$_Vector_iterator@V?$_Vector_val@U?$_Simple_types@U?$pair@HH@std@@@std@@@std@@@0@0@Z
    ??$_Adl_verify_range@V?$_Vector_iterator@V?$_Vector_val@U?$_Simple_types@U?$pair@V?$basic_string@DU?$char_traits@D@std@@V?$allocator@D@2@@std@@PEAVRegexp@re2@@@std@@@std@@@std@@@std@@V12@@std@@YAXAEBV?$_Vector_iterator@V?$_Vector_val@U?$_Simple_types@U?$pair@V?$basic_string@DU?$char_traits@D@std@@V?$allocator@D@2@@std@@PEAVRegexp@re2@@@std@@@std@@@std@@@0@0@Z
    ??$_Alloc_proxy@V?$allocator@U_Container_proxy@std@@@std@@@_Container_base12@std@@QEAAX$$QEAV?$allocator@U_Container_proxy@std@@@1@@Z
    ??$_Allocate@$0BA@U_Default_allocate_traits@std@@$0A@@std@@YAPEAX_K@Z
    ??$_Allocate_manually_vector_aligned@U_Default_allocate_traits@std@@@std@@YAPEAX_K@Z
    ??$_Assign_range@PEAH@?$vector@HV?$allocator@H@std@@@std@@AEAAXPEAH0Uforward_iterator_tag@1@@Z
    ??$_Atomic_address_as@_JU?$_Atomic_padded@P6AXAEBUDFASearchFailure@hooks@re2@@@Z@std@@@std@@YAPEC_JAEAU?$_Atomic_padded@P6AXAEBUDFASearchFailure@hooks@re2@@@Z@0@@Z
    ??$_Atomic_address_as@_JU?$_Atomic_padded@P6AXAEBUDFAStateCacheReset@hooks@re2@@@Z@std@@@std@@YAPEC_JAEAU?$_Atomic_padded@P6AXAEBUDFAStateCacheReset@hooks@re2@@@Z@0@@Z
    ??$_Atomic_address_as@_JU?$_Atomic_padded@PEAUState@DFA@re2@@@std@@@std@@YAPEC_JAEAU?$_Atomic_padded@PEAUState@DFA@re2@@@0@@Z
    ??$_Atomic_reinterpret_as@_JP6AXAEBUDFASearchFailure@hooks@re2@@@Z@std@@YA_JAEBQ6AXAEBUDFASearchFailure@hooks@re2@@@Z@Z
    ??$_Atomic_reinterpret_as@_JP6AXAEBUDFAStateCacheReset@hooks@re2@@@Z@std@@YA_JAEBQ6AXAEBUDFAStateCacheReset@hooks@re2@@@Z@Z
    ??$_Atomic_reinterpret_as@_JPEAUState@DFA@re2@@@std@@YA_JAEBQEAUState@DFA@re2@@@Z
    ??$_Buyheadnode@V?$allocator@U?$_Tree_node@HPEAX@std@@@std@@@?$_Tree_node@HPEAX@std@@SAPEAU01@AEAV?$allocator@U?$_Tree_node@HPEAX@std@@@1@@Z
    ??$_Buyheadnode@V?$allocator@U?$_Tree_node@U?$pair@$$CBHH@std@@PEAX@std@@@std@@@?$_Tree_node@U?$pair@$$CBHH@std@@PEAX@std@@SAPEAU01@AEAV?$allocator@U?$_Tree_node@U?$pair@$$CBHH@std@@PEAX@std@@@1@@Z
    ??$_Buyheadnode@V?$allocator@U?$_Tree_node@U?$pair@$$CBHV?$basic_string@DU?$char_traits@D@std@@V?$allocator@D@2@@std@@@std@@PEAX@std@@@std@@@?$_Tree_node@U?$pair@$$CBHV?$basic_string@DU?$char_traits@D@std@@V?$allocator@D@2@@std@@@std@@PEAX@std@@SAPEAU01@AEAV?$allocator@U?$_Tree_node@U?$pair@$$CBHV?$basic_string@DU?$char_traits@D@std@@V?$allocator@D@2@@std@@@std@@PEAX@std@@@1@@Z
    ??$_Buyheadnode@V?$allocator@U?$_Tree_node@U?$pair@$$CBV?$basic_string@DU?$char_traits@D@std@@V?$allocator@D@2@@std@@H@std@@PEAX@std@@@std@@@?$_Tree_node@U?$pair@$$CBV?$basic_string@DU?$char_traits@D@std@@V?$allocator@D@2@@std@@H@std@@PEAX@std@@SAPEAU01@AEAV?$allocator@U?$_Tree_node@U?$pair@$$CBV?$basic_string@DU?$char_traits@D@std@@V?$allocator@D@2@@std@@H@std@@PEAX@std@@@1@@Z
    ??$_Buyheadnode@V?$allocator@U?$_Tree_node@U?$pair@$$CBV?$basic_string@DU?$char_traits@D@std@@V?$allocator@D@2@@std@@PEAVPrefilter@re2@@@std@@PEAX@std@@@std@@@?$_Tree_node@U?$pair@$$CBV?$basic_string@DU?$char_traits@D@std@@V?$allocator@D@2@@std@@PEAVPrefilter@re2@@@std@@PEAX@std@@SAPEAU01@AEAV?$allocator@U?$_Tree_node@U?$pair@$$CBV?$basic_string@DU?$char_traits@D@std@@V?$allocator@D@2@@std@@PEAVPrefilter@re2@@@std@@PEAX@std@@@1@@Z
    ??$_Buyheadnode@V?$allocator@U?$_Tree_node@U?$pair@QEAVRegexp@re2@@H@std@@PEAX@std@@@std@@@?$_Tree_node@U?$pair@QEAVRegexp@re2@@H@std@@PEAX@std@@SAPEAU01@AEAV?$allocator@U?$_Tree_node@U?$pair@QEAVRegexp@re2@@H@std@@PEAX@std@@@1@@Z
    ??$_Buyheadnode@V?$allocator@U?$_Tree_node@URuneRange@re2@@PEAX@std@@@std@@@?$_Tree_node@URuneRange@re2@@PEAX@std@@SAPEAU01@AEAV?$allocator@U?$_Tree_node@URuneRange@re2@@PEAX@std@@@1@@Z
    ??$_Buyheadnode@V?$allocator@U?$_Tree_node@V?$basic_string@DU?$char_traits@D@std@@V?$allocator@D@2@@std@@PEAX@std@@@std@@@?$_Tree_node@V?$basic_string@DU?$char_traits@D@std@@V?$allocator@D@2@@std@@PEAX@std@@SAPEAU01@AEAV?$allocator@U?$_Tree_node@V?$basic_string@DU?$char_traits@D@std@@V?$allocator@D@2@@std@@PEAX@std@@@1@@Z
    ??$_Construct_in_place@PEADAEBQEAD@std@@YAXAEAPEADAEBQEAD@Z
    ??$_Construct_in_place@PEAU?$_List_node@PEAUState@DFA@re2@@PEAX@std@@AEAPEAU12@@std@@YAXAEAPEAU?$_List_node@PEAUState@DFA@re2@@PEAX@0@0@Z
    ??$_Construct_in_place@PEAU?$_List_node@PEAUState@DFA@re2@@PEAX@std@@AEBQEAU12@@std@@YAXAEAPEAU?$_List_node@PEAUState@DFA@re2@@PEAX@0@AEBQEAU10@@Z
    ??$_Construct_in_place@PEAU?$_List_node@U?$pair@$$CB_KH@std@@PEAX@std@@AEAPEAU12@@std@@YAXAEAPEAU?$_List_node@U?$pair@$$CB_KH@std@@PEAX@0@0@Z
    ??$_Construct_in_place@PEAU?$_List_node@U?$pair@$$CB_KH@std@@PEAX@std@@AEBQEAU12@@std@@YAXAEAPEAU?$_List_node@U?$pair@$$CB_KH@std@@PEAX@0@AEBQEAU10@@Z
    ??$_Construct_in_place@PEAU?$_List_node@U?$pair@QEAUState@DFA@re2@@H@std@@PEAX@std@@AEAPEAU12@@std@@YAXAEAPEAU?$_List_node@U?$pair@QEAUState@DFA@re2@@H@std@@PEAX@0@0@Z
    ??$_Construct_in_place@PEAU?$_List_node@U?$pair@QEAUState@DFA@re2@@H@std@@PEAX@std@@AEBQEAU12@@std@@YAXAEAPEAU?$_List_node@U?$pair@QEAUState@DFA@re2@@H@std@@PEAX@0@AEBQEAU10@@Z
    ??$_Construct_in_place@PEAU?$_Tree_node@HPEAX@std@@AEAPEAU12@@std@@YAXAEAPEAU?$_Tree_node@HPEAX@0@0@Z
    ??$_Construct_in_place@PEAU?$_Tree_node@HPEAX@std@@AEBQEAU12@@std@@YAXAEAPEAU?$_Tree_node@HPEAX@0@AEBQEAU10@@Z
    ??$_Construct_in_place@PEAU?$_Tree_node@U?$pair@$$CBHH@std@@PEAX@std@@AEAPEAU12@@std@@YAXAEAPEAU?$_Tree_node@U?$pair@$$CBHH@std@@PEAX@0@0@Z
    ??$_Construct_in_place@PEAU?$_Tree_node@U?$pair@$$CBHH@std@@PEAX@std@@AEBQEAU12@@std@@YAXAEAPEAU?$_Tree_node@U?$pair@$$CBHH@std@@PEAX@0@AEBQEAU10@@Z
    ??$_Construct_in_place@PEAU?$_Tree_node@U?$pair@$$CBHV?$basic_string@DU?$char_traits@D@std@@V?$allocator@D@2@@std@@@std@@PEAX@std@@AEAPEAU12@@std@@YAXAEAPEAU?$_Tree_node@U?$pair@$$CBHV?$basic_string@DU?$char_traits@D@std@@V?$allocator@D@2@@std@@@std@@PEAX@0@0@Z
    ??$_Construct_in_place@PEAU?$_Tree_node@U?$pair@$$CBHV?$basic_string@DU?$char_traits@D@std@@V?$allocator@D@2@@std@@@std@@PEAX@std@@AEBQEAU12@@std@@YAXAEAPEAU?$_Tree_node@U?$pair@$$CBHV?$basic_string@DU?$char_traits@D@std@@V?$allocator@D@2@@std@@@std@@PEAX@0@AEBQEAU10@@Z
    ??$_Construct_in_place@PEAU?$_Tree_node@U?$pair@$$CBV?$basic_string@DU?$char_traits@D@std@@V?$allocator@D@2@@std@@H@std@@PEAX@std@@AEAPEAU12@@std@@YAXAEAPEAU?$_Tree_node@U?$pair@$$CBV?$basic_string@DU?$char_traits@D@std@@V?$allocator@D@2@@std@@H@std@@PEAX@0@0@Z
    ??$_Construct_in_place@PEAU?$_Tree_node@U?$pair@$$CBV?$basic_string@DU?$char_traits@D@std@@V?$allocator@D@2@@std@@H@std@@PEAX@std@@AEBQEAU12@@std@@YAXAEAPEAU?$_Tree_node@U?$pair@$$CBV?$basic_string@DU?$char_traits@D@std@@V?$allocator@D@2@@std@@H@std@@PEAX@0@AEBQEAU10@@Z
    ??$_Construct_in_place@PEAU?$_Tree_node@U?$pair@$$CBV?$basic_string@DU?$char_traits@D@std@@V?$allocator@D@2@@std@@PEAVPrefilter@re2@@@std@@PEAX@std@@AEAPEAU12@@std@@YAXAEAPEAU?$_Tree_node@U?$pair@$$CBV?$basic_string@DU?$char_traits@D@std@@V?$allocator@D@2@@std@@PEAVPrefilter@re2@@@std@@PEAX@0@0@Z
    ??$_Construct_in_place@PEAU?$_Tree_node@U?$pair@$$CBV?$basic_string@DU?$char_traits@D@std@@V?$allocator@D@2@@std@@PEAVPrefilter@re2@@@std@@PEAX@std@@AEBQEAU12@@std@@YAXAEAPEAU?$_Tree_node@U?$pair@$$CBV?$basic_string@DU?$char_traits@D@std@@V?$allocator@D@2@@std@@PEAVPrefilter@re2@@@std@@PEAX@0@AEBQEAU10@@Z
    ??$_Construct_in_place@PEAU?$_Tree_node@U?$pair@QEAVRegexp@re2@@H@std@@PEAX@std@@AEAPEAU12@@std@@YAXAEAPEAU?$_Tree_node@U?$pair@QEAVRegexp@re2@@H@std@@PEAX@0@0@Z
    ??$_Construct_in_place@PEAU?$_Tree_node@U?$pair@QEAVRegexp@re2@@H@std@@PEAX@std@@AEBQEAU12@@std@@YAXAEAPEAU?$_Tree_node@U?$pair@QEAVRegexp@re2@@H@std@@PEAX@0@AEBQEAU10@@Z
    ??$_Construct_in_place@PEAU?$_Tree_node@URuneRange@re2@@PEAX@std@@AEAPEAU12@@std@@YAXAEAPEAU?$_Tree_node@URuneRange@re2@@PEAX@0@0@Z
    ??$_Construct_in_place@PEAU?$_Tree_node@URuneRange@re2@@PEAX@std@@AEBQEAU12@@std@@YAXAEAPEAU?$_Tree_node@URuneRange@re2@@PEAX@0@AEBQEAU10@@Z
    ??$_Construct_in_place@PEAU?$_Tree_node@V?$basic_string@DU?$char_traits@D@std@@V?$allocator@D@2@@std@@PEAX@std@@AEAPEAU12@@std@@YAXAEAPEAU?$_Tree_node@V?$basic_string@DU?$char_traits@D@std@@V?$allocator@D@2@@std@@PEAX@0@0@Z
    ??$_Construct_in_place@PEAU?$_Tree_node@V?$basic_string@DU?$char_traits@D@std@@V?$allocator@D@2@@std@@PEAX@std@@AEBQEAU12@@std@@YAXAEAPEAU?$_Tree_node@V?$basic_string@DU?$char_traits@D@std@@V?$allocator@D@2@@std@@PEAX@0@AEBQEAU10@@Z
    ??$_Construct_in_place@U_Container_proxy@std@@PEAU_Container_base12@2@@std@@YAXAEAU_Container_proxy@0@$$QEAPEAU_Container_base12@0@@Z
    ??$_Construct_in_place@V?$_List_unchecked_const_iterator@V?$_List_val@U?$_List_simple_types@PEAUState@DFA@re2@@@std@@@std@@U_Iterator_base0@2@@std@@AEBV12@@std@@YAXAEAV?$_List_unchecked_const_iterator@V?$_List_val@U?$_List_simple_types@PEAUState@DFA@re2@@@std@@@std@@U_Iterator_base0@2@@0@AEBV10@@Z
    ??$_Construct_in_place@V?$_List_unchecked_iterator@V?$_List_val@U?$_List_simple_types@U?$pair@$$CB_KH@std@@@std@@@std@@@std@@AEBV12@@std@@YAXAEAV?$_List_unchecked_iterator@V?$_List_val@U?$_List_simple_types@U?$pair@$$CB_KH@std@@@std@@@std@@@0@AEBV10@@Z
    ??$_Construct_in_place@V?$_List_unchecked_iterator@V?$_List_val@U?$_List_simple_types@U?$pair@QEAUState@DFA@re2@@H@std@@@std@@@std@@@std@@AEBV12@@std@@YAXAEAV?$_List_unchecked_iterator@V?$_List_val@U?$_List_simple_types@U?$pair@QEAUState@DFA@re2@@H@std@@@std@@@std@@@0@AEBV10@@Z
    ??$_Construct_n_copies_of_ty@U_Value_init_tag@std@@@?$vector@HV?$allocator@H@std@@@std@@AEAAX_KAEBU_Value_init_tag@1@@Z
    ??$_Convert_size@_K@std@@YA_K_K@Z
    ??$_Copy_backward_memmove@PEAEPEAE@std@@YAPEAEPEAE00@Z
    ??$_Copy_backward_memmove@PEAHPEAH@std@@YAPEAHPEAH00@Z
    ??$_Copy_backward_memmove@PEAVIndexValue@?$SparseArray@H@re2@@PEAV123@@std@@YAPEAVIndexValue@?$SparseArray@H@re2@@PEAV123@00@Z
    ??$_Copy_memmove@PEAEPEAE@std@@YAPEAEPEAE00@Z
    ??$_Copy_memmove@PEAHPEAH@std@@YAPEAHPEAH00@Z
    ??$_Copy_memmove@PEAPEAPEAUState@DFA@re2@@PEAPEAPEAU123@@std@@YAPEAPEAPEAUState@DFA@re2@@PEAPEAPEAU123@00@Z
    ??$_Copy_memmove@PEAPEAU?$WalkState@H@re2@@PEAPEAU12@@std@@YAPEAPEAU?$WalkState@H@re2@@PEAPEAU12@00@Z
    ??$_Copy_memmove@PEAPEAU?$WalkState@PEAVInfo@Prefilter@re2@@@re2@@PEAPEAU12@@std@@YAPEAPEAU?$WalkState@PEAVInfo@Prefilter@re2@@@re2@@PEAPEAU12@00@Z
    ??$_Copy_memmove@PEAPEAU?$WalkState@PEAVRegexp@re2@@@re2@@PEAPEAU12@@std@@YAPEAPEAU?$WalkState@PEAVRegexp@re2@@@re2@@PEAPEAU12@00@Z
    ??$_Copy_memmove@PEAPEAU?$WalkState@UFrag@re2@@@re2@@PEAPEAU12@@std@@YAPEAPEAU?$WalkState@UFrag@re2@@@re2@@PEAPEAU12@00@Z
    ??$_Copy_memmove@PEAPEAU?$WalkState@_N@re2@@PEAPEAU12@@std@@YAPEAPEAU?$WalkState@_N@re2@@PEAPEAU12@00@Z
    ??$_Copy_memmove@PEAPEAUThread@NFA@re2@@PEAPEAU123@@std@@YAPEAPEAUThread@NFA@re2@@PEAPEAU123@00@Z
    ??$_Copy_memmove@PEAPEAVPrefilter@re2@@PEAPEAV12@@std@@YAPEAPEAVPrefilter@re2@@PEAPEAV12@00@Z
    ??$_Copy_memmove@PEAPEAVRE2@re2@@PEAPEAV12@@std@@YAPEAPEAVRE2@re2@@PEAPEAV12@00@Z
    ??$_Copy_memmove@PEAPEAVRegexp@re2@@PEAPEAV12@@std@@YAPEAPEAVRegexp@re2@@PEAPEAV12@00@Z
    ??$_Copy_memmove@PEAVIndexValue@?$SparseArray@H@re2@@PEAV123@@std@@YAPEAVIndexValue@?$SparseArray@H@re2@@PEAV123@00@Z
    ??$_Copy_memmove@PEAVIndexValue@?$SparseArray@PEAUThread@NFA@re2@@@re2@@PEAV123@@std@@YAPEAVIndexValue@?$SparseArray@PEAUThread@NFA@re2@@@re2@@PEAV123@00@Z
    ??$_Copy_memmove@PEAVInst@Prog@re2@@PEAV123@@std@@YAPEAVInst@Prog@re2@@PEAV123@00@Z
    ??$_Copy_memmove@PEBHPEAH@std@@YAPEAHPEBH0PEAH@Z
    ??$_Deallocate@$0BA@$0A@@std@@YAXPEAX_K@Z
    ??$_Deallocate_plain@V?$allocator@U_Container_proxy@std@@@std@@@std@@YAXAEAV?$allocator@U_Container_proxy@std@@@0@QEAU_Container_proxy@0@@Z
    ??$_Delete_plain_internal@V?$allocator@U_Container_proxy@std@@@std@@@std@@YAXAEAV?$allocator@U_Container_proxy@std@@@0@QEAU_Container_proxy@0@@Z
    ??$_Destroy_in_place@PEAD@std@@YAXAEAPEAD@Z
    ??$_Destroy_in_place@PEAPEAUState@DFA@re2@@@std@@YAXAEAPEAPEAUState@DFA@re2@@@Z
    ??$_Destroy_in_place@PEAU?$WalkState@H@re2@@@std@@YAXAEAPEAU?$WalkState@H@re2@@@Z
    ??$_Destroy_in_place@PEAU?$WalkState@PEAVInfo@Prefilter@re2@@@re2@@@std@@YAXAEAPEAU?$WalkState@PEAVInfo@Prefilter@re2@@@re2@@@Z
    ??$_Destroy_in_place@PEAU?$WalkState@PEAVRegexp@re2@@@re2@@@std@@YAXAEAPEAU?$WalkState@PEAVRegexp@re2@@@re2@@@Z
    ??$_Destroy_in_place@PEAU?$WalkState@UFrag@re2@@@re2@@@std@@YAXAEAPEAU?$WalkState@UFrag@re2@@@re2@@@Z
    ??$_Destroy_in_place@PEAU?$WalkState@_N@re2@@@std@@YAXAEAPEAU?$WalkState@_N@re2@@@Z
    ??$_Destroy_in_place@PEAU?$_List_node@PEAUState@DFA@re2@@PEAX@std@@@std@@YAXAEAPEAU?$_List_node@PEAUState@DFA@re2@@PEAX@0@@Z
    ??$_Destroy_in_place@PEAU?$_List_node@U?$pair@$$CB_KH@std@@PEAX@std@@@std@@YAXAEAPEAU?$_List_node@U?$pair@$$CB_KH@std@@PEAX@0@@Z
    ??$_Destroy_in_place@PEAU?$_List_node@U?$pair@QEAUState@DFA@re2@@H@std@@PEAX@std@@@std@@YAXAEAPEAU?$_List_node@U?$pair@QEAUState@DFA@re2@@H@std@@PEAX@0@@Z
    ??$_Destroy_in_place@PEAU?$_Tree_node@HPEAX@std@@@std@@YAXAEAPEAU?$_Tree_node@HPEAX@0@@Z
    ??$_Destroy_in_place@PEAU?$_Tree_node@U?$pair@$$CBHH@std@@PEAX@std@@@std@@YAXAEAPEAU?$_Tree_node@U?$pair@$$CBHH@std@@PEAX@0@@Z
    ??$_Destroy_in_place@PEAU?$_Tree_node@U?$pair@$$CBHV?$basic_string@DU?$char_traits@D@std@@V?$allocator@D@2@@std@@@std@@PEAX@std@@@std@@YAXAEAPEAU?$_Tree_node@U?$pair@$$CBHV?$basic_string@DU?$char_traits@D@std@@V?$allocator@D@2@@std@@@std@@PEAX@0@@Z
    ??$_Destroy_in_place@PEAU?$_Tree_node@U?$pair@$$CBV?$basic_string@DU?$char_traits@D@std@@V?$allocator@D@2@@std@@H@std@@PEAX@std@@@std@@YAXAEAPEAU?$_Tree_node@U?$pair@$$CBV?$basic_string@DU?$char_traits@D@std@@V?$allocator@D@2@@std@@H@std@@PEAX@0@@Z
    ??$_Destroy_in_place@PEAU?$_Tree_node@U?$pair@$$CBV?$basic_string@DU?$char_traits@D@std@@V?$allocator@D@2@@std@@PEAVPrefilter@re2@@@std@@PEAX@std@@@std@@YAXAEAPEAU?$_Tree_node@U?$pair@$$CBV?$basic_string@DU?$char_traits@D@std@@V?$allocator@D@2@@std@@PEAVPrefilter@re2@@@std@@PEAX@0@@Z
    ??$_Destroy_in_place@PEAU?$_Tree_node@U?$pair@QEAVRegexp@re2@@H@std@@PEAX@std@@@std@@YAXAEAPEAU?$_Tree_node@U?$pair@QEAVRegexp@re2@@H@std@@PEAX@0@@Z
    ??$_Destroy_in_place@PEAU?$_Tree_node@URuneRange@re2@@PEAX@std@@@std@@YAXAEAPEAU?$_Tree_node@URuneRange@re2@@PEAX@0@@Z
    ??$_Destroy_in_place@PEAU?$_Tree_node@V?$basic_string@DU?$char_traits@D@std@@V?$allocator@D@2@@std@@PEAX@std@@@std@@YAXAEAPEAU?$_Tree_node@V?$basic_string@DU?$char_traits@D@std@@V?$allocator@D@2@@std@@PEAX@0@@Z
    ??$_Destroy_in_place@PEAUThread@NFA@re2@@@std@@YAXAEAPEAUThread@NFA@re2@@@Z
    ??$_Destroy_range@V?$allocator@E@std@@@std@@YAXPEAEQEAEAEAV?$allocator@E@0@@Z
    ??$_Destroy_range@V?$allocator@H@std@@@std@@YAXPEAHQEAHAEAV?$allocator@H@0@@Z
    ??$_Destroy_range@V?$allocator@PEAVPrefilter@re2@@@std@@@std@@YAXPEAPEAVPrefilter@re2@@QEAPEAV12@AEAV?$allocator@PEAVPrefilter@re2@@@0@@Z
    ??$_Destroy_range@V?$allocator@PEAVRE2@re2@@@std@@@std@@YAXPEAPEAVRE2@re2@@QEAPEAV12@AEAV?$allocator@PEAVRE2@re2@@@0@@Z
    ??$_Destroy_range@V?$allocator@PEAVRegexp@re2@@@std@@@std@@YAXPEAPEAVRegexp@re2@@QEAPEAV12@AEAV?$allocator@PEAVRegexp@re2@@@0@@Z
    ??$_Destroy_range@V?$allocator@U?$pair@HH@std@@@std@@@std@@YAXPEAU?$pair@HH@0@QEAU10@AEAV?$allocator@U?$pair@HH@std@@@0@@Z
    ??$_Destroy_range@V?$allocator@U?$pair@V?$basic_string@DU?$char_traits@D@std@@V?$allocator@D@2@@std@@PEAVRegexp@re2@@@std@@@std@@@std@@YAXPEAU?$pair@V?$basic_string@DU?$char_traits@D@std@@V?$allocator@D@2@@std@@PEAVRegexp@re2@@@0@QEAU10@AEAV?$allocator@U?$pair@V?$basic_string@DU?$char_traits@D@std@@V?$allocator@D@2@@std@@PEAVRegexp@re2@@@std@@@0@@Z
    ??$_Destroy_range@V?$allocator@UEntry@PrefilterTree@re2@@@std@@@std@@YAXPEAUEntry@PrefilterTree@re2@@QEAU123@AEAV?$allocator@UEntry@PrefilterTree@re2@@@0@@Z
    ??$_Destroy_range@V?$allocator@UFrame@re2@@@std@@@std@@YAXPEAUFrame@re2@@QEAU12@AEAV?$allocator@UFrame@re2@@@0@@Z
    ??$_Destroy_range@V?$allocator@URuneRange@re2@@@std@@@std@@YAXPEAURuneRange@re2@@QEAU12@AEAV?$allocator@URuneRange@re2@@@0@@Z
    ??$_Destroy_range@V?$allocator@USplice@re2@@@std@@@std@@YAXPEAUSplice@re2@@QEAU12@AEAV?$allocator@USplice@re2@@@0@@Z
    ??$_Destroy_range@V?$allocator@V?$basic_string@DU?$char_traits@D@std@@V?$allocator@D@2@@std@@@std@@@std@@YAXPEAV?$basic_string@DU?$char_traits@D@std@@V?$allocator@D@2@@0@QEAV10@AEAV?$allocator@V?$basic_string@DU?$char_traits@D@std@@V?$allocator@D@2@@std@@@0@@Z
    ??$_Destroy_range@V?$allocator@V?$vector@HV?$allocator@H@std@@@std@@@std@@@std@@YAXPEAV?$vector@HV?$allocator@H@std@@@0@QEAV10@AEAV?$allocator@V?$vector@HV?$allocator@H@std@@@std@@@0@@Z
    ??$_Destroy_range@V?$allocator@VInst@Prog@re2@@@std@@@std@@YAXPEAVInst@Prog@re2@@QEAV123@AEAV?$allocator@VInst@Prog@re2@@@0@@Z
    ??$_Emplace@AEBH@?$_Tree@V?$_Tset_traits@HU?$less@H@std@@V?$allocator@H@2@$0A@@std@@@std@@IEAA?AU?$pair@PEAU?$_Tree_node@HPEAX@std@@_N@1@AEBH@Z
    ??$_Emplace@AEBURuneRange@re2@@@?$_Tree@V?$_Tset_traits@URuneRange@re2@@URuneRangeLess@2@V?$allocator@URuneRange@re2@@@std@@$0A@@std@@@std@@IEAA?AU?$pair@PEAU?$_Tree_node@URuneRange@re2@@PEAX@std@@_N@1@AEBURuneRange@re2@@@Z
    ??$_Emplace@AEBV?$basic_string@DU?$char_traits@D@std@@V?$allocator@D@2@@std@@@?$_Tree@V?$_Tset_traits@V?$basic_string@DU?$char_traits@D@std@@V?$allocator@D@2@@std@@U?$less@V?$basic_string@DU?$char_traits@D@std@@V?$allocator@D@2@@std@@@2@V?$allocator@V?$basic_string@DU?$char_traits@D@std@@V?$allocator@D@2@@std@@@2@$0A@@std@@@std@@IEAA?AU?$pair@PEAU?$_Tree_node@V?$basic_string@DU?$char_traits@D@std@@V?$allocator@D@2@@std@@PEAX@std@@_N@1@AEBV?$basic_string@DU?$char_traits@D@std@@V?$allocator@D@2@@1@@Z
    ??$_Emplace@URuneRange@re2@@@?$_Tree@V?$_Tset_traits@URuneRange@re2@@URuneRangeLess@2@V?$allocator@URuneRange@re2@@@std@@$0A@@std@@@std@@IEAA?AU?$pair@PEAU?$_Tree_node@URuneRange@re2@@PEAX@std@@_N@1@$$QEAURuneRange@re2@@@Z
    ??$_Emplace@V?$basic_string@DU?$char_traits@D@std@@V?$allocator@D@2@@std@@@?$_Tree@V?$_Tset_traits@V?$basic_string@DU?$char_traits@D@std@@V?$allocator@D@2@@std@@U?$less@V?$basic_string@DU?$char_traits@D@std@@V?$allocator@D@2@@std@@@2@V?$allocator@V?$basic_string@DU?$char_traits@D@std@@V?$allocator@D@2@@std@@@2@$0A@@std@@@std@@IEAA?AU?$pair@PEAU?$_Tree_node@V?$basic_string@DU?$char_traits@D@std@@V?$allocator@D@2@@std@@PEAX@std@@_N@1@$$QEAV?$basic_string@DU?$char_traits@D@std@@V?$allocator@D@2@@1@@Z
    ??$_Emplace@V?$basic_string@DU?$char_traits@D@std@@V?$allocator@D@2@@std@@AEAPEAVPrefilter@re2@@@?$_Tree@V?$_Tmap_traits@V?$basic_string@DU?$char_traits@D@std@@V?$allocator@D@2@@std@@PEAVPrefilter@re2@@U?$less@V?$basic_string@DU?$char_traits@D@std@@V?$allocator@D@2@@std@@@2@V?$allocator@U?$pair@$$CBV?$basic_string@DU?$char_traits@D@std@@V?$allocator@D@2@@std@@PEAVPrefilter@re2@@@std@@@2@$0A@@std@@@std@@IEAA?AU?$pair@PEAU?$_Tree_node@U?$pair@$$CBV?$basic_string@DU?$char_traits@D@std@@V?$allocator@D@2@@std@@PEAVPrefilter@re2@@@std@@PEAX@std@@_N@1@$$QEAV?$basic_string@DU?$char_traits@D@std@@V?$allocator@D@2@@1@AEAPEAVPrefilter@re2@@@Z
    ??$_Emplace_back@$$V@?$_Uninitialized_backout_al@V?$allocator@UEntry@PrefilterTree@re2@@@std@@@std@@QEAAXXZ
    ??$_Emplace_back@AEBV?$_List_unchecked_const_iterator@V?$_List_val@U?$_List_simple_types@PEAUState@DFA@re2@@@std@@@std@@U_Iterator_base0@2@@std@@@?$_Uninitialized_backout@PEAV?$_List_unchecked_const_iterator@V?$_List_val@U?$_List_simple_types@PEAUState@DFA@re2@@@std@@@std@@U_Iterator_base0@2@@std@@@std@@QEAAXAEBV?$_List_unchecked_const_iterator@V?$_List_val@U?$_List_simple_types@PEAUState@DFA@re2@@@std@@@std@@U_Iterator_base0@2@@1@@Z
    ??$_Emplace_back@AEBV?$_List_unchecked_iterator@V?$_List_val@U?$_List_simple_types@U?$pair@$$CB_KH@std@@@std@@@std@@@std@@@?$_Uninitialized_backout@PEAV?$_List_unchecked_iterator@V?$_List_val@U?$_List_simple_types@U?$pair@$$CB_KH@std@@@std@@@std@@@std@@@std@@QEAAXAEBV?$_List_unchecked_iterator@V?$_List_val@U?$_List_simple_types@U?$pair@$$CB_KH@std@@@std@@@std@@@1@@Z
    ??$_Emplace_back@AEBV?$_List_unchecked_iterator@V?$_List_val@U?$_List_simple_types@U?$pair@QEAUState@DFA@re2@@H@std@@@std@@@std@@@std@@@?$_Uninitialized_backout@PEAV?$_List_unchecked_iterator@V?$_List_val@U?$_List_simple_types@U?$pair@QEAUState@DFA@re2@@H@std@@@std@@@std@@@std@@@std@@QEAAXAEBV?$_List_unchecked_iterator@V?$_List_val@U?$_List_simple_types@U?$pair@QEAUState@DFA@re2@@H@std@@@std@@@std@@@1@@Z
    ??$_Emplace_back@U?$pair@HH@std@@@?$_Uninitialized_backout_al@V?$allocator@U?$pair@HH@std@@@std@@@std@@QEAAX$$QEAU?$pair@HH@1@@Z
    ??$_Emplace_back@U?$pair@V?$basic_string@DU?$char_traits@D@std@@V?$allocator@D@2@@std@@PEAVRegexp@re2@@@std@@@?$_Uninitialized_backout_al@V?$allocator@U?$pair@V?$basic_string@DU?$char_traits@D@std@@V?$allocator@D@2@@std@@PEAVRegexp@re2@@@std@@@std@@@std@@QEAAX$$QEAU?$pair@V?$basic_string@DU?$char_traits@D@std@@V?$allocator@D@2@@std@@PEAVRegexp@re2@@@1@@Z
    ??$_Emplace_back@UEntry@PrefilterTree@re2@@@?$_Uninitialized_backout_al@V?$allocator@UEntry@PrefilterTree@re2@@@std@@@std@@QEAAX$$QEAUEntry@PrefilterTree@re2@@@Z
    ??$_Emplace_back@UFrame@re2@@@?$_Uninitialized_backout_al@V?$allocator@UFrame@re2@@@std@@@std@@QEAAX$$QEAUFrame@re2@@@Z
    ??$_Emplace_back@URuneRange@re2@@@?$_Uninitialized_backout_al@V?$allocator@URuneRange@re2@@@std@@@std@@QEAAX$$QEAURuneRange@re2@@@Z
    ??$_Emplace_back@USplice@re2@@@?$_Uninitialized_backout_al@V?$allocator@USplice@re2@@@std@@@std@@QEAAX$$QEAUSplice@re2@@@Z
    ??$_Emplace_back@V?$basic_string@DU?$char_traits@D@std@@V?$allocator@D@2@@std@@@?$_Uninitialized_backout_al@V?$allocator@V?$basic_string@DU?$char_traits@D@std@@V?$allocator@D@2@@std@@@std@@@std@@QEAAX$$QEAV?$basic_string@DU?$char_traits@D@std@@V?$allocator@D@2@@1@@Z
    ??$_Emplace_back@V?$vector@HV?$allocator@H@std@@@std@@@?$_Uninitialized_backout_al@V?$allocator@V?$vector@HV?$allocator@H@std@@@std@@@std@@@std@@QEAAX$$QEAV?$vector@HV?$allocator@H@std@@@1@@Z
    ??$_Emplace_back_internal@AEBQEAUState@DFA@re2@@@?$deque@PEAUState@DFA@re2@@V?$allocator@PEAUState@DFA@re2@@@std@@@std@@AEAAXAEBQEAUState@DFA@re2@@@Z
    ??$_Emplace_back_internal@U?$WalkState@H@re2@@@?$deque@U?$WalkState@H@re2@@V?$allocator@U?$WalkState@H@re2@@@std@@@std@@AEAAX$$QEAU?$WalkState@H@re2@@@Z
    ??$_Emplace_back_internal@U?$WalkState@PEAVInfo@Prefilter@re2@@@re2@@@?$deque@U?$WalkState@PEAVInfo@Prefilter@re2@@@re2@@V?$allocator@U?$WalkState@PEAVInfo@Prefilter@re2@@@re2@@@std@@@std@@AEAAX$$QEAU?$WalkState@PEAVInfo@Prefilter@re2@@@re2@@@Z
    ??$_Emplace_back_internal@U?$WalkState@PEAVRegexp@re2@@@re2@@@?$deque@U?$WalkState@PEAVRegexp@re2@@@re2@@V?$allocator@U?$WalkState@PEAVRegexp@re2@@@re2@@@std@@@std@@AEAAX$$QEAU?$WalkState@PEAVRegexp@re2@@@re2@@@Z
    ??$_Emplace_back_internal@U?$WalkState@UFrag@re2@@@re2@@@?$deque@U?$WalkState@UFrag@re2@@@re2@@V?$allocator@U?$WalkState@UFrag@re2@@@re2@@@std@@@std@@AEAAX$$QEAU?$WalkState@UFrag@re2@@@re2@@@Z
    ??$_Emplace_back_internal@U?$WalkState@_N@re2@@@?$deque@U?$WalkState@_N@re2@@V?$allocator@U?$WalkState@_N@re2@@@std@@@std@@AEAAX$$QEAU?$WalkState@_N@re2@@@Z
    ??$_Emplace_reallocate@$$V@?$vector@V?$vector@HV?$allocator@H@std@@@std@@V?$allocator@V?$vector@HV?$allocator@H@std@@@std@@@2@@std@@QEAAPEAV?$vector@HV?$allocator@H@std@@@1@QEAV21@@Z
    ??$_Emplace_reallocate@$$V@?$vector@VInst@Prog@re2@@V?$allocator@VInst@Prog@re2@@@std@@@std@@QEAAPEAVInst@Prog@re2@@QEAV234@@Z
    ??$_Emplace_reallocate@AEAH@?$vector@HV?$allocator@H@std@@@std@@QEAAPEAHQEAHAEAH@Z
    ??$_Emplace_reallocate@AEAHAEAH@?$vector@U?$pair@HH@std@@V?$allocator@U?$pair@HH@std@@@2@@std@@QEAAPEAU?$pair@HH@1@QEAU21@AEAH1@Z
    ??$_Emplace_reallocate@AEAPEAPEAVRegexp@re2@@AEAH@?$vector@UFrame@re2@@V?$allocator@UFrame@re2@@@std@@@std@@QEAAPEAUFrame@re2@@QEAU23@AEAPEAPEAVRegexp@3@AEAH@Z
    ??$_Emplace_reallocate@AEAPEAVRegexp@re2@@PEAPEAV12@H@?$vector@USplice@re2@@V?$allocator@USplice@re2@@@std@@@std@@QEAAPEAUSplice@re2@@QEAU23@AEAPEAVRegexp@3@$$QEAPEAPEAV43@$$QEAH@Z
    ??$_Emplace_reallocate@AEBH@?$vector@HV?$allocator@H@std@@@std@@QEAAPEAHQEAHAEBH@Z
    ??$_Emplace_reallocate@AEBQEAVPrefilter@re2@@@?$vector@PEAVPrefilter@re2@@V?$allocator@PEAVPrefilter@re2@@@std@@@std@@QEAAPEAPEAVPrefilter@re2@@QEAPEAV23@AEBQEAV23@@Z
    ??$_Emplace_reallocate@AEBQEAVRE2@re2@@@?$vector@PEAVRE2@re2@@V?$allocator@PEAVRE2@re2@@@std@@@std@@QEAAPEAPEAVRE2@re2@@QEAPEAV23@AEBQEAV23@@Z
    ??$_Emplace_reallocate@AEBQEAVRegexp@re2@@@?$vector@PEAVRegexp@re2@@V?$allocator@PEAVRegexp@re2@@@std@@@std@@QEAAPEAPEAVRegexp@re2@@QEAPEAV23@AEBQEAV23@@Z
    ??$_Emplace_reallocate@AEBV?$basic_string@DU?$char_traits@D@std@@V?$allocator@D@2@@std@@@?$vector@V?$basic_string@DU?$char_traits@D@std@@V?$allocator@D@2@@std@@V?$allocator@V?$basic_string@DU?$char_traits@D@std@@V?$allocator@D@2@@std@@@2@@std@@QEAAPEAV?$basic_string@DU?$char_traits@D@std@@V?$allocator@D@2@@1@QEAV21@AEBV21@@Z
    ??$_Emplace_reallocate@H@?$vector@HV?$allocator@H@std@@@std@@QEAAPEAHQEAH$$QEAH@Z
    ??$_Emplace_reallocate@URuneRange@re2@@@?$vector@URuneRange@re2@@V?$allocator@URuneRange@re2@@@std@@@std@@QEAAPEAURuneRange@re2@@QEAU23@$$QEAU23@@Z
    ??$_Emplace_reallocate@V?$basic_string@DU?$char_traits@D@std@@V?$allocator@D@2@@std@@AEAPEAVRegexp@re2@@@?$vector@U?$pair@V?$basic_string@DU?$char_traits@D@std@@V?$allocator@D@2@@std@@PEAVRegexp@re2@@@std@@V?$allocator@U?$pair@V?$basic_string@DU?$char_traits@D@std@@V?$allocator@D@2@@std@@PEAVRegexp@re2@@@std@@@2@@std@@QEAAPEAU?$pair@V?$basic_string@DU?$char_traits@D@std@@V?$allocator@D@2@@std@@PEAVRegexp@re2@@@1@QEAU21@$$QEAV?$basic_string@DU?$char_traits@D@std@@V?$allocator@D@2@@1@AEAPEAVRegexp@re2@@@Z
    ??$_Eqrange@PEAVRegexp@re2@@@?$_Tree@V?$_Tmap_traits@PEAVRegexp@re2@@HU?$less@PEAVRegexp@re2@@@std@@V?$allocator@U?$pair@QEAVRegexp@re2@@H@std@@@4@$0A@@std@@@std@@IEBA?AU?$pair@PEAU?$_Tree_node@U?$pair@QEAVRegexp@re2@@H@std@@PEAX@std@@PEAU12@@1@AEBQEAVRegexp@re2@@@Z
    ??$_Equal_rev_pred_unchecked@PEBDPEBDU?$equal_to@X@std@@@std@@YA_NPEBD0QEBDU?$equal_to@X@0@@Z
    ??$_Erase_head@V?$allocator@U?$_Tree_node@HPEAX@std@@@std@@@?$_Tree_val@U?$_Tree_simple_types@H@std@@@std@@QEAAXAEAV?$allocator@U?$_Tree_node@HPEAX@std@@@1@@Z
    ??$_Erase_head@V?$allocator@U?$_Tree_node@U?$pair@$$CBHH@std@@PEAX@std@@@std@@@?$_Tree_val@U?$_Tree_simple_types@U?$pair@$$CBHH@std@@@std@@@std@@QEAAXAEAV?$allocator@U?$_Tree_node@U?$pair@$$CBHH@std@@PEAX@std@@@1@@Z
    ??$_Erase_head@V?$allocator@U?$_Tree_node@U?$pair@$$CBHV?$basic_string@DU?$char_traits@D@std@@V?$allocator@D@2@@std@@@std@@PEAX@std@@@std@@@?$_Tree_val@U?$_Tree_simple_types@U?$pair@$$CBHV?$basic_string@DU?$char_traits@D@std@@V?$allocator@D@2@@std@@@std@@@std@@@std@@QEAAXAEAV?$allocator@U?$_Tree_node@U?$pair@$$CBHV?$basic_string@DU?$char_traits@D@std@@V?$allocator@D@2@@std@@@std@@PEAX@std@@@1@@Z
    ??$_Erase_head@V?$allocator@U?$_Tree_node@U?$pair@$$CBV?$basic_string@DU?$char_traits@D@std@@V?$allocator@D@2@@std@@H@std@@PEAX@std@@@std@@@?$_Tree_val@U?$_Tree_simple_types@U?$pair@$$CBV?$basic_string@DU?$char_traits@D@std@@V?$allocator@D@2@@std@@H@std@@@std@@@std@@QEAAXAEAV?$allocator@U?$_Tree_node@U?$pair@$$CBV?$basic_string@DU?$char_traits@D@std@@V?$allocator@D@2@@std@@H@std@@PEAX@std@@@1@@Z
    ??$_Erase_head@V?$allocator@U?$_Tree_node@U?$pair@$$CBV?$basic_string@DU?$char_traits@D@std@@V?$allocator@D@2@@std@@PEAVPrefilter@re2@@@std@@PEAX@std@@@std@@@?$_Tree_val@U?$_Tree_simple_types@U?$pair@$$CBV?$basic_string@DU?$char_traits@D@std@@V?$allocator@D@2@@std@@PEAVPrefilter@re2@@@std@@@std@@@std@@QEAAXAEAV?$allocator@U?$_Tree_node@U?$pair@$$CBV?$basic_string@DU?$char_traits@D@std@@V?$allocator@D@2@@std@@PEAVPrefilter@re2@@@std@@PEAX@std@@@1@@Z
    ??$_Erase_head@V?$allocator@U?$_Tree_node@URuneRange@re2@@PEAX@std@@@std@@@?$_Tree_val@U?$_Tree_simple_types@URuneRange@re2@@@std@@@std@@QEAAXAEAV?$allocator@U?$_Tree_node@URuneRange@re2@@PEAX@std@@@1@@Z
    ??$_Erase_head@V?$allocator@U?$_Tree_node@V?$basic_string@DU?$char_traits@D@std@@V?$allocator@D@2@@std@@PEAX@std@@@std@@@?$_Tree_val@U?$_Tree_simple_types@V?$basic_string@DU?$char_traits@D@std@@V?$allocator@D@2@@std@@@std@@@std@@QEAAXAEAV?$allocator@U?$_Tree_node@V?$basic_string@DU?$char_traits@D@std@@V?$allocator@D@2@@std@@PEAX@std@@@1@@Z
    ??$_Erase_tree@V?$allocator@U?$_Tree_node@HPEAX@std@@@std@@@?$_Tree_val@U?$_Tree_simple_types@H@std@@@std@@QEAAXAEAV?$allocator@U?$_Tree_node@HPEAX@std@@@1@PEAU?$_Tree_node@HPEAX@1@@Z
    ??$_Erase_tree@V?$allocator@U?$_Tree_node@U?$pair@$$CBHH@std@@PEAX@std@@@std@@@?$_Tree_val@U?$_Tree_simple_types@U?$pair@$$CBHH@std@@@std@@@std@@QEAAXAEAV?$allocator@U?$_Tree_node@U?$pair@$$CBHH@std@@PEAX@std@@@1@PEAU?$_Tree_node@U?$pair@$$CBHH@std@@PEAX@1@@Z
    ??$_Erase_tree@V?$allocator@U?$_Tree_node@U?$pair@$$CBHV?$basic_string@DU?$char_traits@D@std@@V?$allocator@D@2@@std@@@std@@PEAX@std@@@std@@@?$_Tree_val@U?$_Tree_simple_types@U?$pair@$$CBHV?$basic_string@DU?$char_traits@D@std@@V?$allocator@D@2@@std@@@std@@@std@@@std@@QEAAXAEAV?$allocator@U?$_Tree_node@U?$pair@$$CBHV?$basic_string@DU?$char_traits@D@std@@V?$allocator@D@2@@std@@@std@@PEAX@std@@@1@PEAU?$_Tree_node@U?$pair@$$CBHV?$basic_string@DU?$char_traits@D@std@@V?$allocator@D@2@@std@@@std@@PEAX@1@@Z
    ??$_Erase_tree@V?$allocator@U?$_Tree_node@U?$pair@$$CBV?$basic_string@DU?$char_traits@D@std@@V?$allocator@D@2@@std@@H@std@@PEAX@std@@@std@@@?$_Tree_val@U?$_Tree_simple_types@U?$pair@$$CBV?$basic_string@DU?$char_traits@D@std@@V?$allocator@D@2@@std@@H@std@@@std@@@std@@QEAAXAEAV?$allocator@U?$_Tree_node@U?$pair@$$CBV?$basic_string@DU?$char_traits@D@std@@V?$allocator@D@2@@std@@H@std@@PEAX@std@@@1@PEAU?$_Tree_node@U?$pair@$$CBV?$basic_string@DU?$char_traits@D@std@@V?$allocator@D@2@@std@@H@std@@PEAX@1@@Z
    ??$_Erase_tree@V?$allocator@U?$_Tree_node@U?$pair@$$CBV?$basic_string@DU?$char_traits@D@std@@V?$allocator@D@2@@std@@PEAVPrefilter@re2@@@std@@PEAX@std@@@std@@@?$_Tree_val@U?$_Tree_simple_types@U?$pair@$$CBV?$basic_string@DU?$char_traits@D@std@@V?$allocator@D@2@@std@@PEAVPrefilter@re2@@@std@@@std@@@std@@QEAAXAEAV?$allocator@U?$_Tree_node@U?$pair@$$CBV?$basic_string@DU?$char_traits@D@std@@V?$allocator@D@2@@std@@PEAVPrefilter@re2@@@std@@PEAX@std@@@1@PEAU?$_Tree_node@U?$pair@$$CBV?$basic_string@DU?$char_traits@D@std@@V?$allocator@D@2@@std@@PEAVPrefilter@re2@@@std@@PEAX@1@@Z
    ??$_Erase_tree@V?$allocator@U?$_Tree_node@U?$pair@QEAVRegexp@re2@@H@std@@PEAX@std@@@std@@@?$_Tree_val@U?$_Tree_simple_types@U?$pair@QEAVRegexp@re2@@H@std@@@std@@@std@@QEAAXAEAV?$allocator@U?$_Tree_node@U?$pair@QEAVRegexp@re2@@H@std@@PEAX@std@@@1@PEAU?$_Tree_node@U?$pair@QEAVRegexp@re2@@H@std@@PEAX@1@@Z
    ??$_Erase_tree@V?$allocator@U?$_Tree_node@URuneRange@re2@@PEAX@std@@@std@@@?$_Tree_val@U?$_Tree_simple_types@URuneRange@re2@@@std@@@std@@QEAAXAEAV?$allocator@U?$_Tree_node@URuneRange@re2@@PEAX@std@@@1@PEAU?$_Tree_node@URuneRange@re2@@PEAX@1@@Z
    ??$_Erase_tree@V?$allocator@U?$_Tree_node@V?$basic_string@DU?$char_traits@D@std@@V?$allocator@D@2@@std@@PEAX@std@@@std@@@?$_Tree_val@U?$_Tree_simple_types@V?$basic_string@DU?$char_traits@D@std@@V?$allocator@D@2@@std@@@std@@@std@@QEAAXAEAV?$allocator@U?$_Tree_node@V?$basic_string@DU?$char_traits@D@std@@V?$allocator@D@2@@std@@PEAX@std@@@1@PEAU?$_Tree_node@V?$basic_string@DU?$char_traits@D@std@@V?$allocator@D@2@@std@@PEAX@1@@Z
    ??$_Find@H@?$_Tree@V?$_Tmap_traits@HHU?$less@H@std@@V?$allocator@U?$pair@$$CBHH@std@@@2@$0A@@std@@@std@@AEBAPEAU?$_Tree_node@U?$pair@$$CBHH@std@@PEAX@1@AEBH@Z
    ??$_Find@PEAUState@DFA@re2@@@?$_Hash@V?$_Umap_traits@PEAUState@DFA@re2@@HV?$_Uhash_compare@PEAUState@DFA@re2@@U?$hash@PEAUState@DFA@re2@@@std@@U?$equal_to@PEAUState@DFA@re2@@@5@@std@@V?$allocator@U?$pair@QEAUState@DFA@re2@@H@std@@@5@$0A@@std@@@std@@AEBAPEAU?$_List_node@U?$pair@QEAUState@DFA@re2@@H@std@@PEAX@1@AEBQEAUState@DFA@re2@@_K@Z
    ??$_Find@PEAUState@DFA@re2@@@?$_Hash@V?$_Uset_traits@PEAUState@DFA@re2@@V?$_Uhash_compare@PEAUState@DFA@re2@@UStateHash@23@UStateEqual@23@@std@@V?$allocator@PEAUState@DFA@re2@@@5@$0A@@std@@@std@@AEBAPEAU?$_List_node@PEAUState@DFA@re2@@PEAX@1@AEBQEAUState@DFA@re2@@_K@Z
    ??$_Find@URuneRange@re2@@@?$_Tree@V?$_Tset_traits@URuneRange@re2@@URuneRangeLess@2@V?$allocator@URuneRange@re2@@@std@@$0A@@std@@@std@@AEBAPEAU?$_Tree_node@URuneRange@re2@@PEAX@1@AEBURuneRange@re2@@@Z
    ??$_Find@V?$basic_string@DU?$char_traits@D@std@@V?$allocator@D@2@@std@@@?$_Tree@V?$_Tmap_traits@V?$basic_string@DU?$char_traits@D@std@@V?$allocator@D@2@@std@@HU?$less@V?$basic_string@DU?$char_traits@D@std@@V?$allocator@D@2@@std@@@2@V?$allocator@U?$pair@$$CBV?$basic_string@DU?$char_traits@D@std@@V?$allocator@D@2@@std@@H@std@@@2@$0A@@std@@@std@@AEBAPEAU?$_Tree_node@U?$pair@$$CBV?$basic_string@DU?$char_traits@D@std@@V?$allocator@D@2@@std@@H@std@@PEAX@1@AEBV?$basic_string@DU?$char_traits@D@std@@V?$allocator@D@2@@1@@Z
    ??$_Find@V?$basic_string@DU?$char_traits@D@std@@V?$allocator@D@2@@std@@@?$_Tree@V?$_Tmap_traits@V?$basic_string@DU?$char_traits@D@std@@V?$allocator@D@2@@std@@PEAVPrefilter@re2@@U?$less@V?$basic_string@DU?$char_traits@D@std@@V?$allocator@D@2@@std@@@2@V?$allocator@U?$pair@$$CBV?$basic_string@DU?$char_traits@D@std@@V?$allocator@D@2@@std@@PEAVPrefilter@re2@@@std@@@2@$0A@@std@@@std@@AEBAPEAU?$_Tree_node@U?$pair@$$CBV?$basic_string@DU?$char_traits@D@std@@V?$allocator@D@2@@std@@PEAVPrefilter@re2@@@std@@PEAX@1@AEBV?$basic_string@DU?$char_traits@D@std@@V?$allocator@D@2@@1@@Z
    ??$_Find@_K@?$_Hash@V?$_Umap_traits@_KHV?$_Uhash_compare@_KU?$hash@_K@std@@U?$equal_to@_K@2@@std@@V?$allocator@U?$pair@$$CB_KH@std@@@2@$0A@@std@@@std@@AEBAPEAU?$_List_node@U?$pair@$$CB_KH@std@@PEAX@1@AEB_K_K@Z
    ??$_Find_last@PEAUState@DFA@re2@@@?$_Hash@V?$_Umap_traits@PEAUState@DFA@re2@@HV?$_Uhash_compare@PEAUState@DFA@re2@@U?$hash@PEAUState@DFA@re2@@@std@@U?$equal_to@PEAUState@DFA@re2@@@5@@std@@V?$allocator@U?$pair@QEAUState@DFA@re2@@H@std@@@5@$0A@@std@@@std@@IEBA?AU?$_Hash_find_last_result@PEAU?$_List_node@U?$pair@QEAUState@DFA@re2@@H@std@@PEAX@std@@@1@AEBQEAUState@DFA@re2@@_K@Z
    ??$_Find_last@PEAUState@DFA@re2@@@?$_Hash@V?$_Uset_traits@PEAUState@DFA@re2@@V?$_Uhash_compare@PEAUState@DFA@re2@@UStateHash@23@UStateEqual@23@@std@@V?$allocator@PEAUState@DFA@re2@@@5@$0A@@std@@@std@@IEBA?AU?$_Hash_find_last_result@PEAU?$_List_node@PEAUState@DFA@re2@@PEAX@std@@@1@AEBQEAUState@DFA@re2@@_K@Z
    ??$_Find_last@_K@?$_Hash@V?$_Umap_traits@_KHV?$_Uhash_compare@_KU?$hash@_K@std@@U?$equal_to@_K@2@@std@@V?$allocator@U?$pair@$$CB_KH@std@@@2@$0A@@std@@@std@@IEBA?AU?$_Hash_find_last_result@PEAU?$_List_node@U?$pair@$$CB_KH@std@@PEAX@std@@@1@AEB_K_K@Z
    ??$_Find_lower_bound@H@?$_Tree@V?$_Tmap_traits@HHU?$less@H@std@@V?$allocator@U?$pair@$$CBHH@std@@@2@$0A@@std@@@std@@IEBA?AU?$_Tree_find_result@PEAU?$_Tree_node@U?$pair@$$CBHH@std@@PEAX@std@@@1@AEBH@Z
    ??$_Find_lower_bound@H@?$_Tree@V?$_Tmap_traits@HV?$basic_string@DU?$char_traits@D@std@@V?$allocator@D@2@@std@@U?$less@H@2@V?$allocator@U?$pair@$$CBHV?$basic_string@DU?$char_traits@D@std@@V?$allocator@D@2@@std@@@std@@@2@$0A@@std@@@std@@IEBA?AU?$_Tree_find_result@PEAU?$_Tree_node@U?$pair@$$CBHV?$basic_string@DU?$char_traits@D@std@@V?$allocator@D@2@@std@@@std@@PEAX@std@@@1@AEBH@Z
    ??$_Find_lower_bound@H@?$_Tree@V?$_Tset_traits@HU?$less@H@std@@V?$allocator@H@2@$0A@@std@@@std@@IEBA?AU?$_Tree_find_result@PEAU?$_Tree_node@HPEAX@std@@@1@AEBH@Z
    ??$_Find_lower_bound@PEAVRegexp@re2@@@?$_Tree@V?$_Tmap_traits@PEAVRegexp@re2@@HU?$less@PEAVRegexp@re2@@@std@@V?$allocator@U?$pair@QEAVRegexp@re2@@H@std@@@4@$0A@@std@@@std@@IEBA?AU?$_Tree_find_result@PEAU?$_Tree_node@U?$pair@QEAVRegexp@re2@@H@std@@PEAX@std@@@1@AEBQEAVRegexp@re2@@@Z
    ??$_Find_lower_bound@URuneRange@re2@@@?$_Tree@V?$_Tset_traits@URuneRange@re2@@URuneRangeLess@2@V?$allocator@URuneRange@re2@@@std@@$0A@@std@@@std@@IEBA?AU?$_Tree_find_result@PEAU?$_Tree_node@URuneRange@re2@@PEAX@std@@@1@AEBURuneRange@re2@@@Z
    ??$_Find_lower_bound@V?$basic_string@DU?$char_traits@D@std@@V?$allocator@D@2@@std@@@?$_Tree@V?$_Tmap_traits@V?$basic_string@DU?$char_traits@D@std@@V?$allocator@D@2@@std@@HU?$less@V?$basic_string@DU?$char_traits@D@std@@V?$allocator@D@2@@std@@@2@V?$allocator@U?$pair@$$CBV?$basic_string@DU?$char_traits@D@std@@V?$allocator@D@2@@std@@H@std@@@2@$0A@@std@@@std@@IEBA?AU?$_Tree_find_result@PEAU?$_Tree_node@U?$pair@$$CBV?$basic_string@DU?$char_traits@D@std@@V?$allocator@D@2@@std@@H@std@@PEAX@std@@@1@AEBV?$basic_string@DU?$char_traits@D@std@@V?$allocator@D@2@@1@@Z
    ??$_Find_lower_bound@V?$basic_string@DU?$char_traits@D@std@@V?$allocator@D@2@@std@@@?$_Tree@V?$_Tmap_traits@V?$basic_string@DU?$char_traits@D@std@@V?$allocator@D@2@@std@@PEAVPrefilter@re2@@U?$less@V?$basic_string@DU?$char_traits@D@std@@V?$allocator@D@2@@std@@@2@V?$allocator@U?$pair@$$CBV?$basic_string@DU?$char_traits@D@std@@V?$allocator@D@2@@std@@PEAVPrefilter@re2@@@std@@@2@$0A@@std@@@std@@IEBA?AU?$_Tree_find_result@PEAU?$_Tree_node@U?$pair@$$CBV?$basic_string@DU?$char_traits@D@std@@V?$allocator@D@2@@std@@PEAVPrefilter@re2@@@std@@PEAX@std@@@1@AEBV?$basic_string@DU?$char_traits@D@std@@V?$allocator@D@2@@1@@Z
    ??$_Find_lower_bound@V?$basic_string@DU?$char_traits@D@std@@V?$allocator@D@2@@std@@@?$_Tree@V?$_Tset_traits@V?$basic_string@DU?$char_traits@D@std@@V?$allocator@D@2@@std@@U?$less@V?$basic_string@DU?$char_traits@D@std@@V?$allocator@D@2@@std@@@2@V?$allocator@V?$basic_string@DU?$char_traits@D@std@@V?$allocator@D@2@@std@@@2@$0A@@std@@@std@@IEBA?AU?$_Tree_find_result@PEAU?$_Tree_node@V?$basic_string@DU?$char_traits@D@std@@V?$allocator@D@2@@std@@PEAX@std@@@1@AEBV?$basic_string@DU?$char_traits@D@std@@V?$allocator@D@2@@1@@Z
    ??$_Find_unchecked1@PEBDD@std@@YAPEBDPEBDQEBDAEBDU?$integral_constant@_N$00@0@@Z
    ??$_Find_unchecked@PEBDD@std@@YAPEBDQEBD0AEBD@Z
    ??$_Fnv1a_append_value@PEAUState@DFA@re2@@@std@@YA_K_KAEBQEAUState@DFA@re2@@@Z
    ??$_Fnv1a_append_value@_K@std@@YA_K_KAEB_K@Z
    ??$_Free_non_head@V?$allocator@U?$_List_node@PEAUState@DFA@re2@@PEAX@std@@@std@@@?$_List_node@PEAUState@DFA@re2@@PEAX@std@@SAXAEAV?$allocator@U?$_List_node@PEAUState@DFA@re2@@PEAX@std@@@1@PEAU01@@Z
    ??$_Free_non_head@V?$allocator@U?$_List_node@U?$pair@$$CB_KH@std@@PEAX@std@@@std@@@?$_List_node@U?$pair@$$CB_KH@std@@PEAX@std@@SAXAEAV?$allocator@U?$_List_node@U?$pair@$$CB_KH@std@@PEAX@std@@@1@PEAU01@@Z
    ??$_Free_non_head@V?$allocator@U?$_List_node@U?$pair@QEAUState@DFA@re2@@H@std@@PEAX@std@@@std@@@?$_List_node@U?$pair@QEAUState@DFA@re2@@H@std@@PEAX@std@@SAXAEAV?$allocator@U?$_List_node@U?$pair@QEAUState@DFA@re2@@H@std@@PEAX@std@@@1@PEAU01@@Z
    ??$_Freenode0@V?$allocator@U?$_List_node@PEAUState@DFA@re2@@PEAX@std@@@std@@@?$_List_node@PEAUState@DFA@re2@@PEAX@std@@SAXAEAV?$allocator@U?$_List_node@PEAUState@DFA@re2@@PEAX@std@@@1@PEAU01@@Z
    ??$_Freenode0@V?$allocator@U?$_List_node@U?$pair@$$CB_KH@std@@PEAX@std@@@std@@@?$_List_node@U?$pair@$$CB_KH@std@@PEAX@std@@SAXAEAV?$allocator@U?$_List_node@U?$pair@$$CB_KH@std@@PEAX@std@@@1@PEAU01@@Z
    ??$_Freenode0@V?$allocator@U?$_List_node@U?$pair@QEAUState@DFA@re2@@H@std@@PEAX@std@@@std@@@?$_List_node@U?$pair@QEAUState@DFA@re2@@H@std@@PEAX@std@@SAXAEAV?$allocator@U?$_List_node@U?$pair@QEAUState@DFA@re2@@H@std@@PEAX@std@@@1@PEAU01@@Z
    ??$_Freenode0@V?$allocator@U?$_Tree_node@HPEAX@std@@@std@@@?$_Tree_node@HPEAX@std@@SAXAEAV?$allocator@U?$_Tree_node@HPEAX@std@@@1@PEAU01@@Z
    ??$_Freenode0@V?$allocator@U?$_Tree_node@U?$pair@$$CBHH@std@@PEAX@std@@@std@@@?$_Tree_node@U?$pair@$$CBHH@std@@PEAX@std@@SAXAEAV?$allocator@U?$_Tree_node@U?$pair@$$CBHH@std@@PEAX@std@@@1@PEAU01@@Z
    ??$_Freenode0@V?$allocator@U?$_Tree_node@U?$pair@$$CBHV?$basic_string@DU?$char_traits@D@std@@V?$allocator@D@2@@std@@@std@@PEAX@std@@@std@@@?$_Tree_node@U?$pair@$$CBHV?$basic_string@DU?$char_traits@D@std@@V?$allocator@D@2@@std@@@std@@PEAX@std@@SAXAEAV?$allocator@U?$_Tree_node@U?$pair@$$CBHV?$basic_string@DU?$char_traits@D@std@@V?$allocator@D@2@@std@@@std@@PEAX@std@@@1@PEAU01@@Z
    ??$_Freenode0@V?$allocator@U?$_Tree_node@U?$pair@$$CBV?$basic_string@DU?$char_traits@D@std@@V?$allocator@D@2@@std@@H@std@@PEAX@std@@@std@@@?$_Tree_node@U?$pair@$$CBV?$basic_string@DU?$char_traits@D@std@@V?$allocator@D@2@@std@@H@std@@PEAX@std@@SAXAEAV?$allocator@U?$_Tree_node@U?$pair@$$CBV?$basic_string@DU?$char_traits@D@std@@V?$allocator@D@2@@std@@H@std@@PEAX@std@@@1@PEAU01@@Z
    ??$_Freenode0@V?$allocator@U?$_Tree_node@U?$pair@$$CBV?$basic_string@DU?$char_traits@D@std@@V?$allocator@D@2@@std@@PEAVPrefilter@re2@@@std@@PEAX@std@@@std@@@?$_Tree_node@U?$pair@$$CBV?$basic_string@DU?$char_traits@D@std@@V?$allocator@D@2@@std@@PEAVPrefilter@re2@@@std@@PEAX@std@@SAXAEAV?$allocator@U?$_Tree_node@U?$pair@$$CBV?$basic_string@DU?$char_traits@D@std@@V?$allocator@D@2@@std@@PEAVPrefilter@re2@@@std@@PEAX@std@@@1@PEAU01@@Z
    ??$_Freenode0@V?$allocator@U?$_Tree_node@U?$pair@QEAVRegexp@re2@@H@std@@PEAX@std@@@std@@@?$_Tree_node@U?$pair@QEAVRegexp@re2@@H@std@@PEAX@std@@SAXAEAV?$allocator@U?$_Tree_node@U?$pair@QEAVRegexp@re2@@H@std@@PEAX@std@@@1@PEAU01@@Z
    ??$_Freenode0@V?$allocator@U?$_Tree_node@URuneRange@re2@@PEAX@std@@@std@@@?$_Tree_node@URuneRange@re2@@PEAX@std@@SAXAEAV?$allocator@U?$_Tree_node@URuneRange@re2@@PEAX@std@@@1@PEAU01@@Z
    ??$_Freenode0@V?$allocator@U?$_Tree_node@V?$basic_string@DU?$char_traits@D@std@@V?$allocator@D@2@@std@@PEAX@std@@@std@@@?$_Tree_node@V?$basic_string@DU?$char_traits@D@std@@V?$allocator@D@2@@std@@PEAX@std@@SAXAEAV?$allocator@U?$_Tree_node@V?$basic_string@DU?$char_traits@D@std@@V?$allocator@D@2@@std@@PEAX@std@@@1@PEAU01@@Z
    ??$_Freenode@V?$allocator@U?$_List_node@PEAUState@DFA@re2@@PEAX@std@@@std@@@?$_List_node@PEAUState@DFA@re2@@PEAX@std@@SAXAEAV?$allocator@U?$_List_node@PEAUState@DFA@re2@@PEAX@std@@@1@PEAU01@@Z
    ??$_Freenode@V?$allocator@U?$_List_node@U?$pair@$$CB_KH@std@@PEAX@std@@@std@@@?$_List_node@U?$pair@$$CB_KH@std@@PEAX@std@@SAXAEAV?$allocator@U?$_List_node@U?$pair@$$CB_KH@std@@PEAX@std@@@1@PEAU01@@Z
    ??$_Freenode@V?$allocator@U?$_List_node@U?$pair@QEAUState@DFA@re2@@H@std@@PEAX@std@@@std@@@?$_List_node@U?$pair@QEAUState@DFA@re2@@H@std@@PEAX@std@@SAXAEAV?$allocator@U?$_List_node@U?$pair@QEAUState@DFA@re2@@H@std@@PEAX@std@@@1@PEAU01@@Z
    ??$_Freenode@V?$allocator@U?$_Tree_node@HPEAX@std@@@std@@@?$_Tree_node@HPEAX@std@@SAXAEAV?$allocator@U?$_Tree_node@HPEAX@std@@@1@PEAU01@@Z
    ??$_Freenode@V?$allocator@U?$_Tree_node@U?$pair@$$CBHH@std@@PEAX@std@@@std@@@?$_Tree_node@U?$pair@$$CBHH@std@@PEAX@std@@SAXAEAV?$allocator@U?$_Tree_node@U?$pair@$$CBHH@std@@PEAX@std@@@1@PEAU01@@Z
    ??$_Freenode@V?$allocator@U?$_Tree_node@U?$pair@$$CBHV?$basic_string@DU?$char_traits@D@std@@V?$allocator@D@2@@std@@@std@@PEAX@std@@@std@@@?$_Tree_node@U?$pair@$$CBHV?$basic_string@DU?$char_traits@D@std@@V?$allocator@D@2@@std@@@std@@PEAX@std@@SAXAEAV?$allocator@U?$_Tree_node@U?$pair@$$CBHV?$basic_string@DU?$char_traits@D@std@@V?$allocator@D@2@@std@@@std@@PEAX@std@@@1@PEAU01@@Z
    ??$_Freenode@V?$allocator@U?$_Tree_node@U?$pair@$$CBV?$basic_string@DU?$char_traits@D@std@@V?$allocator@D@2@@std@@H@std@@PEAX@std@@@std@@@?$_Tree_node@U?$pair@$$CBV?$basic_string@DU?$char_traits@D@std@@V?$allocator@D@2@@std@@H@std@@PEAX@std@@SAXAEAV?$allocator@U?$_Tree_node@U?$pair@$$CBV?$basic_string@DU?$char_traits@D@std@@V?$allocator@D@2@@std@@H@std@@PEAX@std@@@1@PEAU01@@Z
    ??$_Freenode@V?$allocator@U?$_Tree_node@U?$pair@$$CBV?$basic_string@DU?$char_traits@D@std@@V?$allocator@D@2@@std@@PEAVPrefilter@re2@@@std@@PEAX@std@@@std@@@?$_Tree_node@U?$pair@$$CBV?$basic_string@DU?$char_traits@D@std@@V?$allocator@D@2@@std@@PEAVPrefilter@re2@@@std@@PEAX@std@@SAXAEAV?$allocator@U?$_Tree_node@U?$pair@$$CBV?$basic_string@DU?$char_traits@D@std@@V?$allocator@D@2@@std@@PEAVPrefilter@re2@@@std@@PEAX@std@@@1@PEAU01@@Z
    ??$_Freenode@V?$allocator@U?$_Tree_node@U?$pair@QEAVRegexp@re2@@H@std@@PEAX@std@@@std@@@?$_Tree_node@U?$pair@QEAVRegexp@re2@@H@std@@PEAX@std@@SAXAEAV?$allocator@U?$_Tree_node@U?$pair@QEAVRegexp@re2@@H@std@@PEAX@std@@@1@PEAU01@@Z
    ??$_Freenode@V?$allocator@U?$_Tree_node@URuneRange@re2@@PEAX@std@@@std@@@?$_Tree_node@URuneRange@re2@@PEAX@std@@SAXAEAV?$allocator@U?$_Tree_node@URuneRange@re2@@PEAX@std@@@1@PEAU01@@Z
    ??$_Freenode@V?$allocator@U?$_Tree_node@V?$basic_string@DU?$char_traits@D@std@@V?$allocator@D@2@@std@@PEAX@std@@@std@@@?$_Tree_node@V?$basic_string@DU?$char_traits@D@std@@V?$allocator@D@2@@std@@PEAX@std@@SAXAEAV?$allocator@U?$_Tree_node@V?$basic_string@DU?$char_traits@D@std@@V?$allocator@D@2@@std@@PEAX@std@@@1@PEAU01@@Z
    ??$_Get_size_of_n@$00@std@@YA_K_K@Z
    ??$_Get_size_of_n@$01@std@@YA_K_K@Z
    ??$_Get_size_of_n@$03@std@@YA_K_K@Z
    ??$_Get_size_of_n@$07@std@@YA_K_K@Z
    ??$_Get_size_of_n@$0BA@@std@@YA_K_K@Z
    ??$_Get_size_of_n@$0BI@@std@@YA_K_K@Z
    ??$_Get_size_of_n@$0CA@@std@@YA_K_K@Z
    ??$_Get_size_of_n@$0CI@@std@@YA_K_K@Z
    ??$_Get_size_of_n@$0DA@@std@@YA_K_K@Z
    ??$_Get_size_of_n@$0EA@@std@@YA_K_K@Z
    ??$_Get_size_of_n@$0EI@@std@@YA_K_K@Z
    ??$_Get_unwrapped@AEBQEAURuneRange@re2@@@std@@YAPEAURuneRange@re2@@AEBQEAU12@@Z
    ??$_Guess_median_unchecked@PEAHU?$less@X@std@@@std@@YAXPEAH00U?$less@X@0@@Z
    ??$_Guess_median_unchecked@PEAVIndexValue@?$SparseArray@H@re2@@P6A_NAEBV123@0@Z@std@@YAXPEAVIndexValue@?$SparseArray@H@re2@@00P6A_NAEBV123@1@Z@Z
    ??$_Hash_representation@PEAUState@DFA@re2@@@std@@YA_KAEBQEAUState@DFA@re2@@@Z
    ??$_Hash_representation@_K@std@@YA_KAEB_K@Z
    ??$_Insert_range@PEBH@?$vector@HV?$allocator@H@std@@@std@@AEAAXV?$_Vector_const_iterator@V?$_Vector_val@U?$_Simple_types@H@std@@@std@@@1@PEBH1Uforward_iterator_tag@1@@Z
    ??$_Insert_string@DU?$char_traits@D@std@@_K@std@@YAAEAV?$basic_ostream@DU?$char_traits@D@std@@@0@AEAV10@QEBD_K@Z
    ??$_Kfn@$$CBHH@?$_Tmap_traits@HHU?$less@H@std@@V?$allocator@U?$pair@$$CBHH@std@@@2@$0A@@std@@SAAEBHAEBU?$pair@$$CBHH@1@@Z
    ??$_Kfn@$$CBHV?$basic_string@DU?$char_traits@D@std@@V?$allocator@D@2@@std@@@?$_Tmap_traits@HV?$basic_string@DU?$char_traits@D@std@@V?$allocator@D@2@@std@@U?$less@H@2@V?$allocator@U?$pair@$$CBHV?$basic_string@DU?$char_traits@D@std@@V?$allocator@D@2@@std@@@std@@@2@$0A@@std@@SAAEBHAEBU?$pair@$$CBHV?$basic_string@DU?$char_traits@D@std@@V?$allocator@D@2@@std@@@1@@Z
    ??$_Kfn@$$CBV?$basic_string@DU?$char_traits@D@std@@V?$allocator@D@2@@std@@H@?$_Tmap_traits@V?$basic_string@DU?$char_traits@D@std@@V?$allocator@D@2@@std@@HU?$less@V?$basic_string@DU?$char_traits@D@std@@V?$allocator@D@2@@std@@@2@V?$allocator@U?$pair@$$CBV?$basic_string@DU?$char_traits@D@std@@V?$allocator@D@2@@std@@H@std@@@2@$0A@@std@@SAAEBV?$basic_string@DU?$char_traits@D@std@@V?$allocator@D@2@@1@AEBU?$pair@$$CBV?$basic_string@DU?$char_traits@D@std@@V?$allocator@D@2@@std@@H@1@@Z
    ??$_Kfn@$$CBV?$basic_string@DU?$char_traits@D@std@@V?$allocator@D@2@@std@@PEAVPrefilter@re2@@@?$_Tmap_traits@V?$basic_string@DU?$char_traits@D@std@@V?$allocator@D@2@@std@@PEAVPrefilter@re2@@U?$less@V?$basic_string@DU?$char_traits@D@std@@V?$allocator@D@2@@std@@@2@V?$allocator@U?$pair@$$CBV?$basic_string@DU?$char_traits@D@std@@V?$allocator@D@2@@std@@PEAVPrefilter@re2@@@std@@@2@$0A@@std@@SAAEBV?$basic_string@DU?$char_traits@D@std@@V?$allocator@D@2@@1@AEBU?$pair@$$CBV?$basic_string@DU?$char_traits@D@std@@V?$allocator@D@2@@std@@PEAVPrefilter@re2@@@1@@Z
    ??$_Kfn@$$CB_KH@?$_Umap_traits@_KHV?$_Uhash_compare@_KU?$hash@_K@std@@U?$equal_to@_K@2@@std@@V?$allocator@U?$pair@$$CB_KH@std@@@2@$0A@@std@@SAAEB_KAEBU?$pair@$$CB_KH@1@@Z
    ??$_Kfn@QEAUState@DFA@re2@@H@?$_Umap_traits@PEAUState@DFA@re2@@HV?$_Uhash_compare@PEAUState@DFA@re2@@U?$hash@PEAUState@DFA@re2@@@std@@U?$equal_to@PEAUState@DFA@re2@@@5@@std@@V?$allocator@U?$pair@QEAUState@DFA@re2@@H@std@@@5@$0A@@std@@SAAEBQEAUState@DFA@re2@@AEBU?$pair@QEAUState@DFA@re2@@H@1@@Z
    ??$_Kfn@QEAVRegexp@re2@@H@?$_Tmap_traits@PEAVRegexp@re2@@HU?$less@PEAVRegexp@re2@@@std@@V?$allocator@U?$pair@QEAVRegexp@re2@@H@std@@@4@$0A@@std@@SAAEBQEAVRegexp@re2@@AEBU?$pair@QEAVRegexp@re2@@H@1@@Z
    ??$_Lower_bound_duplicate@H@?$_Tree@V?$_Tmap_traits@HHU?$less@H@std@@V?$allocator@U?$pair@$$CBHH@std@@@2@$0A@@std@@@std@@IEBA_NQEAU?$_Tree_node@U?$pair@$$CBHH@std@@PEAX@1@AEBH@Z
    ??$_Lower_bound_duplicate@H@?$_Tree@V?$_Tmap_traits@HV?$basic_string@DU?$char_traits@D@std@@V?$allocator@D@2@@std@@U?$less@H@2@V?$allocator@U?$pair@$$CBHV?$basic_string@DU?$char_traits@D@std@@V?$allocator@D@2@@std@@@std@@@2@$0A@@std@@@std@@IEBA_NQEAU?$_Tree_node@U?$pair@$$CBHV?$basic_string@DU?$char_traits@D@std@@V?$allocator@D@2@@std@@@std@@PEAX@1@AEBH@Z
    ??$_Lower_bound_duplicate@H@?$_Tree@V?$_Tset_traits@HU?$less@H@std@@V?$allocator@H@2@$0A@@std@@@std@@IEBA_NQEAU?$_Tree_node@HPEAX@1@AEBH@Z
    ??$_Lower_bound_duplicate@PEAVRegexp@re2@@@?$_Tree@V?$_Tmap_traits@PEAVRegexp@re2@@HU?$less@PEAVRegexp@re2@@@std@@V?$allocator@U?$pair@QEAVRegexp@re2@@H@std@@@4@$0A@@std@@@std@@IEBA_NQEAU?$_Tree_node@U?$pair@QEAVRegexp@re2@@H@std@@PEAX@1@AEBQEAVRegexp@re2@@@Z
    ??$_Lower_bound_duplicate@URuneRange@re2@@@?$_Tree@V?$_Tset_traits@URuneRange@re2@@URuneRangeLess@2@V?$allocator@URuneRange@re2@@@std@@$0A@@std@@@std@@IEBA_NQEAU?$_Tree_node@URuneRange@re2@@PEAX@1@AEBURuneRange@re2@@@Z
    ??$_Lower_bound_duplicate@V?$basic_string@DU?$char_traits@D@std@@V?$allocator@D@2@@std@@@?$_Tree@V?$_Tmap_traits@V?$basic_string@DU?$char_traits@D@std@@V?$allocator@D@2@@std@@HU?$less@V?$basic_string@DU?$char_traits@D@std@@V?$allocator@D@2@@std@@@2@V?$allocator@U?$pair@$$CBV?$basic_string@DU?$char_traits@D@std@@V?$allocator@D@2@@std@@H@std@@@2@$0A@@std@@@std@@IEBA_NQEAU?$_Tree_node@U?$pair@$$CBV?$basic_string@DU?$char_traits@D@std@@V?$allocator@D@2@@std@@H@std@@PEAX@1@AEBV?$basic_string@DU?$char_traits@D@std@@V?$allocator@D@2@@1@@Z
    ??$_Lower_bound_duplicate@V?$basic_string@DU?$char_traits@D@std@@V?$allocator@D@2@@std@@@?$_Tree@V?$_Tmap_traits@V?$basic_string@DU?$char_traits@D@std@@V?$allocator@D@2@@std@@PEAVPrefilter@re2@@U?$less@V?$basic_string@DU?$char_traits@D@std@@V?$allocator@D@2@@std@@@2@V?$allocator@U?$pair@$$CBV?$basic_string@DU?$char_traits@D@std@@V?$allocator@D@2@@std@@PEAVPrefilter@re2@@@std@@@2@$0A@@std@@@std@@IEBA_NQEAU?$_Tree_node@U?$pair@$$CBV?$basic_string@DU?$char_traits@D@std@@V?$allocator@D@2@@std@@PEAVPrefilter@re2@@@std@@PEAX@1@AEBV?$basic_string@DU?$char_traits@D@std@@V?$allocator@D@2@@1@@Z
    ??$_Lower_bound_duplicate@V?$basic_string@DU?$char_traits@D@std@@V?$allocator@D@2@@std@@@?$_Tree@V?$_Tset_traits@V?$basic_string@DU?$char_traits@D@std@@V?$allocator@D@2@@std@@U?$less@V?$basic_string@DU?$char_traits@D@std@@V?$allocator@D@2@@std@@@2@V?$allocator@V?$basic_string@DU?$char_traits@D@std@@V?$allocator@D@2@@std@@@2@$0A@@std@@@std@@IEBA_NQEAU?$_Tree_node@V?$basic_string@DU?$char_traits@D@std@@V?$allocator@D@2@@std@@PEAX@1@AEBV?$basic_string@DU?$char_traits@D@std@@V?$allocator@D@2@@1@@Z
    ??$_Make_heap_unchecked@PEAHU?$less@X@std@@@std@@YAXPEAH0U?$less@X@0@@Z
    ??$_Make_heap_unchecked@PEAVIndexValue@?$SparseArray@H@re2@@P6A_NAEBV123@0@Z@std@@YAXPEAVIndexValue@?$SparseArray@H@re2@@0P6A_NAEBV123@1@Z@Z
    ??$_Med3_unchecked@PEAHU?$less@X@std@@@std@@YAXPEAH00U?$less@X@0@@Z
    ??$_Med3_unchecked@PEAVIndexValue@?$SparseArray@H@re2@@P6A_NAEBV123@0@Z@std@@YAXPEAVIndexValue@?$SparseArray@H@re2@@00P6A_NAEBV123@1@Z@Z
    ??$_Move_backward_unchecked@PEAEPEAE@std@@YAPEAEPEAE00@Z
    ??$_Move_backward_unchecked@PEAHPEAH@std@@YAPEAHPEAH00@Z
    ??$_Move_backward_unchecked@PEAU?$pair@V?$basic_string@DU?$char_traits@D@std@@V?$allocator@D@2@@std@@PEAVRegexp@re2@@@std@@PEAU12@@std@@YAPEAU?$pair@V?$basic_string@DU?$char_traits@D@std@@V?$allocator@D@2@@std@@PEAVRegexp@re2@@@0@PEAU10@00@Z
    ??$_Move_backward_unchecked@PEAVIndexValue@?$SparseArray@H@re2@@PEAV123@@std@@YAPEAVIndexValue@?$SparseArray@H@re2@@PEAV123@00@Z
    ??$_Move_unchecked@PEAHPEAH@std@@YAPEAHPEAH00@Z
    ??$_Next_iter@PEAH@std@@YAPEAHPEAH@Z
    ??$_Next_iter@PEAU?$pair@V?$basic_string@DU?$char_traits@D@std@@V?$allocator@D@2@@std@@PEAVRegexp@re2@@@std@@@std@@YAPEAU?$pair@V?$basic_string@DU?$char_traits@D@std@@V?$allocator@D@2@@std@@PEAVRegexp@re2@@@0@PEAU10@@Z
    ??$_Next_iter@PEAVIndexValue@?$SparseArray@H@re2@@@std@@YAPEAVIndexValue@?$SparseArray@H@re2@@PEAV123@@Z
    ??$_Partition_by_median_guess_unchecked@PEAHU?$less@X@std@@@std@@YA?AU?$pair@PEAHPEAH@0@PEAH0U?$less@X@0@@Z
    ??$_Partition_by_median_guess_unchecked@PEAVIndexValue@?$SparseArray@H@re2@@P6A_NAEBV123@0@Z@std@@YA?AU?$pair@PEAVIndexValue@?$SparseArray@H@re2@@PEAV123@@0@PEAVIndexValue@?$SparseArray@H@re2@@0P6A_NAEBV234@1@Z@Z
    ??$_Pass_fn@P6A_NAEBVIndexValue@?$SparseArray@H@re2@@0@Z$0A@@std@@YAP6A_NAEBVIndexValue@?$SparseArray@H@re2@@0@ZP6A_N00@Z@Z
    ??$_Pass_fn@U?$equal_to@X@std@@$0A@@std@@YA?AU?$equal_to@X@0@U10@@Z
    ??$_Pass_fn@U?$less@X@std@@$0A@@std@@YA?AU?$less@X@0@U10@@Z
    ??$_Pocca@V?$allocator@D@std@@@std@@YAXAEAV?$allocator@D@0@AEBV10@@Z
    ??$_Pocma@V?$allocator@D@std@@@std@@YAXAEAV?$allocator@D@0@0@Z
    ??$_Pocs@V?$allocator@D@std@@@std@@YAXAEAV?$allocator@D@0@0@Z
    ??$_Pop_heap_hole_by_index@PEAHHU?$less@X@std@@@std@@YAXPEAH_J1$$QEAHU?$less@X@0@@Z
    ??$_Pop_heap_hole_by_index@PEAVIndexValue@?$SparseArray@H@re2@@V123@P6A_NAEBV123@0@Z@std@@YAXPEAVIndexValue@?$SparseArray@H@re2@@_J1$$QEAV123@P6A_NAEBV123@3@Z@Z
    ??$_Pop_heap_hole_unchecked@PEAHHU?$less@X@std@@@std@@YAXPEAH00$$QEAHU?$less@X@0@@Z
    ??$_Pop_heap_hole_unchecked@PEAVIndexValue@?$SparseArray@H@re2@@V123@P6A_NAEBV123@0@Z@std@@YAXPEAVIndexValue@?$SparseArray@H@re2@@00$$QEAV123@P6A_NAEBV123@2@Z@Z
    ??$_Pop_heap_unchecked@PEAHU?$less@X@std@@@std@@YAXPEAH0U?$less@X@0@@Z
    ??$_Pop_heap_unchecked@PEAVIndexValue@?$SparseArray@H@re2@@P6A_NAEBV123@0@Z@std@@YAXPEAVIndexValue@?$SparseArray@H@re2@@0P6A_NAEBV123@1@Z@Z
    ??$_Prev_iter@PEAH@std@@YAPEAHPEAH@Z
    ??$_Prev_iter@PEAU?$pair@V?$basic_string@DU?$char_traits@D@std@@V?$allocator@D@2@@std@@PEAVRegexp@re2@@@std@@@std@@YAPEAU?$pair@V?$basic_string@DU?$char_traits@D@std@@V?$allocator@D@2@@std@@PEAVRegexp@re2@@@0@PEAU10@@Z
    ??$_Prev_iter@PEAVIndexValue@?$SparseArray@H@re2@@@std@@YAPEAVIndexValue@?$SparseArray@H@re2@@PEAV123@@Z
    ??$_Push_heap_by_index@PEAHHU?$less@X@std@@@std@@YAXPEAH_J1$$QEAHU?$less@X@0@@Z
    ??$_Push_heap_by_index@PEAVIndexValue@?$SparseArray@H@re2@@V123@P6A_NAEBV123@0@Z@std@@YAXPEAVIndexValue@?$SparseArray@H@re2@@_J1$$QEAV123@P6A_NAEBV123@3@Z@Z
    ??$_Reallocate_for@V<lambda_66f57f934f28d61049862f64df852ff0>@@PEBD@?$basic_string@DU?$char_traits@D@std@@V?$allocator@D@2@@std@@AEAAAEAV01@_KV<lambda_66f57f934f28d61049862f64df852ff0>@@PEBD@Z
    ??$_Reallocate_grow_by@V<lambda_319d5e083f45f90dcdce5dce53cbb275>@@D@?$basic_string@DU?$char_traits@D@std@@V?$allocator@D@2@@std@@AEAAAEAV01@_KV<lambda_319d5e083f45f90dcdce5dce53cbb275>@@D@Z
    ??$_Reallocate_grow_by@V<lambda_65e615be2a453ca0576c979606f46740>@@PEBD_K@?$basic_string@DU?$char_traits@D@std@@V?$allocator@D@2@@std@@AEAAAEAV01@_KV<lambda_65e615be2a453ca0576c979606f46740>@@PEBD_K@Z
    ??$_Reallocate_grow_by@V<lambda_9013ee9e23efe4882b67eff5b0ecf103>@@$$V@?$basic_string@DU?$char_traits@D@std@@V?$allocator@D@2@@std@@AEAAAEAV01@_KV<lambda_9013ee9e23efe4882b67eff5b0ecf103>@@@Z
    ??$_Reallocate_grow_by@V<lambda_e1befb086ad3257e3f042a63030725f7>@@_KD@?$basic_string@DU?$char_traits@D@std@@V?$allocator@D@2@@std@@AEAAAEAV01@_KV<lambda_e1befb086ad3257e3f042a63030725f7>@@_KD@Z
    ??$_Refancy@PEAH$0A@@std@@YAPEAHPEAH@Z
    ??$_Refancy@PEAU?$pair@HH@std@@$0A@@std@@YAPEAU?$pair@HH@0@PEAU10@@Z
    ??$_Resize@U_Value_init_tag@std@@@?$vector@PEAVPrefilter@re2@@V?$allocator@PEAVPrefilter@re2@@@std@@@std@@AEAAX_KAEBU_Value_init_tag@1@@Z
    ??$_Resize@U_Value_init_tag@std@@@?$vector@PEAVRegexp@re2@@V?$allocator@PEAVRegexp@re2@@@std@@@std@@AEAAX_KAEBU_Value_init_tag@1@@Z
    ??$_Resize@U_Value_init_tag@std@@@?$vector@UEntry@PrefilterTree@re2@@V?$allocator@UEntry@PrefilterTree@re2@@@std@@@std@@AEAAX_KAEBU_Value_init_tag@1@@Z
    ??$_Resize_reallocate@U_Value_init_tag@std@@@?$vector@PEAVPrefilter@re2@@V?$allocator@PEAVPrefilter@re2@@@std@@@std@@AEAAX_KAEBU_Value_init_tag@1@@Z
    ??$_Resize_reallocate@U_Value_init_tag@std@@@?$vector@PEAVRegexp@re2@@V?$allocator@PEAVRegexp@re2@@@std@@@std@@AEAAX_KAEBU_Value_init_tag@1@@Z
    ??$_Resize_reallocate@U_Value_init_tag@std@@@?$vector@UEntry@PrefilterTree@re2@@V?$allocator@UEntry@PrefilterTree@re2@@@std@@@std@@AEAAX_KAEBU_Value_init_tag@1@@Z
    ??$_Seek_wrapped@PEAHAEAPEAH@std@@YAXAEAPEAH0@Z
    ??$_Seek_wrapped@PEAVIndexValue@?$SparseArray@H@re2@@AEAPEAV123@@std@@YAXAEAPEAVIndexValue@?$SparseArray@H@re2@@0@Z
    ??$_Seek_wrapped@PEAVIndexValue@?$SparseArray@PEAUThread@NFA@re2@@@re2@@AEAPEAV123@@std@@YAXAEAPEAVIndexValue@?$SparseArray@PEAUThread@NFA@re2@@@re2@@0@Z
    ??$_Seek_wrapped@PEBDAEAPEBD@std@@YAXAEAPEBD0@Z
    ??$_Seek_wrapped@PEBDPEBD@std@@YAXAEAPEBD$$QEAPEBD@Z
    ??$_Seek_wrapped@V?$_Vector_iterator@V?$_Vector_val@U?$_Simple_types@U?$pair@HH@std@@@std@@@std@@@std@@AEAPEAU?$pair@HH@2@@std@@YAXAEAV?$_Vector_iterator@V?$_Vector_val@U?$_Simple_types@U?$pair@HH@std@@@std@@@std@@@0@AEAPEAU?$pair@HH@0@@Z
    ??$_Sort_heap_unchecked@PEAHU?$less@X@std@@@std@@YAXPEAH0U?$less@X@0@@Z
    ??$_Sort_heap_unchecked@PEAVIndexValue@?$SparseArray@H@re2@@P6A_NAEBV123@0@Z@std@@YAXPEAVIndexValue@?$SparseArray@H@re2@@0P6A_NAEBV123@1@Z@Z
    ??$_Sort_unchecked@PEAHU?$less@X@std@@@std@@YAXPEAH0_JU?$less@X@0@@Z
    ??$_Sort_unchecked@PEAVIndexValue@?$SparseArray@H@re2@@P6A_NAEBV123@0@Z@std@@YAXPEAVIndexValue@?$SparseArray@H@re2@@0_JP6A_NAEBV123@2@Z@Z
    ??$_Swap_adl@PEAVRegexp@re2@@@std@@YAXAEAPEAVRegexp@re2@@0@Z
    ??$_Swap_adl@V?$basic_string@DU?$char_traits@D@std@@V?$allocator@D@2@@std@@@std@@YAXAEAV?$basic_string@DU?$char_traits@D@std@@V?$allocator@D@2@@0@0@Z
    ??$_Traits_compare@U?$char_traits@D@std@@@std@@YAHQEBD_K01@Z
    ??$_Traits_find@U?$char_traits@D@std@@@std@@YA_KQEBD_K101@Z
    ??$_Try_emplace@AEBH$$V@?$map@HHU?$less@H@std@@V?$allocator@U?$pair@$$CBHH@std@@@2@@std@@AEAA?AU?$pair@PEAU?$_Tree_node@U?$pair@$$CBHH@std@@PEAX@std@@_N@1@AEBH@Z
    ??$_Try_emplace@AEBQEAUState@DFA@re2@@$$V@?$_Hash@V?$_Umap_traits@PEAUState@DFA@re2@@HV?$_Uhash_compare@PEAUState@DFA@re2@@U?$hash@PEAUState@DFA@re2@@@std@@U?$equal_to@PEAUState@DFA@re2@@@5@@std@@V?$allocator@U?$pair@QEAUState@DFA@re2@@H@std@@@5@$0A@@std@@@std@@IEAA?AU?$pair@PEAU?$_List_node@U?$pair@QEAUState@DFA@re2@@H@std@@PEAX@std@@_N@1@AEBQEAUState@DFA@re2@@@Z
    ??$_Try_emplace@AEBV?$basic_string@DU?$char_traits@D@std@@V?$allocator@D@2@@std@@$$V@?$map@V?$basic_string@DU?$char_traits@D@std@@V?$allocator@D@2@@std@@HU?$less@V?$basic_string@DU?$char_traits@D@std@@V?$allocator@D@2@@std@@@2@V?$allocator@U?$pair@$$CBV?$basic_string@DU?$char_traits@D@std@@V?$allocator@D@2@@std@@H@std@@@2@@std@@AEAA?AU?$pair@PEAU?$_Tree_node@U?$pair@$$CBV?$basic_string@DU?$char_traits@D@std@@V?$allocator@D@2@@std@@H@std@@PEAX@std@@_N@1@AEBV?$basic_string@DU?$char_traits@D@std@@V?$allocator@D@2@@1@@Z
    ??$_Try_emplace@AEB_K$$V@?$_Hash@V?$_Umap_traits@_KHV?$_Uhash_compare@_KU?$hash@_K@std@@U?$equal_to@_K@2@@std@@V?$allocator@U?$pair@$$CB_KH@std@@@2@$0A@@std@@@std@@IEAA?AU?$pair@PEAU?$_List_node@U?$pair@$$CB_KH@std@@PEAX@std@@_N@1@AEB_K@Z
    ??$_Try_emplace@H$$V@?$map@HHU?$less@H@std@@V?$allocator@U?$pair@$$CBHH@std@@@2@@std@@AEAA?AU?$pair@PEAU?$_Tree_node@U?$pair@$$CBHH@std@@PEAX@std@@_N@1@$$QEAH@Z
    ??$_Try_emplace@H$$V@?$map@HV?$basic_string@DU?$char_traits@D@std@@V?$allocator@D@2@@std@@U?$less@H@2@V?$allocator@U?$pair@$$CBHV?$basic_string@DU?$char_traits@D@std@@V?$allocator@D@2@@std@@@std@@@2@@std@@AEAA?AU?$pair@PEAU?$_Tree_node@U?$pair@$$CBHV?$basic_string@DU?$char_traits@D@std@@V?$allocator@D@2@@std@@@std@@PEAX@std@@_N@1@$$QEAH@Z
    ??$_Try_emplace@PEAVRegexp@re2@@$$V@?$map@PEAVRegexp@re2@@HU?$less@PEAVRegexp@re2@@@std@@V?$allocator@U?$pair@QEAVRegexp@re2@@H@std@@@4@@std@@AEAA?AU?$pair@PEAU?$_Tree_node@U?$pair@QEAVRegexp@re2@@H@std@@PEAX@std@@_N@1@$$QEAPEAVRegexp@re2@@@Z
    ??$_Ucopy@PEBH@?$vector@HV?$allocator@H@std@@@std@@AEAAPEAHPEBH0PEAH@Z
    ??$_Unfancy@D@std@@YAPEADPEAD@Z
    ??$_Unfancy@E@std@@YAPEAEPEAE@Z
    ??$_Unfancy@H@std@@YAPEAHPEAH@Z
    ??$_Unfancy@PEAUState@DFA@re2@@@std@@YAPEAPEAUState@DFA@re2@@PEAPEAU123@@Z
    ??$_Unfancy@PEAVPrefilter@re2@@@std@@YAPEAPEAVPrefilter@re2@@PEAPEAV12@@Z
    ??$_Unfancy@PEAVRE2@re2@@@std@@YAPEAPEAVRE2@re2@@PEAPEAV12@@Z
    ??$_Unfancy@PEAVRegexp@re2@@@std@@YAPEAPEAVRegexp@re2@@PEAPEAV12@@Z
    ??$_Unfancy@U?$WalkState@H@re2@@@std@@YAPEAU?$WalkState@H@re2@@PEAU12@@Z
    ??$_Unfancy@U?$WalkState@PEAVInfo@Prefilter@re2@@@re2@@@std@@YAPEAU?$WalkState@PEAVInfo@Prefilter@re2@@@re2@@PEAU12@@Z
    ??$_Unfancy@U?$WalkState@PEAVRegexp@re2@@@re2@@@std@@YAPEAU?$WalkState@PEAVRegexp@re2@@@re2@@PEAU12@@Z
    ??$_Unfancy@U?$WalkState@UFrag@re2@@@re2@@@std@@YAPEAU?$WalkState@UFrag@re2@@@re2@@PEAU12@@Z
    ??$_Unfancy@U?$WalkState@_N@re2@@@std@@YAPEAU?$WalkState@_N@re2@@PEAU12@@Z
    ??$_Unfancy@U?$pair@HH@std@@@std@@YAPEAU?$pair@HH@0@PEAU10@@Z
    ??$_Unfancy@U?$pair@V?$basic_string@DU?$char_traits@D@std@@V?$allocator@D@2@@std@@PEAVRegexp@re2@@@std@@@std@@YAPEAU?$pair@V?$basic_string@DU?$char_traits@D@std@@V?$allocator@D@2@@std@@PEAVRegexp@re2@@@0@PEAU10@@Z
    ??$_Unfancy@UEntry@PrefilterTree@re2@@@std@@YAPEAUEntry@PrefilterTree@re2@@PEAU123@@Z
    ??$_Unfancy@UFrame@re2@@@std@@YAPEAUFrame@re2@@PEAU12@@Z
    ??$_Unfancy@URuneRange@re2@@@std@@YAPEAURuneRange@re2@@PEAU12@@Z
    ??$_Unfancy@USplice@re2@@@std@@YAPEAUSplice@re2@@PEAU12@@Z
    ??$_Unfancy@UThread@NFA@re2@@@std@@YAPEAUThread@NFA@re2@@PEAU123@@Z
    ??$_Unfancy@U_Container_proxy@std@@@std@@YAPEAU_Container_proxy@0@PEAU10@@Z
    ??$_Unfancy@V?$basic_string@DU?$char_traits@D@std@@V?$allocator@D@2@@std@@@std@@YAPEAV?$basic_string@DU?$char_traits@D@std@@V?$allocator@D@2@@0@PEAV10@@Z
    ??$_Unfancy@V?$vector@HV?$allocator@H@std@@@std@@@std@@YAPEAV?$vector@HV?$allocator@H@std@@@0@PEAV10@@Z
    ??$_Unfancy@VInst@Prog@re2@@@std@@YAPEAVInst@Prog@re2@@PEAV123@@Z
    ??$_Unfancy_maybe_null@E@std@@YAPEAEPEAE@Z
    ??$_Unfancy_maybe_null@H@std@@YAPEAHPEAH@Z
    ??$_Unfancy_maybe_null@VInst@Prog@re2@@@std@@YAPEAVInst@Prog@re2@@PEAV123@@Z
    ??$_Uninitialized_copy@PEBHV?$allocator@H@std@@@std@@YAPEAHQEBH0PEAHAEAV?$allocator@H@0@@Z
    ??$_Uninitialized_fill_n@V?$allocator@E@std@@@std@@YAPEAEPEAE_KAEBEAEAV?$allocator@E@0@@Z
    ??$_Uninitialized_move@PEAEV?$allocator@E@std@@@std@@YAPEAEQEAE0PEAEAEAV?$allocator@E@0@@Z
    ??$_Uninitialized_move@PEAHV?$allocator@H@std@@@std@@YAPEAHQEAH0PEAHAEAV?$allocator@H@0@@Z
    ??$_Uninitialized_move@PEAPEAVPrefilter@re2@@V?$allocator@PEAVPrefilter@re2@@@std@@@std@@YAPEAPEAVPrefilter@re2@@QEAPEAV12@0PEAPEAV12@AEAV?$allocator@PEAVPrefilter@re2@@@0@@Z
    ??$_Uninitialized_move@PEAPEAVRE2@re2@@V?$allocator@PEAVRE2@re2@@@std@@@std@@YAPEAPEAVRE2@re2@@QEAPEAV12@0PEAPEAV12@AEAV?$allocator@PEAVRE2@re2@@@0@@Z
    ??$_Uninitialized_move@PEAPEAVRegexp@re2@@V?$allocator@PEAVRegexp@re2@@@std@@@std@@YAPEAPEAVRegexp@re2@@QEAPEAV12@0PEAPEAV12@AEAV?$allocator@PEAVRegexp@re2@@@0@@Z
    ??$_Uninitialized_move@PEAU?$pair@HH@std@@V?$allocator@U?$pair@HH@std@@@2@@std@@YAPEAU?$pair@HH@0@QEAU10@0PEAU10@AEAV?$allocator@U?$pair@HH@std@@@0@@Z
    ??$_Uninitialized_move@PEAU?$pair@V?$basic_string@DU?$char_traits@D@std@@V?$allocator@D@2@@std@@PEAVRegexp@re2@@@std@@V?$allocator@U?$pair@V?$basic_string@DU?$char_traits@D@std@@V?$allocator@D@2@@std@@PEAVRegexp@re2@@@std@@@2@@std@@YAPEAU?$pair@V?$basic_string@DU?$char_traits@D@std@@V?$allocator@D@2@@std@@PEAVRegexp@re2@@@0@QEAU10@0PEAU10@AEAV?$allocator@U?$pair@V?$basic_string@DU?$char_traits@D@std@@V?$allocator@D@2@@std@@PEAVRegexp@re2@@@std@@@0@@Z
    ??$_Uninitialized_move@PEAUEntry@PrefilterTree@re2@@V?$allocator@UEntry@PrefilterTree@re2@@@std@@@std@@YAPEAUEntry@PrefilterTree@re2@@QEAU123@0PEAU123@AEAV?$allocator@UEntry@PrefilterTree@re2@@@0@@Z
    ??$_Uninitialized_move@PEAUFrame@re2@@V?$allocator@UFrame@re2@@@std@@@std@@YAPEAUFrame@re2@@QEAU12@0PEAU12@AEAV?$allocator@UFrame@re2@@@0@@Z
    ??$_Uninitialized_move@PEAURuneRange@re2@@V?$allocator@URuneRange@re2@@@std@@@std@@YAPEAURuneRange@re2@@QEAU12@0PEAU12@AEAV?$allocator@URuneRange@re2@@@0@@Z
    ??$_Uninitialized_move@PEAUSplice@re2@@V?$allocator@USplice@re2@@@std@@@std@@YAPEAUSplice@re2@@QEAU12@0PEAU12@AEAV?$allocator@USplice@re2@@@0@@Z
    ??$_Uninitialized_move@PEAV?$basic_string@DU?$char_traits@D@std@@V?$allocator@D@2@@std@@V?$allocator@V?$basic_string@DU?$char_traits@D@std@@V?$allocator@D@2@@std@@@2@@std@@YAPEAV?$basic_string@DU?$char_traits@D@std@@V?$allocator@D@2@@0@QEAV10@0PEAV10@AEAV?$allocator@V?$basic_string@DU?$char_traits@D@std@@V?$allocator@D@2@@std@@@0@@Z
    ??$_Uninitialized_move@PEAV?$vector@HV?$allocator@H@std@@@std@@V?$allocator@V?$vector@HV?$allocator@H@std@@@std@@@2@@std@@YAPEAV?$vector@HV?$allocator@H@std@@@0@QEAV10@0PEAV10@AEAV?$allocator@V?$vector@HV?$allocator@H@std@@@std@@@0@@Z
    ??$_Uninitialized_move@PEAVInst@Prog@re2@@V?$allocator@VInst@Prog@re2@@@std@@@std@@YAPEAVInst@Prog@re2@@QEAV123@0PEAV123@AEAV?$allocator@VInst@Prog@re2@@@0@@Z
    ??$_Uninitialized_value_construct_n@V?$allocator@H@std@@@std@@YAPEAHPEAH_KAEAV?$allocator@H@0@@Z
    ??$_Uninitialized_value_construct_n@V?$allocator@PEAVPrefilter@re2@@@std@@@std@@YAPEAPEAVPrefilter@re2@@PEAPEAV12@_KAEAV?$allocator@PEAVPrefilter@re2@@@0@@Z
    ??$_Uninitialized_value_construct_n@V?$allocator@PEAVRegexp@re2@@@std@@@std@@YAPEAPEAVRegexp@re2@@PEAPEAV12@_KAEAV?$allocator@PEAVRegexp@re2@@@0@@Z
    ??$_Uninitialized_value_construct_n@V?$allocator@UEntry@PrefilterTree@re2@@@std@@@std@@YAPEAUEntry@PrefilterTree@re2@@PEAU123@_KAEAV?$allocator@UEntry@PrefilterTree@re2@@@0@@Z
    ??$_Uninitialized_value_construct_n_unchecked1@PEAPEAPEAUState@DFA@re2@@_K@std@@YAPEAPEAPEAUState@DFA@re2@@PEAPEAPEAU123@_K@Z
    ??$_Uninitialized_value_construct_n_unchecked1@PEAPEAU?$WalkState@H@re2@@_K@std@@YAPEAPEAU?$WalkState@H@re2@@PEAPEAU12@_K@Z
    ??$_Uninitialized_value_construct_n_unchecked1@PEAPEAU?$WalkState@PEAVInfo@Prefilter@re2@@@re2@@_K@std@@YAPEAPEAU?$WalkState@PEAVInfo@Prefilter@re2@@@re2@@PEAPEAU12@_K@Z
    ??$_Uninitialized_value_construct_n_unchecked1@PEAPEAU?$WalkState@PEAVRegexp@re2@@@re2@@_K@std@@YAPEAPEAU?$WalkState@PEAVRegexp@re2@@@re2@@PEAPEAU12@_K@Z
    ??$_Uninitialized_value_construct_n_unchecked1@PEAPEAU?$WalkState@UFrag@re2@@@re2@@_K@std@@YAPEAPEAU?$WalkState@UFrag@re2@@@re2@@PEAPEAU12@_K@Z
    ??$_Uninitialized_value_construct_n_unchecked1@PEAPEAU?$WalkState@_N@re2@@_K@std@@YAPEAPEAU?$WalkState@_N@re2@@PEAPEAU12@_K@Z
    ??$_Uninitialized_value_construct_n_unchecked1@PEAPEAUThread@NFA@re2@@_K@std@@YAPEAPEAUThread@NFA@re2@@PEAPEAU123@_K@Z
    ??$_Zero_range@PEAH@std@@YAPEAHQEAH0@Z
    ??$_Zero_range@PEAPEAPEAUState@DFA@re2@@@std@@YAPEAPEAPEAUState@DFA@re2@@QEAPEAPEAU123@0@Z
    ??$_Zero_range@PEAPEAU?$WalkState@H@re2@@@std@@YAPEAPEAU?$WalkState@H@re2@@QEAPEAU12@0@Z
    ??$_Zero_range@PEAPEAU?$WalkState@PEAVInfo@Prefilter@re2@@@re2@@@std@@YAPEAPEAU?$WalkState@PEAVInfo@Prefilter@re2@@@re2@@QEAPEAU12@0@Z
    ??$_Zero_range@PEAPEAU?$WalkState@PEAVRegexp@re2@@@re2@@@std@@YAPEAPEAU?$WalkState@PEAVRegexp@re2@@@re2@@QEAPEAU12@0@Z
    ??$_Zero_range@PEAPEAU?$WalkState@UFrag@re2@@@re2@@@std@@YAPEAPEAU?$WalkState@UFrag@re2@@@re2@@QEAPEAU12@0@Z
    ??$_Zero_range@PEAPEAU?$WalkState@_N@re2@@@std@@YAPEAPEAU?$WalkState@_N@re2@@QEAPEAU12@0@Z
    ??$_Zero_range@PEAPEAUThread@NFA@re2@@@std@@YAPEAPEAUThread@NFA@re2@@QEAPEAU123@0@Z
    ??$_Zero_range@PEAPEAVPrefilter@re2@@@std@@YAPEAPEAVPrefilter@re2@@QEAPEAV12@0@Z
    ??$_Zero_range@PEAPEAVRegexp@re2@@@std@@YAPEAPEAVRegexp@re2@@QEAPEAV12@0@Z
    ??$addressof@$$CBU?$pair@$$CB_KH@std@@@std@@YAPEBU?$pair@$$CB_KH@0@AEBU10@@Z
    ??$addressof@$$CBURuneRange@re2@@@std@@YAPEBURuneRange@re2@@AEBU12@@Z
    ??$addressof@$$CBV?$_List_val@U?$_List_simple_types@PEAUState@DFA@re2@@@std@@@std@@@std@@YAPEBV?$_List_val@U?$_List_simple_types@PEAUState@DFA@re2@@@std@@@0@AEBV10@@Z
    ??$addressof@$$CBV?$_List_val@U?$_List_simple_types@U?$pair@$$CB_KH@std@@@std@@@std@@@std@@YAPEBV?$_List_val@U?$_List_simple_types@U?$pair@$$CB_KH@std@@@std@@@0@AEBV10@@Z
    ??$addressof@$$CBV?$_List_val@U?$_List_simple_types@U?$pair@QEAUState@DFA@re2@@H@std@@@std@@@std@@@std@@YAPEBV?$_List_val@U?$_List_simple_types@U?$pair@QEAUState@DFA@re2@@H@std@@@std@@@0@AEBV10@@Z
    ??$addressof@$$CBV?$_String_val@U?$_Simple_types@D@std@@@std@@@std@@YAPEBV?$_String_val@U?$_Simple_types@D@std@@@0@AEBV10@@Z
    ??$addressof@$$CBV?$_Tree_val@U?$_Tree_simple_types@H@std@@@std@@@std@@YAPEBV?$_Tree_val@U?$_Tree_simple_types@H@std@@@0@AEBV10@@Z
    ??$addressof@$$CBV?$_Tree_val@U?$_Tree_simple_types@U?$pair@$$CBHH@std@@@std@@@std@@@std@@YAPEBV?$_Tree_val@U?$_Tree_simple_types@U?$pair@$$CBHH@std@@@std@@@0@AEBV10@@Z
    ??$addressof@$$CBV?$_Tree_val@U?$_Tree_simple_types@U?$pair@$$CBHV?$basic_string@DU?$char_traits@D@std@@V?$allocator@D@2@@std@@@std@@@std@@@std@@@std@@YAPEBV?$_Tree_val@U?$_Tree_simple_types@U?$pair@$$CBHV?$basic_string@DU?$char_traits@D@std@@V?$allocator@D@2@@std@@@std@@@std@@@0@AEBV10@@Z
    ??$addressof@$$CBV?$_Tree_val@U?$_Tree_simple_types@U?$pair@$$CBV?$basic_string@DU?$char_traits@D@std@@V?$allocator@D@2@@std@@H@std@@@std@@@std@@@std@@YAPEBV?$_Tree_val@U?$_Tree_simple_types@U?$pair@$$CBV?$basic_string@DU?$char_traits@D@std@@V?$allocator@D@2@@std@@H@std@@@std@@@0@AEBV10@@Z
    ??$addressof@$$CBV?$_Tree_val@U?$_Tree_simple_types@U?$pair@$$CBV?$basic_string@DU?$char_traits@D@std@@V?$allocator@D@2@@std@@PEAVPrefilter@re2@@@std@@@std@@@std@@@std@@YAPEBV?$_Tree_val@U?$_Tree_simple_types@U?$pair@$$CBV?$basic_string@DU?$char_traits@D@std@@V?$allocator@D@2@@std@@PEAVPrefilter@re2@@@std@@@std@@@0@AEBV10@@Z
    ??$addressof@$$CBV?$_Tree_val@U?$_Tree_simple_types@U?$pair@QEAVRegexp@re2@@H@std@@@std@@@std@@@std@@YAPEBV?$_Tree_val@U?$_Tree_simple_types@U?$pair@QEAVRegexp@re2@@H@std@@@std@@@0@AEBV10@@Z
    ??$addressof@$$CBV?$_Tree_val@U?$_Tree_simple_types@URuneRange@re2@@@std@@@std@@@std@@YAPEBV?$_Tree_val@U?$_Tree_simple_types@URuneRange@re2@@@std@@@0@AEBV10@@Z
    ??$addressof@$$CBV?$_Tree_val@U?$_Tree_simple_types@V?$basic_string@DU?$char_traits@D@std@@V?$allocator@D@2@@std@@@std@@@std@@@std@@YAPEBV?$_Tree_val@U?$_Tree_simple_types@V?$basic_string@DU?$char_traits@D@std@@V?$allocator@D@2@@std@@@std@@@0@AEBV10@@Z
    ??$addressof@$$CBV?$_Vector_val@U?$_Simple_types@H@std@@@std@@@std@@YAPEBV?$_Vector_val@U?$_Simple_types@H@std@@@0@AEBV10@@Z
    ??$addressof@$$CBV?$basic_string@DU?$char_traits@D@std@@V?$allocator@D@2@@std@@@std@@YAPEBV?$basic_string@DU?$char_traits@D@std@@V?$allocator@D@2@@0@AEBV10@@Z
    ??$addressof@D@std@@YAPEADAEAD@Z
    ??$addressof@E@std@@YAPEAEAEAE@Z
    ??$addressof@H@std@@YAPEAHAEAH@Z
    ??$addressof@PEAD@std@@YAPEAPEADAEAPEAD@Z
    ??$addressof@PEAU?$_List_node@PEAUState@DFA@re2@@PEAX@std@@@std@@YAPEAPEAU?$_List_node@PEAUState@DFA@re2@@PEAX@0@AEAPEAU10@@Z
    ??$addressof@PEAU?$_List_node@U?$pair@$$CB_KH@std@@PEAX@std@@@std@@YAPEAPEAU?$_List_node@U?$pair@$$CB_KH@std@@PEAX@0@AEAPEAU10@@Z
    ??$addressof@PEAU?$_List_node@U?$pair@QEAUState@DFA@re2@@H@std@@PEAX@std@@@std@@YAPEAPEAU?$_List_node@U?$pair@QEAUState@DFA@re2@@H@std@@PEAX@0@AEAPEAU10@@Z
    ??$addressof@PEAU?$_Tree_node@HPEAX@std@@@std@@YAPEAPEAU?$_Tree_node@HPEAX@0@AEAPEAU10@@Z
    ??$addressof@PEAU?$_Tree_node@U?$pair@$$CBHH@std@@PEAX@std@@@std@@YAPEAPEAU?$_Tree_node@U?$pair@$$CBHH@std@@PEAX@0@AEAPEAU10@@Z
    ??$addressof@PEAU?$_Tree_node@U?$pair@$$CBHV?$basic_string@DU?$char_traits@D@std@@V?$allocator@D@2@@std@@@std@@PEAX@std@@@std@@YAPEAPEAU?$_Tree_node@U?$pair@$$CBHV?$basic_string@DU?$char_traits@D@std@@V?$allocator@D@2@@std@@@std@@PEAX@0@AEAPEAU10@@Z
    ??$addressof@PEAU?$_Tree_node@U?$pair@$$CBV?$basic_string@DU?$char_traits@D@std@@V?$allocator@D@2@@std@@H@std@@PEAX@std@@@std@@YAPEAPEAU?$_Tree_node@U?$pair@$$CBV?$basic_string@DU?$char_traits@D@std@@V?$allocator@D@2@@std@@H@std@@PEAX@0@AEAPEAU10@@Z
    ??$addressof@PEAU?$_Tree_node@U?$pair@$$CBV?$basic_string@DU?$char_traits@D@std@@V?$allocator@D@2@@std@@PEAVPrefilter@re2@@@std@@PEAX@std@@@std@@YAPEAPEAU?$_Tree_node@U?$pair@$$CBV?$basic_string@DU?$char_traits@D@std@@V?$allocator@D@2@@std@@PEAVPrefilter@re2@@@std@@PEAX@0@AEAPEAU10@@Z
    ??$addressof@PEAU?$_Tree_node@U?$pair@QEAVRegexp@re2@@H@std@@PEAX@std@@@std@@YAPEAPEAU?$_Tree_node@U?$pair@QEAVRegexp@re2@@H@std@@PEAX@0@AEAPEAU10@@Z
    ??$addressof@PEAU?$_Tree_node@URuneRange@re2@@PEAX@std@@@std@@YAPEAPEAU?$_Tree_node@URuneRange@re2@@PEAX@0@AEAPEAU10@@Z
    ??$addressof@PEAU?$_Tree_node@V?$basic_string@DU?$char_traits@D@std@@V?$allocator@D@2@@std@@PEAX@std@@@std@@YAPEAPEAU?$_Tree_node@V?$basic_string@DU?$char_traits@D@std@@V?$allocator@D@2@@std@@PEAX@0@AEAPEAU10@@Z
    ??$addressof@PEAUState@DFA@re2@@@std@@YAPEAPEAUState@DFA@re2@@AEAPEAU123@@Z
    ??$addressof@U?$pair@$$CBHH@std@@@std@@YAPEAU?$pair@$$CBHH@0@AEAU10@@Z
    ??$addressof@U?$pair@$$CBHV?$basic_string@DU?$char_traits@D@std@@V?$allocator@D@2@@std@@@std@@@std@@YAPEAU?$pair@$$CBHV?$basic_string@DU?$char_traits@D@std@@V?$allocator@D@2@@std@@@0@AEAU10@@Z
    ??$addressof@U?$pair@$$CBV?$basic_string@DU?$char_traits@D@std@@V?$allocator@D@2@@std@@H@std@@@std@@YAPEAU?$pair@$$CBV?$basic_string@DU?$char_traits@D@std@@V?$allocator@D@2@@std@@H@0@AEAU10@@Z
    ??$addressof@U?$pair@$$CBV?$basic_string@DU?$char_traits@D@std@@V?$allocator@D@2@@std@@PEAVPrefilter@re2@@@std@@@std@@YAPEAU?$pair@$$CBV?$basic_string@DU?$char_traits@D@std@@V?$allocator@D@2@@std@@PEAVPrefilter@re2@@@0@AEAU10@@Z
    ??$addressof@U?$pair@$$CB_KH@std@@@std@@YAPEAU?$pair@$$CB_KH@0@AEAU10@@Z
    ??$addressof@U?$pair@QEAUState@DFA@re2@@H@std@@@std@@YAPEAU?$pair@QEAUState@DFA@re2@@H@0@AEAU10@@Z
    ??$addressof@U?$pair@QEAVRegexp@re2@@H@std@@@std@@YAPEAU?$pair@QEAVRegexp@re2@@H@0@AEAU10@@Z
    ??$addressof@U?$pair@V?$basic_string@DU?$char_traits@D@std@@V?$allocator@D@2@@std@@PEAVRegexp@re2@@@std@@@std@@YAPEAU?$pair@V?$basic_string@DU?$char_traits@D@std@@V?$allocator@D@2@@std@@PEAVRegexp@re2@@@0@AEAU10@@Z
    ??$addressof@URuneRange@re2@@@std@@YAPEAURuneRange@re2@@AEAU12@@Z
    ??$addressof@U_Container_proxy@std@@@std@@YAPEAU_Container_proxy@0@AEAU10@@Z
    ??$addressof@V?$_Deque_val@U?$_Deque_simple_types@PEAUState@DFA@re2@@@std@@@std@@@std@@YAPEAV?$_Deque_val@U?$_Deque_simple_types@PEAUState@DFA@re2@@@std@@@0@AEAV10@@Z
    ??$addressof@V?$_Deque_val@U?$_Deque_simple_types@U?$WalkState@H@re2@@@std@@@std@@@std@@YAPEAV?$_Deque_val@U?$_Deque_simple_types@U?$WalkState@H@re2@@@std@@@0@AEAV10@@Z
    ??$addressof@V?$_Deque_val@U?$_Deque_simple_types@U?$WalkState@PEAVInfo@Prefilter@re2@@@re2@@@std@@@std@@@std@@YAPEAV?$_Deque_val@U?$_Deque_simple_types@U?$WalkState@PEAVInfo@Prefilter@re2@@@re2@@@std@@@0@AEAV10@@Z
    ??$addressof@V?$_Deque_val@U?$_Deque_simple_types@U?$WalkState@PEAVRegexp@re2@@@re2@@@std@@@std@@@std@@YAPEAV?$_Deque_val@U?$_Deque_simple_types@U?$WalkState@PEAVRegexp@re2@@@re2@@@std@@@0@AEAV10@@Z
    ??$addressof@V?$_Deque_val@U?$_Deque_simple_types@U?$WalkState@UFrag@re2@@@re2@@@std@@@std@@@std@@YAPEAV?$_Deque_val@U?$_Deque_simple_types@U?$WalkState@UFrag@re2@@@re2@@@std@@@0@AEAV10@@Z
    ??$addressof@V?$_Deque_val@U?$_Deque_simple_types@U?$WalkState@_N@re2@@@std@@@std@@@std@@YAPEAV?$_Deque_val@U?$_Deque_simple_types@U?$WalkState@_N@re2@@@std@@@0@AEAV10@@Z
    ??$addressof@V?$_Deque_val@U?$_Deque_simple_types@UThread@NFA@re2@@@std@@@std@@@std@@YAPEAV?$_Deque_val@U?$_Deque_simple_types@UThread@NFA@re2@@@std@@@0@AEAV10@@Z
    ??$addressof@V?$_List_unchecked_const_iterator@V?$_List_val@U?$_List_simple_types@PEAUState@DFA@re2@@@std@@@std@@U_Iterator_base0@2@@std@@@std@@YAPEAV?$_List_unchecked_const_iterator@V?$_List_val@U?$_List_simple_types@PEAUState@DFA@re2@@@std@@@std@@U_Iterator_base0@2@@0@AEAV10@@Z
    ??$addressof@V?$_List_unchecked_iterator@V?$_List_val@U?$_List_simple_types@U?$pair@$$CB_KH@std@@@std@@@std@@@std@@@std@@YAPEAV?$_List_unchecked_iterator@V?$_List_val@U?$_List_simple_types@U?$pair@$$CB_KH@std@@@std@@@std@@@0@AEAV10@@Z
    ??$addressof@V?$_List_unchecked_iterator@V?$_List_val@U?$_List_simple_types@U?$pair@QEAUState@DFA@re2@@H@std@@@std@@@std@@@std@@@std@@YAPEAV?$_List_unchecked_iterator@V?$_List_val@U?$_List_simple_types@U?$pair@QEAUState@DFA@re2@@H@std@@@std@@@std@@@0@AEAV10@@Z
    ??$addressof@V?$_List_val@U?$_List_simple_types@PEAUState@DFA@re2@@@std@@@std@@@std@@YAPEAV?$_List_val@U?$_List_simple_types@PEAUState@DFA@re2@@@std@@@0@AEAV10@@Z
    ??$addressof@V?$_List_val@U?$_List_simple_types@U?$pair@$$CB_KH@std@@@std@@@std@@@std@@YAPEAV?$_List_val@U?$_List_simple_types@U?$pair@$$CB_KH@std@@@std@@@0@AEAV10@@Z
    ??$addressof@V?$_List_val@U?$_List_simple_types@U?$pair@QEAUState@DFA@re2@@H@std@@@std@@@std@@@std@@YAPEAV?$_List_val@U?$_List_simple_types@U?$pair@QEAUState@DFA@re2@@H@std@@@std@@@0@AEAV10@@Z
    ??$addressof@V?$_String_val@U?$_Simple_types@D@std@@@std@@@std@@YAPEAV?$_String_val@U?$_Simple_types@D@std@@@0@AEAV10@@Z
    ??$addressof@V?$_Tree_val@U?$_Tree_simple_types@H@std@@@std@@@std@@YAPEAV?$_Tree_val@U?$_Tree_simple_types@H@std@@@0@AEAV10@@Z
    ??$addressof@V?$_Tree_val@U?$_Tree_simple_types@U?$pair@$$CBHH@std@@@std@@@std@@@std@@YAPEAV?$_Tree_val@U?$_Tree_simple_types@U?$pair@$$CBHH@std@@@std@@@0@AEAV10@@Z
    ??$addressof@V?$_Tree_val@U?$_Tree_simple_types@U?$pair@$$CBHV?$basic_string@DU?$char_traits@D@std@@V?$allocator@D@2@@std@@@std@@@std@@@std@@@std@@YAPEAV?$_Tree_val@U?$_Tree_simple_types@U?$pair@$$CBHV?$basic_string@DU?$char_traits@D@std@@V?$allocator@D@2@@std@@@std@@@std@@@0@AEAV10@@Z
    ??$addressof@V?$_Tree_val@U?$_Tree_simple_types@U?$pair@$$CBV?$basic_string@DU?$char_traits@D@std@@V?$allocator@D@2@@std@@H@std@@@std@@@std@@@std@@YAPEAV?$_Tree_val@U?$_Tree_simple_types@U?$pair@$$CBV?$basic_string@DU?$char_traits@D@std@@V?$allocator@D@2@@std@@H@std@@@std@@@0@AEAV10@@Z
    ??$addressof@V?$_Tree_val@U?$_Tree_simple_types@U?$pair@$$CBV?$basic_string@DU?$char_traits@D@std@@V?$allocator@D@2@@std@@PEAVPrefilter@re2@@@std@@@std@@@std@@@std@@YAPEAV?$_Tree_val@U?$_Tree_simple_types@U?$pair@$$CBV?$basic_string@DU?$char_traits@D@std@@V?$allocator@D@2@@std@@PEAVPrefilter@re2@@@std@@@std@@@0@AEAV10@@Z
    ??$addressof@V?$_Tree_val@U?$_Tree_simple_types@U?$pair@QEAVRegexp@re2@@H@std@@@std@@@std@@@std@@YAPEAV?$_Tree_val@U?$_Tree_simple_types@U?$pair@QEAVRegexp@re2@@H@std@@@std@@@0@AEAV10@@Z
    ??$addressof@V?$_Tree_val@U?$_Tree_simple_types@URuneRange@re2@@@std@@@std@@@std@@YAPEAV?$_Tree_val@U?$_Tree_simple_types@URuneRange@re2@@@std@@@0@AEAV10@@Z
    ??$addressof@V?$_Tree_val@U?$_Tree_simple_types@V?$basic_string@DU?$char_traits@D@std@@V?$allocator@D@2@@std@@@std@@@std@@@std@@YAPEAV?$_Tree_val@U?$_Tree_simple_types@V?$basic_string@DU?$char_traits@D@std@@V?$allocator@D@2@@std@@@std@@@0@AEAV10@@Z
    ??$addressof@V?$_Vector_val@U?$_Simple_types@E@std@@@std@@@std@@YAPEAV?$_Vector_val@U?$_Simple_types@E@std@@@0@AEAV10@@Z
    ??$addressof@V?$_Vector_val@U?$_Simple_types@H@std@@@std@@@std@@YAPEAV?$_Vector_val@U?$_Simple_types@H@std@@@0@AEAV10@@Z
    ??$addressof@V?$_Vector_val@U?$_Simple_types@U?$pair@HH@std@@@std@@@std@@@std@@YAPEAV?$_Vector_val@U?$_Simple_types@U?$pair@HH@std@@@std@@@0@AEAV10@@Z
    ??$addressof@V?$_Vector_val@U?$_Simple_types@U?$pair@V?$basic_string@DU?$char_traits@D@std@@V?$allocator@D@2@@std@@PEAVRegexp@re2@@@std@@@std@@@std@@@std@@YAPEAV?$_Vector_val@U?$_Simple_types@U?$pair@V?$basic_string@DU?$char_traits@D@std@@V?$allocator@D@2@@std@@PEAVRegexp@re2@@@std@@@std@@@0@AEAV10@@Z
    ??$addressof@V?$_Vector_val@U?$_Simple_types@USplice@re2@@@std@@@std@@@std@@YAPEAV?$_Vector_val@U?$_Simple_types@USplice@re2@@@std@@@0@AEAV10@@Z
    ??$addressof@V?$basic_string@DU?$char_traits@D@std@@V?$allocator@D@2@@std@@@std@@YAPEAV?$basic_string@DU?$char_traits@D@std@@V?$allocator@D@2@@0@AEAV10@@Z
    ??$addressof@V?$basic_stringbuf@DU?$char_traits@D@std@@V?$allocator@D@2@@std@@@std@@YAPEAV?$basic_stringbuf@DU?$char_traits@D@std@@V?$allocator@D@2@@0@AEAV10@@Z
    ??$addressof@V?$unique_ptr@$$BY0A@EUDeleter@?$PODArray@E@re2@@@std@@@std@@YAPEAV?$unique_ptr@$$BY0A@EUDeleter@?$PODArray@E@re2@@@0@AEAV10@@Z
    ??$addressof@V?$unique_ptr@$$BY0A@GUDeleter@?$PODArray@G@re2@@@std@@@std@@YAPEAV?$unique_ptr@$$BY0A@GUDeleter@?$PODArray@G@re2@@@0@AEAV10@@Z
    ??$addressof@V?$unique_ptr@$$BY0A@HUDeleter@?$PODArray@H@re2@@@std@@@std@@YAPEAV?$unique_ptr@$$BY0A@HUDeleter@?$PODArray@H@re2@@@0@AEAV10@@Z
    ??$addressof@V?$unique_ptr@$$BY0A@PEAVRegexp@re2@@UDeleter@?$PODArray@PEAVRegexp@re2@@@2@@std@@@std@@YAPEAV?$unique_ptr@$$BY0A@PEAVRegexp@re2@@UDeleter@?$PODArray@PEAVRegexp@re2@@@2@@0@AEAV10@@Z
    ??$addressof@V?$unique_ptr@$$BY0A@PEBDUDeleter@?$PODArray@PEBD@re2@@@std@@@std@@YAPEAV?$unique_ptr@$$BY0A@PEBDUDeleter@?$PODArray@PEBD@re2@@@0@AEAV10@@Z
    ??$addressof@V?$unique_ptr@$$BY0A@UAddState@NFA@re2@@UDeleter@?$PODArray@UAddState@NFA@re2@@@3@@std@@@std@@YAPEAV?$unique_ptr@$$BY0A@UAddState@NFA@re2@@UDeleter@?$PODArray@UAddState@NFA@re2@@@3@@0@AEAV10@@Z
    ??$addressof@V?$unique_ptr@$$BY0A@UJob@re2@@UDeleter@?$PODArray@UJob@re2@@@2@@std@@@std@@YAPEAV?$unique_ptr@$$BY0A@UJob@re2@@UDeleter@?$PODArray@UJob@re2@@@2@@0@AEAV10@@Z
    ??$addressof@V?$unique_ptr@$$BY0A@VIndexValue@?$SparseArray@PEAUThread@NFA@re2@@@re2@@UDeleter@?$PODArray@VIndexValue@?$SparseArray@PEAUThread@NFA@re2@@@re2@@@3@@std@@@std@@YAPEAV?$unique_ptr@$$BY0A@VIndexValue@?$SparseArray@PEAUThread@NFA@re2@@@re2@@UDeleter@?$PODArray@VIndexValue@?$SparseArray@PEAUThread@NFA@re2@@@re2@@@3@@0@AEAV10@@Z
    ??$addressof@V?$unique_ptr@$$BY0A@VInst@Prog@re2@@UDeleter@?$PODArray@VInst@Prog@re2@@@3@@std@@@std@@YAPEAV?$unique_ptr@$$BY0A@VInst@Prog@re2@@UDeleter@?$PODArray@VInst@Prog@re2@@@3@@0@AEAV10@@Z
    ??$addressof@V?$unique_ptr@$$BY0A@_KUDeleter@?$PODArray@_K@re2@@@std@@@std@@YAPEAV?$unique_ptr@$$BY0A@_KUDeleter@?$PODArray@_K@re2@@@0@AEAV10@@Z
    ??$assign@PEAH$0A@@?$vector@HV?$allocator@H@std@@@std@@QEAAXPEAH0@Z
    ??$begin@H@std@@YAPEBHV?$initializer_list@H@0@@Z
    ??$begin@_N@std@@YAPEB_NV?$initializer_list@_N@0@@Z
    ??$construct@EAEBE@?$_Default_allocator_traits@V?$allocator@E@std@@@std@@SAXAEAV?$allocator@E@1@QEAEAEBE@Z
    ??$construct@HAEAH@?$_Default_allocator_traits@V?$allocator@H@std@@@std@@SAXAEAV?$allocator@H@1@QEAHAEAH@Z
    ??$construct@HAEBH@?$_Default_allocator_traits@V?$allocator@H@std@@@std@@SAXAEAV?$allocator@H@1@QEAHAEBH@Z
    ??$construct@HAEBH@?$_Default_allocator_traits@V?$allocator@U?$_Tree_node@HPEAX@std@@@std@@@std@@SAXAEAV?$allocator@U?$_Tree_node@HPEAX@std@@@1@QEAHAEBH@Z
    ??$construct@HH@?$_Default_allocator_traits@V?$allocator@H@std@@@std@@SAXAEAV?$allocator@H@1@QEAH$$QEAH@Z
    ??$construct@PEAUState@DFA@re2@@AEBQEAU123@@?$_Default_allocator_traits@V?$allocator@PEAUState@DFA@re2@@@std@@@std@@SAXAEAV?$allocator@PEAUState@DFA@re2@@@1@QEAPEAUState@DFA@re2@@AEBQEAU345@@Z
    ??$construct@PEAUState@DFA@re2@@AEBQEAU123@@?$_Default_allocator_traits@V?$allocator@U?$_List_node@PEAUState@DFA@re2@@PEAX@std@@@std@@@std@@SAXAEAV?$allocator@U?$_List_node@PEAUState@DFA@re2@@PEAX@std@@@1@QEAPEAUState@DFA@re2@@AEBQEAU345@@Z
    ??$construct@PEAVPrefilter@re2@@AEBQEAV12@@?$_Default_allocator_traits@V?$allocator@PEAVPrefilter@re2@@@std@@@std@@SAXAEAV?$allocator@PEAVPrefilter@re2@@@1@QEAPEAVPrefilter@re2@@AEBQEAV34@@Z
    ??$construct@PEAVRE2@re2@@AEBQEAV12@@?$_Default_allocator_traits@V?$allocator@PEAVRE2@re2@@@std@@@std@@SAXAEAV?$allocator@PEAVRE2@re2@@@1@QEAPEAVRE2@re2@@AEBQEAV34@@Z
    ??$construct@PEAVRegexp@re2@@AEBQEAV12@@?$_Default_allocator_traits@V?$allocator@PEAVRegexp@re2@@@std@@@std@@SAXAEAV?$allocator@PEAVRegexp@re2@@@1@QEAPEAVRegexp@re2@@AEBQEAV34@@Z
    ??$construct@U?$WalkState@H@re2@@U12@@?$_Default_allocator_traits@V?$allocator@U?$WalkState@H@re2@@@std@@@std@@SAXAEAV?$allocator@U?$WalkState@H@re2@@@1@QEAU?$WalkState@H@re2@@$$QEAU34@@Z
    ??$construct@U?$WalkState@PEAVInfo@Prefilter@re2@@@re2@@U12@@?$_Default_allocator_traits@V?$allocator@U?$WalkState@PEAVInfo@Prefilter@re2@@@re2@@@std@@@std@@SAXAEAV?$allocator@U?$WalkState@PEAVInfo@Prefilter@re2@@@re2@@@1@QEAU?$WalkState@PEAVInfo@Prefilter@re2@@@re2@@$$QEAU34@@Z
    ??$construct@U?$WalkState@PEAVRegexp@re2@@@re2@@U12@@?$_Default_allocator_traits@V?$allocator@U?$WalkState@PEAVRegexp@re2@@@re2@@@std@@@std@@SAXAEAV?$allocator@U?$WalkState@PEAVRegexp@re2@@@re2@@@1@QEAU?$WalkState@PEAVRegexp@re2@@@re2@@$$QEAU34@@Z
    ??$construct@U?$WalkState@UFrag@re2@@@re2@@U12@@?$_Default_allocator_traits@V?$allocator@U?$WalkState@UFrag@re2@@@re2@@@std@@@std@@SAXAEAV?$allocator@U?$WalkState@UFrag@re2@@@re2@@@1@QEAU?$WalkState@UFrag@re2@@@re2@@$$QEAU34@@Z
    ??$construct@U?$WalkState@_N@re2@@U12@@?$_Default_allocator_traits@V?$allocator@U?$WalkState@_N@re2@@@std@@@std@@SAXAEAV?$allocator@U?$WalkState@_N@re2@@@1@QEAU?$WalkState@_N@re2@@$$QEAU34@@Z
    ??$construct@U?$pair@$$CBHH@std@@AEBUpiecewise_construct_t@2@V?$tuple@$$QEAH@2@V?$tuple@$$V@2@@?$_Default_allocator_traits@V?$allocator@U?$_Tree_node@U?$pair@$$CBHH@std@@PEAX@std@@@std@@@std@@SAXAEAV?$allocator@U?$_Tree_node@U?$pair@$$CBHH@std@@PEAX@std@@@1@QEAU?$pair@$$CBHH@1@AEBUpiecewise_construct_t@1@$$QEAV?$tuple@$$QEAH@1@$$QEAV?$tuple@$$V@1@@Z
    ??$construct@U?$pair@$$CBHH@std@@AEBUpiecewise_construct_t@2@V?$tuple@AEBH@2@V?$tuple@$$V@2@@?$_Default_allocator_traits@V?$allocator@U?$_Tree_node@U?$pair@$$CBHH@std@@PEAX@std@@@std@@@std@@SAXAEAV?$allocator@U?$_Tree_node@U?$pair@$$CBHH@std@@PEAX@std@@@1@QEAU?$pair@$$CBHH@1@AEBUpiecewise_construct_t@1@$$QEAV?$tuple@AEBH@1@$$QEAV?$tuple@$$V@1@@Z
    ??$construct@U?$pair@$$CBHV?$basic_string@DU?$char_traits@D@std@@V?$allocator@D@2@@std@@@std@@AEBUpiecewise_construct_t@2@V?$tuple@$$QEAH@2@V?$tuple@$$V@2@@?$_Default_allocator_traits@V?$allocator@U?$_Tree_node@U?$pair@$$CBHV?$basic_string@DU?$char_traits@D@std@@V?$allocator@D@2@@std@@@std@@PEAX@std@@@std@@@std@@SAXAEAV?$allocator@U?$_Tree_node@U?$pair@$$CBHV?$basic_string@DU?$char_traits@D@std@@V?$allocator@D@2@@std@@@std@@PEAX@std@@@1@QEAU?$pair@$$CBHV?$basic_string@DU?$char_traits@D@std@@V?$allocator@D@2@@std@@@1@AEBUpiecewise_construct_t@1@$$QEAV?$tuple@$$QEAH@1@$$QEAV?$tuple@$$V@1@@Z
    ??$construct@U?$pair@$$CBV?$basic_string@DU?$char_traits@D@std@@V?$allocator@D@2@@std@@H@std@@AEBUpiecewise_construct_t@2@V?$tuple@AEBV?$basic_string@DU?$char_traits@D@std@@V?$allocator@D@2@@std@@@2@V?$tuple@$$V@2@@?$_Default_allocator_traits@V?$allocator@U?$_Tree_node@U?$pair@$$CBV?$basic_string@DU?$char_traits@D@std@@V?$allocator@D@2@@std@@H@std@@PEAX@std@@@std@@@std@@SAXAEAV?$allocator@U?$_Tree_node@U?$pair@$$CBV?$basic_string@DU?$char_traits@D@std@@V?$allocator@D@2@@std@@H@std@@PEAX@std@@@1@QEAU?$pair@$$CBV?$basic_string@DU?$char_traits@D@std@@V?$allocator@D@2@@std@@H@1@AEBUpiecewise_construct_t@1@$$QEAV?$tuple@AEBV?$basic_string@DU?$char_traits@D@std@@V?$allocator@D@2@@std@@@1@$$QEAV?$tuple@$$V@1@@Z
    ??$construct@U?$pair@$$CBV?$basic_string@DU?$char_traits@D@std@@V?$allocator@D@2@@std@@PEAVPrefilter@re2@@@std@@V?$basic_string@DU?$char_traits@D@std@@V?$allocator@D@2@@2@AEAPEAVPrefilter@re2@@@?$_Default_allocator_traits@V?$allocator@U?$_Tree_node@U?$pair@$$CBV?$basic_string@DU?$char_traits@D@std@@V?$allocator@D@2@@std@@PEAVPrefilter@re2@@@std@@PEAX@std@@@std@@@std@@SAXAEAV?$allocator@U?$_Tree_node@U?$pair@$$CBV?$basic_string@DU?$char_traits@D@std@@V?$allocator@D@2@@std@@PEAVPrefilter@re2@@@std@@PEAX@std@@@1@QEAU?$pair@$$CBV?$basic_string@DU?$char_traits@D@std@@V?$allocator@D@2@@std@@PEAVPrefilter@re2@@@1@$$QEAV?$basic_string@DU?$char_traits@D@std@@V?$allocator@D@2@@1@AEAPEAVPrefilter@re2@@@Z
    ??$construct@U?$pair@$$CB_KH@std@@AEBUpiecewise_construct_t@2@V?$tuple@AEB_K@2@V?$tuple@$$V@2@@?$_Default_allocator_traits@V?$allocator@U?$_List_node@U?$pair@$$CB_KH@std@@PEAX@std@@@std@@@std@@SAXAEAV?$allocator@U?$_List_node@U?$pair@$$CB_KH@std@@PEAX@std@@@1@QEAU?$pair@$$CB_KH@1@AEBUpiecewise_construct_t@1@$$QEAV?$tuple@AEB_K@1@$$QEAV?$tuple@$$V@1@@Z
    ??$construct@U?$pair@HH@std@@AEAHAEAH@?$_Default_allocator_traits@V?$allocator@U?$pair@HH@std@@@std@@@std@@SAXAEAV?$allocator@U?$pair@HH@std@@@1@QEAU?$pair@HH@1@AEAH2@Z
    ??$construct@U?$pair@HH@std@@U12@@?$_Default_allocator_traits@V?$allocator@U?$pair@HH@std@@@std@@@std@@SAXAEAV?$allocator@U?$pair@HH@std@@@1@QEAU?$pair@HH@1@$$QEAU31@@Z
    ??$construct@U?$pair@QEAUState@DFA@re2@@H@std@@AEAPEAUState@DFA@re2@@H@?$_Default_allocator_traits@V?$allocator@U?$_List_node@U?$pair@QEAUState@DFA@re2@@H@std@@PEAX@std@@@std@@@std@@SAXAEAV?$allocator@U?$_List_node@U?$pair@QEAUState@DFA@re2@@H@std@@PEAX@std@@@1@QEAU?$pair@QEAUState@DFA@re2@@H@1@AEAPEAUState@DFA@re2@@$$QEAH@Z
    ??$construct@U?$pair@QEAUState@DFA@re2@@H@std@@AEBUpiecewise_construct_t@2@V?$tuple@AEBQEAUState@DFA@re2@@@2@V?$tuple@$$V@2@@?$_Default_allocator_traits@V?$allocator@U?$_List_node@U?$pair@QEAUState@DFA@re2@@H@std@@PEAX@std@@@std@@@std@@SAXAEAV?$allocator@U?$_List_node@U?$pair@QEAUState@DFA@re2@@H@std@@PEAX@std@@@1@QEAU?$pair@QEAUState@DFA@re2@@H@1@AEBUpiecewise_construct_t@1@$$QEAV?$tuple@AEBQEAUState@DFA@re2@@@1@$$QEAV?$tuple@$$V@1@@Z
    ??$construct@U?$pair@QEAVRegexp@re2@@H@std@@AEBUpiecewise_construct_t@2@V?$tuple@$$QEAPEAVRegexp@re2@@@2@V?$tuple@$$V@2@@?$_Default_allocator_traits@V?$allocator@U?$_Tree_node@U?$pair@QEAVRegexp@re2@@H@std@@PEAX@std@@@std@@@std@@SAXAEAV?$allocator@U?$_Tree_node@U?$pair@QEAVRegexp@re2@@H@std@@PEAX@std@@@1@QEAU?$pair@QEAVRegexp@re2@@H@1@AEBUpiecewise_construct_t@1@$$QEAV?$tuple@$$QEAPEAVRegexp@re2@@@1@$$QEAV?$tuple@$$V@1@@Z
    ??$construct@U?$pair@V?$basic_string@DU?$char_traits@D@std@@V?$allocator@D@2@@std@@PEAVRegexp@re2@@@std@@U12@@?$_Default_allocator_traits@V?$allocator@U?$pair@V?$basic_string@DU?$char_traits@D@std@@V?$allocator@D@2@@std@@PEAVRegexp@re2@@@std@@@std@@@std@@SAXAEAV?$allocator@U?$pair@V?$basic_string@DU?$char_traits@D@std@@V?$allocator@D@2@@std@@PEAVRegexp@re2@@@std@@@1@QEAU?$pair@V?$basic_string@DU?$char_traits@D@std@@V?$allocator@D@2@@std@@PEAVRegexp@re2@@@1@$$QEAU31@@Z
    ??$construct@U?$pair@V?$basic_string@DU?$char_traits@D@std@@V?$allocator@D@2@@std@@PEAVRegexp@re2@@@std@@V?$basic_string@DU?$char_traits@D@std@@V?$allocator@D@2@@2@AEAPEAVRegexp@re2@@@?$_Default_allocator_traits@V?$allocator@U?$pair@V?$basic_string@DU?$char_traits@D@std@@V?$allocator@D@2@@std@@PEAVRegexp@re2@@@std@@@std@@@std@@SAXAEAV?$allocator@U?$pair@V?$basic_string@DU?$char_traits@D@std@@V?$allocator@D@2@@std@@PEAVRegexp@re2@@@std@@@1@QEAU?$pair@V?$basic_string@DU?$char_traits@D@std@@V?$allocator@D@2@@std@@PEAVRegexp@re2@@@1@$$QEAV?$basic_string@DU?$char_traits@D@std@@V?$allocator@D@2@@1@AEAPEAVRegexp@re2@@@Z
    ??$construct@UEntry@PrefilterTree@re2@@$$V@?$_Default_allocator_traits@V?$allocator@UEntry@PrefilterTree@re2@@@std@@@std@@SAXAEAV?$allocator@UEntry@PrefilterTree@re2@@@1@QEAUEntry@PrefilterTree@re2@@@Z
    ??$construct@UEntry@PrefilterTree@re2@@U123@@?$_Default_allocator_traits@V?$allocator@UEntry@PrefilterTree@re2@@@std@@@std@@SAXAEAV?$allocator@UEntry@PrefilterTree@re2@@@1@QEAUEntry@PrefilterTree@re2@@$$QEAU345@@Z
    ??$construct@UFrame@re2@@AEAPEAPEAVRegexp@2@AEAH@?$_Default_allocator_traits@V?$allocator@UFrame@re2@@@std@@@std@@SAXAEAV?$allocator@UFrame@re2@@@1@QEAUFrame@re2@@AEAPEAPEAVRegexp@4@AEAH@Z
    ??$construct@UFrame@re2@@U12@@?$_Default_allocator_traits@V?$allocator@UFrame@re2@@@std@@@std@@SAXAEAV?$allocator@UFrame@re2@@@1@QEAUFrame@re2@@$$QEAU34@@Z
    ??$construct@URuneRange@re2@@AEBU12@@?$_Default_allocator_traits@V?$allocator@U?$_Tree_node@URuneRange@re2@@PEAX@std@@@std@@@std@@SAXAEAV?$allocator@U?$_Tree_node@URuneRange@re2@@PEAX@std@@@1@QEAURuneRange@re2@@AEBU34@@Z
    ??$construct@URuneRange@re2@@U12@@?$_Default_allocator_traits@V?$allocator@U?$_Tree_node@URuneRange@re2@@PEAX@std@@@std@@@std@@SAXAEAV?$allocator@U?$_Tree_node@URuneRange@re2@@PEAX@std@@@1@QEAURuneRange@re2@@$$QEAU34@@Z
    ??$construct@URuneRange@re2@@U12@@?$_Default_allocator_traits@V?$allocator@URuneRange@re2@@@std@@@std@@SAXAEAV?$allocator@URuneRange@re2@@@1@QEAURuneRange@re2@@$$QEAU34@@Z
    ??$construct@USplice@re2@@AEAPEAVRegexp@2@PEAPEAV32@H@?$_Default_allocator_traits@V?$allocator@USplice@re2@@@std@@@std@@SAXAEAV?$allocator@USplice@re2@@@1@QEAUSplice@re2@@AEAPEAVRegexp@4@$$QEAPEAPEAV54@$$QEAH@Z
    ??$construct@USplice@re2@@U12@@?$_Default_allocator_traits@V?$allocator@USplice@re2@@@std@@@std@@SAXAEAV?$allocator@USplice@re2@@@1@QEAUSplice@re2@@$$QEAU34@@Z
    ??$construct@UThread@NFA@re2@@$$V@?$_Default_allocator_traits@V?$allocator@UThread@NFA@re2@@@std@@@std@@SAXAEAV?$allocator@UThread@NFA@re2@@@1@QEAUThread@NFA@re2@@@Z
    ??$construct@V?$basic_string@DU?$char_traits@D@std@@V?$allocator@D@2@@std@@AEBV12@@?$_Default_allocator_traits@V?$allocator@U?$_Tree_node@V?$basic_string@DU?$char_traits@D@std@@V?$allocator@D@2@@std@@PEAX@std@@@std@@@std@@SAXAEAV?$allocator@U?$_Tree_node@V?$basic_string@DU?$char_traits@D@std@@V?$allocator@D@2@@std@@PEAX@std@@@1@QEAV?$basic_string@DU?$char_traits@D@std@@V?$allocator@D@2@@1@AEBV31@@Z
    ??$construct@V?$basic_string@DU?$char_traits@D@std@@V?$allocator@D@2@@std@@AEBV12@@?$_Default_allocator_traits@V?$allocator@V?$basic_string@DU?$char_traits@D@std@@V?$allocator@D@2@@std@@@std@@@std@@SAXAEAV?$allocator@V?$basic_string@DU?$char_traits@D@std@@V?$allocator@D@2@@std@@@1@QEAV?$basic_string@DU?$char_traits@D@std@@V?$allocator@D@2@@1@AEBV31@@Z
    ??$construct@V?$basic_string@DU?$char_traits@D@std@@V?$allocator@D@2@@std@@V12@@?$_Default_allocator_traits@V?$allocator@U?$_Tree_node@V?$basic_string@DU?$char_traits@D@std@@V?$allocator@D@2@@std@@PEAX@std@@@std@@@std@@SAXAEAV?$allocator@U?$_Tree_node@V?$basic_string@DU?$char_traits@D@std@@V?$allocator@D@2@@std@@PEAX@std@@@1@QEAV?$basic_string@DU?$char_traits@D@std@@V?$allocator@D@2@@1@$$QEAV31@@Z
    ??$construct@V?$basic_string@DU?$char_traits@D@std@@V?$allocator@D@2@@std@@V12@@?$_Default_allocator_traits@V?$allocator@V?$basic_string@DU?$char_traits@D@std@@V?$allocator@D@2@@std@@@std@@@std@@SAXAEAV?$allocator@V?$basic_string@DU?$char_traits@D@std@@V?$allocator@D@2@@std@@@1@QEAV?$basic_string@DU?$char_traits@D@std@@V?$allocator@D@2@@1@$$QEAV31@@Z
    ??$construct@V?$vector@HV?$allocator@H@std@@@std@@$$V@?$_Default_allocator_traits@V?$allocator@V?$vector@HV?$allocator@H@std@@@std@@@std@@@std@@SAXAEAV?$allocator@V?$vector@HV?$allocator@H@std@@@std@@@1@QEAV?$vector@HV?$allocator@H@std@@@1@@Z
    ??$construct@V?$vector@HV?$allocator@H@std@@@std@@V12@@?$_Default_allocator_traits@V?$allocator@V?$vector@HV?$allocator@H@std@@@std@@@std@@@std@@SAXAEAV?$allocator@V?$vector@HV?$allocator@H@std@@@std@@@1@QEAV?$vector@HV?$allocator@H@std@@@1@$$QEAV31@@Z
    ??$construct@VInst@Prog@re2@@$$V@?$_Default_allocator_traits@V?$allocator@VInst@Prog@re2@@@std@@@std@@SAXAEAV?$allocator@VInst@Prog@re2@@@1@QEAVInst@Prog@re2@@@Z
    ??$copy_n@PEAHHPEAH@std@@YAPEAHPEAHH0@Z
    ??$copy_n@PEAVIndexValue@?$SparseArray@H@re2@@HPEAV123@@std@@YAPEAVIndexValue@?$SparseArray@H@re2@@PEAV123@H0@Z
    ??$copy_n@PEAVIndexValue@?$SparseArray@PEAUThread@NFA@re2@@@re2@@HPEAV123@@std@@YAPEAVIndexValue@?$SparseArray@PEAUThread@NFA@re2@@@re2@@PEAV123@H0@Z
    ??$destroy@E@?$_Default_allocator_traits@V?$allocator@E@std@@@std@@SAXAEAV?$allocator@E@1@QEAE@Z
    ??$destroy@H@?$_Default_allocator_traits@V?$allocator@H@std@@@std@@SAXAEAV?$allocator@H@1@QEAH@Z
    ??$destroy@H@?$_Default_allocator_traits@V?$allocator@U?$_Tree_node@HPEAX@std@@@std@@@std@@SAXAEAV?$allocator@U?$_Tree_node@HPEAX@std@@@1@QEAH@Z
    ??$destroy@PEAUState@DFA@re2@@@?$_Default_allocator_traits@V?$allocator@PEAUState@DFA@re2@@@std@@@std@@SAXAEAV?$allocator@PEAUState@DFA@re2@@@1@QEAPEAUState@DFA@re2@@@Z
    ??$destroy@PEAUState@DFA@re2@@@?$_Default_allocator_traits@V?$allocator@U?$_List_node@PEAUState@DFA@re2@@PEAX@std@@@std@@@std@@SAXAEAV?$allocator@U?$_List_node@PEAUState@DFA@re2@@PEAX@std@@@1@QEAPEAUState@DFA@re2@@@Z
    ??$destroy@U?$WalkState@H@re2@@@?$_Default_allocator_traits@V?$allocator@U?$WalkState@H@re2@@@std@@@std@@SAXAEAV?$allocator@U?$WalkState@H@re2@@@1@QEAU?$WalkState@H@re2@@@Z
    ??$destroy@U?$WalkState@PEAVInfo@Prefilter@re2@@@re2@@@?$_Default_allocator_traits@V?$allocator@U?$WalkState@PEAVInfo@Prefilter@re2@@@re2@@@std@@@std@@SAXAEAV?$allocator@U?$WalkState@PEAVInfo@Prefilter@re2@@@re2@@@1@QEAU?$WalkState@PEAVInfo@Prefilter@re2@@@re2@@@Z
    ??$destroy@U?$WalkState@PEAVRegexp@re2@@@re2@@@?$_Default_allocator_traits@V?$allocator@U?$WalkState@PEAVRegexp@re2@@@re2@@@std@@@std@@SAXAEAV?$allocator@U?$WalkState@PEAVRegexp@re2@@@re2@@@1@QEAU?$WalkState@PEAVRegexp@re2@@@re2@@@Z
    ??$destroy@U?$WalkState@UFrag@re2@@@re2@@@?$_Default_allocator_traits@V?$allocator@U?$WalkState@UFrag@re2@@@re2@@@std@@@std@@SAXAEAV?$allocator@U?$WalkState@UFrag@re2@@@re2@@@1@QEAU?$WalkState@UFrag@re2@@@re2@@@Z
    ??$destroy@U?$WalkState@_N@re2@@@?$_Default_allocator_traits@V?$allocator@U?$WalkState@_N@re2@@@std@@@std@@SAXAEAV?$allocator@U?$WalkState@_N@re2@@@1@QEAU?$WalkState@_N@re2@@@Z
    ??$destroy@U?$pair@$$CBHH@std@@@?$_Default_allocator_traits@V?$allocator@U?$_Tree_node@U?$pair@$$CBHH@std@@PEAX@std@@@std@@@std@@SAXAEAV?$allocator@U?$_Tree_node@U?$pair@$$CBHH@std@@PEAX@std@@@1@QEAU?$pair@$$CBHH@1@@Z
    ??$destroy@U?$pair@$$CBHV?$basic_string@DU?$char_traits@D@std@@V?$allocator@D@2@@std@@@std@@@?$_Default_allocator_traits@V?$allocator@U?$_Tree_node@U?$pair@$$CBHV?$basic_string@DU?$char_traits@D@std@@V?$allocator@D@2@@std@@@std@@PEAX@std@@@std@@@std@@SAXAEAV?$allocator@U?$_Tree_node@U?$pair@$$CBHV?$basic_string@DU?$char_traits@D@std@@V?$allocator@D@2@@std@@@std@@PEAX@std@@@1@QEAU?$pair@$$CBHV?$basic_string@DU?$char_traits@D@std@@V?$allocator@D@2@@std@@@1@@Z
    ??$destroy@U?$pair@$$CBV?$basic_string@DU?$char_traits@D@std@@V?$allocator@D@2@@std@@H@std@@@?$_Default_allocator_traits@V?$allocator@U?$_Tree_node@U?$pair@$$CBV?$basic_string@DU?$char_traits@D@std@@V?$allocator@D@2@@std@@H@std@@PEAX@std@@@std@@@std@@SAXAEAV?$allocator@U?$_Tree_node@U?$pair@$$CBV?$basic_string@DU?$char_traits@D@std@@V?$allocator@D@2@@std@@H@std@@PEAX@std@@@1@QEAU?$pair@$$CBV?$basic_string@DU?$char_traits@D@std@@V?$allocator@D@2@@std@@H@1@@Z
    ??$destroy@U?$pair@$$CBV?$basic_string@DU?$char_traits@D@std@@V?$allocator@D@2@@std@@PEAVPrefilter@re2@@@std@@@?$_Default_allocator_traits@V?$allocator@U?$_Tree_node@U?$pair@$$CBV?$basic_string@DU?$char_traits@D@std@@V?$allocator@D@2@@std@@PEAVPrefilter@re2@@@std@@PEAX@std@@@std@@@std@@SAXAEAV?$allocator@U?$_Tree_node@U?$pair@$$CBV?$basic_string@DU?$char_traits@D@std@@V?$allocator@D@2@@std@@PEAVPrefilter@re2@@@std@@PEAX@std@@@1@QEAU?$pair@$$CBV?$basic_string@DU?$char_traits@D@std@@V?$allocator@D@2@@std@@PEAVPrefilter@re2@@@1@@Z
    ??$destroy@U?$pair@$$CB_KH@std@@@?$_Default_allocator_traits@V?$allocator@U?$_List_node@U?$pair@$$CB_KH@std@@PEAX@std@@@std@@@std@@SAXAEAV?$allocator@U?$_List_node@U?$pair@$$CB_KH@std@@PEAX@std@@@1@QEAU?$pair@$$CB_KH@1@@Z
    ??$destroy@U?$pair@QEAUState@DFA@re2@@H@std@@@?$_Default_allocator_traits@V?$allocator@U?$_List_node@U?$pair@QEAUState@DFA@re2@@H@std@@PEAX@std@@@std@@@std@@SAXAEAV?$allocator@U?$_List_node@U?$pair@QEAUState@DFA@re2@@H@std@@PEAX@std@@@1@QEAU?$pair@QEAUState@DFA@re2@@H@1@@Z
    ??$destroy@U?$pair@QEAVRegexp@re2@@H@std@@@?$_Default_allocator_traits@V?$allocator@U?$_Tree_node@U?$pair@QEAVRegexp@re2@@H@std@@PEAX@std@@@std@@@std@@SAXAEAV?$allocator@U?$_Tree_node@U?$pair@QEAVRegexp@re2@@H@std@@PEAX@std@@@1@QEAU?$pair@QEAVRegexp@re2@@H@1@@Z
    ??$destroy@U?$pair@V?$basic_string@DU?$char_traits@D@std@@V?$allocator@D@2@@std@@PEAVRegexp@re2@@@std@@@?$_Default_allocator_traits@V?$allocator@U?$pair@V?$basic_string@DU?$char_traits@D@std@@V?$allocator@D@2@@std@@PEAVRegexp@re2@@@std@@@std@@@std@@SAXAEAV?$allocator@U?$pair@V?$basic_string@DU?$char_traits@D@std@@V?$allocator@D@2@@std@@PEAVRegexp@re2@@@std@@@1@QEAU?$pair@V?$basic_string@DU?$char_traits@D@std@@V?$allocator@D@2@@std@@PEAVRegexp@re2@@@1@@Z
    ??$destroy@UEntry@PrefilterTree@re2@@@?$_Default_allocator_traits@V?$allocator@UEntry@PrefilterTree@re2@@@std@@@std@@SAXAEAV?$allocator@UEntry@PrefilterTree@re2@@@1@QEAUEntry@PrefilterTree@re2@@@Z
    ??$destroy@UFrame@re2@@@?$_Default_allocator_traits@V?$allocator@UFrame@re2@@@std@@@std@@SAXAEAV?$allocator@UFrame@re2@@@1@QEAUFrame@re2@@@Z
    ??$destroy@URuneRange@re2@@@?$_Default_allocator_traits@V?$allocator@U?$_Tree_node@URuneRange@re2@@PEAX@std@@@std@@@std@@SAXAEAV?$allocator@U?$_Tree_node@URuneRange@re2@@PEAX@std@@@1@QEAURuneRange@re2@@@Z
    ??$destroy@UThread@NFA@re2@@@?$_Default_allocator_traits@V?$allocator@UThread@NFA@re2@@@std@@@std@@SAXAEAV?$allocator@UThread@NFA@re2@@@1@QEAUThread@NFA@re2@@@Z
    ??$destroy@V?$basic_string@DU?$char_traits@D@std@@V?$allocator@D@2@@std@@@?$_Default_allocator_traits@V?$allocator@U?$_Tree_node@V?$basic_string@DU?$char_traits@D@std@@V?$allocator@D@2@@std@@PEAX@std@@@std@@@std@@SAXAEAV?$allocator@U?$_Tree_node@V?$basic_string@DU?$char_traits@D@std@@V?$allocator@D@2@@std@@PEAX@std@@@1@QEAV?$basic_string@DU?$char_traits@D@std@@V?$allocator@D@2@@1@@Z
    ??$destroy@V?$basic_string@DU?$char_traits@D@std@@V?$allocator@D@2@@std@@@?$_Default_allocator_traits@V?$allocator@V?$basic_string@DU?$char_traits@D@std@@V?$allocator@D@2@@std@@@std@@@std@@SAXAEAV?$allocator@V?$basic_string@DU?$char_traits@D@std@@V?$allocator@D@2@@std@@@1@QEAV?$basic_string@DU?$char_traits@D@std@@V?$allocator@D@2@@1@@Z
    ??$destroy@V?$vector@HV?$allocator@H@std@@@std@@@?$_Default_allocator_traits@V?$allocator@V?$vector@HV?$allocator@H@std@@@std@@@std@@@std@@SAXAEAV?$allocator@V?$vector@HV?$allocator@H@std@@@std@@@1@QEAV?$vector@HV?$allocator@H@std@@@1@@Z
    ??$distance@PEAH@std@@YA_JPEAH0@Z
    ??$distance@PEBH@std@@YA_JPEBH0@Z
    ??$distance@V?$_Tree_unchecked_const_iterator@V?$_Tree_val@U?$_Tree_simple_types@U?$pair@QEAVRegexp@re2@@H@std@@@std@@@std@@U_Iterator_base0@2@@std@@@std@@YA_JV?$_Tree_unchecked_const_iterator@V?$_Tree_val@U?$_Tree_simple_types@U?$pair@QEAVRegexp@re2@@H@std@@@std@@@std@@U_Iterator_base0@2@@0@0@Z
    ??$emplace@AEAPEAUState@DFA@re2@@H@?$_Hash@V?$_Umap_traits@PEAUState@DFA@re2@@HV?$_Uhash_compare@PEAUState@DFA@re2@@U?$hash@PEAUState@DFA@re2@@@std@@U?$equal_to@PEAUState@DFA@re2@@@5@@std@@V?$allocator@U?$pair@QEAUState@DFA@re2@@H@std@@@5@$0A@@std@@@std@@QEAA?AU?$pair@V?$_List_iterator@V?$_List_val@U?$_List_simple_types@U?$pair@QEAUState@DFA@re2@@H@std@@@std@@@std@@@std@@_N@1@AEAPEAUState@DFA@re2@@$$QEAH@Z
    ??$emplace@AEBQEAUState@DFA@re2@@@?$_Hash@V?$_Uset_traits@PEAUState@DFA@re2@@V?$_Uhash_compare@PEAUState@DFA@re2@@UStateHash@23@UStateEqual@23@@std@@V?$allocator@PEAUState@DFA@re2@@@5@$0A@@std@@@std@@QEAA?AU?$pair@V?$_List_const_iterator@V?$_List_val@U?$_List_simple_types@PEAUState@DFA@re2@@@std@@@std@@@std@@_N@1@AEBQEAUState@DFA@re2@@@Z
    ??$emplace@V?$basic_string@DU?$char_traits@D@std@@V?$allocator@D@2@@std@@AEAPEAVPrefilter@re2@@@?$_Tree@V?$_Tmap_traits@V?$basic_string@DU?$char_traits@D@std@@V?$allocator@D@2@@std@@PEAVPrefilter@re2@@U?$less@V?$basic_string@DU?$char_traits@D@std@@V?$allocator@D@2@@std@@@2@V?$allocator@U?$pair@$$CBV?$basic_string@DU?$char_traits@D@std@@V?$allocator@D@2@@std@@PEAVPrefilter@re2@@@std@@@2@$0A@@std@@@std@@QEAA?AU?$pair@V?$_Tree_iterator@V?$_Tree_val@U?$_Tree_simple_types@U?$pair@$$CBV?$basic_string@DU?$char_traits@D@std@@V?$allocator@D@2@@std@@PEAVPrefilter@re2@@@std@@@std@@@std@@@std@@_N@1@$$QEAV?$basic_string@DU?$char_traits@D@std@@V?$allocator@D@2@@1@AEAPEAVPrefilter@re2@@@Z
    ??$emplace_back@$$V@?$vector@VInst@Prog@re2@@V?$allocator@VInst@Prog@re2@@@std@@@std@@QEAAAEAVInst@Prog@re2@@XZ
    ??$emplace_back@AEAH@?$vector@HV?$allocator@H@std@@@std@@QEAAAEAHAEAH@Z
    ??$emplace_back@AEAHAEAH@?$vector@U?$pair@HH@std@@V?$allocator@U?$pair@HH@std@@@2@@std@@QEAAAEAU?$pair@HH@1@AEAH0@Z
    ??$emplace_back@AEAPEAPEAVRegexp@re2@@AEAH@?$vector@UFrame@re2@@V?$allocator@UFrame@re2@@@std@@@std@@QEAAAEAUFrame@re2@@AEAPEAPEAVRegexp@3@AEAH@Z
    ??$emplace_back@AEAPEAVRegexp@re2@@PEAPEAV12@H@?$vector@USplice@re2@@V?$allocator@USplice@re2@@@std@@@std@@QEAAAEAUSplice@re2@@AEAPEAVRegexp@3@$$QEAPEAPEAV43@$$QEAH@Z
    ??$emplace_back@AEBH@?$vector@HV?$allocator@H@std@@@std@@QEAAAEAHAEBH@Z
    ??$emplace_back@AEBQEAVPrefilter@re2@@@?$vector@PEAVPrefilter@re2@@V?$allocator@PEAVPrefilter@re2@@@std@@@std@@QEAAAEAPEAVPrefilter@re2@@AEBQEAV23@@Z
    ??$emplace_back@AEBQEAVRE2@re2@@@?$vector@PEAVRE2@re2@@V?$allocator@PEAVRE2@re2@@@std@@@std@@QEAAAEAPEAVRE2@re2@@AEBQEAV23@@Z
    ??$emplace_back@AEBQEAVRegexp@re2@@@?$vector@PEAVRegexp@re2@@V?$allocator@PEAVRegexp@re2@@@std@@@std@@QEAAAEAPEAVRegexp@re2@@AEBQEAV23@@Z
    ??$emplace_back@AEBV?$basic_string@DU?$char_traits@D@std@@V?$allocator@D@2@@std@@@?$vector@V?$basic_string@DU?$char_traits@D@std@@V?$allocator@D@2@@std@@V?$allocator@V?$basic_string@DU?$char_traits@D@std@@V?$allocator@D@2@@std@@@2@@std@@QEAAAEAV?$basic_string@DU?$char_traits@D@std@@V?$allocator@D@2@@1@AEBV21@@Z
    ??$emplace_back@H@?$vector@HV?$allocator@H@std@@@std@@QEAAAEAH$$QEAH@Z
    ??$emplace_back@URuneRange@re2@@@?$vector@URuneRange@re2@@V?$allocator@URuneRange@re2@@@std@@@std@@QEAAAEAURuneRange@re2@@$$QEAU23@@Z
    ??$emplace_back@V?$basic_string@DU?$char_traits@D@std@@V?$allocator@D@2@@std@@AEAPEAVRegexp@re2@@@?$vector@U?$pair@V?$basic_string@DU?$char_traits@D@std@@V?$allocator@D@2@@std@@PEAVRegexp@re2@@@std@@V?$allocator@U?$pair@V?$basic_string@DU?$char_traits@D@std@@V?$allocator@D@2@@std@@PEAVRegexp@re2@@@std@@@2@@std@@QEAAAEAU?$pair@V?$basic_string@DU?$char_traits@D@std@@V?$allocator@D@2@@std@@PEAVRegexp@re2@@@1@$$QEAV?$basic_string@DU?$char_traits@D@std@@V?$allocator@D@2@@1@AEAPEAVRegexp@re2@@@Z
    ??$end@H@std@@YAPEBHV?$initializer_list@H@0@@Z
    ??$end@_N@std@@YAPEB_NV?$initializer_list@_N@0@@Z
    ??$exchange@PEAEAEAPEAE@std@@YAPEAEAEAPEAE0@Z
    ??$exchange@PEAEPEAE@std@@YAPEAEAEAPEAE$$QEAPEAE@Z
    ??$exchange@PEAGAEAPEAG@std@@YAPEAGAEAPEAG0@Z
    ??$exchange@PEAGPEAG@std@@YAPEAGAEAPEAG$$QEAPEAG@Z
    ??$exchange@PEAHAEAPEAH@std@@YAPEAHAEAPEAH0@Z
    ??$exchange@PEAHPEAH@std@@YAPEAHAEAPEAH$$QEAPEAH@Z
    ??$exchange@PEAPEAVRegexp@re2@@AEAPEAPEAV12@@std@@YAPEAPEAVRegexp@re2@@AEAPEAPEAV12@0@Z
    ??$exchange@PEAPEAVRegexp@re2@@PEAPEAV12@@std@@YAPEAPEAVRegexp@re2@@AEAPEAPEAV12@$$QEAPEAPEAV12@@Z
    ??$exchange@PEAPEBDAEAPEAPEBD@std@@YAPEAPEBDAEAPEAPEBD0@Z
    ??$exchange@PEAPEBDPEAPEBD@std@@YAPEAPEBDAEAPEAPEBD$$QEAPEAPEBD@Z
    ??$exchange@PEAU?$_List_node@PEAUState@DFA@re2@@PEAX@std@@$$T@std@@YAPEAU?$_List_node@PEAUState@DFA@re2@@PEAX@0@AEAPEAU10@$$QEA$$T@Z
    ??$exchange@PEAU?$_List_node@U?$pair@$$CB_KH@std@@PEAX@std@@$$T@std@@YAPEAU?$_List_node@U?$pair@$$CB_KH@std@@PEAX@0@AEAPEAU10@$$QEA$$T@Z
    ??$exchange@PEAU?$_List_node@U?$pair@QEAUState@DFA@re2@@H@std@@PEAX@std@@$$T@std@@YAPEAU?$_List_node@U?$pair@QEAUState@DFA@re2@@H@std@@PEAX@0@AEAPEAU10@$$QEA$$T@Z
    ??$exchange@PEAU?$_Tree_node@HPEAX@std@@$$T@std@@YAPEAU?$_Tree_node@HPEAX@0@AEAPEAU10@$$QEA$$T@Z
    ??$exchange@PEAU?$_Tree_node@HPEAX@std@@AEAPEAU12@@std@@YAPEAU?$_Tree_node@HPEAX@0@AEAPEAU10@0@Z
    ??$exchange@PEAU?$_Tree_node@U?$pair@$$CBHH@std@@PEAX@std@@$$T@std@@YAPEAU?$_Tree_node@U?$pair@$$CBHH@std@@PEAX@0@AEAPEAU10@$$QEA$$T@Z
    ??$exchange@PEAU?$_Tree_node@U?$pair@$$CBHH@std@@PEAX@std@@AEAPEAU12@@std@@YAPEAU?$_Tree_node@U?$pair@$$CBHH@std@@PEAX@0@AEAPEAU10@0@Z
    ??$exchange@PEAU?$_Tree_node@U?$pair@$$CBHV?$basic_string@DU?$char_traits@D@std@@V?$allocator@D@2@@std@@@std@@PEAX@std@@$$T@std@@YAPEAU?$_Tree_node@U?$pair@$$CBHV?$basic_string@DU?$char_traits@D@std@@V?$allocator@D@2@@std@@@std@@PEAX@0@AEAPEAU10@$$QEA$$T@Z
    ??$exchange@PEAU?$_Tree_node@U?$pair@$$CBHV?$basic_string@DU?$char_traits@D@std@@V?$allocator@D@2@@std@@@std@@PEAX@std@@AEAPEAU12@@std@@YAPEAU?$_Tree_node@U?$pair@$$CBHV?$basic_string@DU?$char_traits@D@std@@V?$allocator@D@2@@std@@@std@@PEAX@0@AEAPEAU10@0@Z
    ??$exchange@PEAU?$_Tree_node@U?$pair@$$CBV?$basic_string@DU?$char_traits@D@std@@V?$allocator@D@2@@std@@H@std@@PEAX@std@@$$T@std@@YAPEAU?$_Tree_node@U?$pair@$$CBV?$basic_string@DU?$char_traits@D@std@@V?$allocator@D@2@@std@@H@std@@PEAX@0@AEAPEAU10@$$QEA$$T@Z
    ??$exchange@PEAU?$_Tree_node@U?$pair@$$CBV?$basic_string@DU?$char_traits@D@std@@V?$allocator@D@2@@std@@H@std@@PEAX@std@@AEAPEAU12@@std@@YAPEAU?$_Tree_node@U?$pair@$$CBV?$basic_string@DU?$char_traits@D@std@@V?$allocator@D@2@@std@@H@std@@PEAX@0@AEAPEAU10@0@Z
    ??$exchange@PEAU?$_Tree_node@U?$pair@$$CBV?$basic_string@DU?$char_traits@D@std@@V?$allocator@D@2@@std@@PEAVPrefilter@re2@@@std@@PEAX@std@@$$T@std@@YAPEAU?$_Tree_node@U?$pair@$$CBV?$basic_string@DU?$char_traits@D@std@@V?$allocator@D@2@@std@@PEAVPrefilter@re2@@@std@@PEAX@0@AEAPEAU10@$$QEA$$T@Z
    ??$exchange@PEAU?$_Tree_node@U?$pair@$$CBV?$basic_string@DU?$char_traits@D@std@@V?$allocator@D@2@@std@@PEAVPrefilter@re2@@@std@@PEAX@std@@AEAPEAU12@@std@@YAPEAU?$_Tree_node@U?$pair@$$CBV?$basic_string@DU?$char_traits@D@std@@V?$allocator@D@2@@std@@PEAVPrefilter@re2@@@std@@PEAX@0@AEAPEAU10@0@Z
    ??$exchange@PEAU?$_Tree_node@U?$pair@QEAVRegexp@re2@@H@std@@PEAX@std@@$$T@std@@YAPEAU?$_Tree_node@U?$pair@QEAVRegexp@re2@@H@std@@PEAX@0@AEAPEAU10@$$QEA$$T@Z
    ??$exchange@PEAU?$_Tree_node@U?$pair@QEAVRegexp@re2@@H@std@@PEAX@std@@AEAPEAU12@@std@@YAPEAU?$_Tree_node@U?$pair@QEAVRegexp@re2@@H@std@@PEAX@0@AEAPEAU10@0@Z
    ??$exchange@PEAU?$_Tree_node@URuneRange@re2@@PEAX@std@@$$T@std@@YAPEAU?$_Tree_node@URuneRange@re2@@PEAX@0@AEAPEAU10@$$QEA$$T@Z
    ??$exchange@PEAU?$_Tree_node@URuneRange@re2@@PEAX@std@@AEAPEAU12@@std@@YAPEAU?$_Tree_node@URuneRange@re2@@PEAX@0@AEAPEAU10@0@Z
    ??$exchange@PEAU?$_Tree_node@V?$basic_string@DU?$char_traits@D@std@@V?$allocator@D@2@@std@@PEAX@std@@$$T@std@@YAPEAU?$_Tree_node@V?$basic_string@DU?$char_traits@D@std@@V?$allocator@D@2@@std@@PEAX@0@AEAPEAU10@$$QEA$$T@Z
    ??$exchange@PEAU?$_Tree_node@V?$basic_string@DU?$char_traits@D@std@@V?$allocator@D@2@@std@@PEAX@std@@AEAPEAU12@@std@@YAPEAU?$_Tree_node@V?$basic_string@DU?$char_traits@D@std@@V?$allocator@D@2@@std@@PEAX@0@AEAPEAU10@0@Z
    ??$exchange@PEAUAddState@NFA@re2@@AEAPEAU123@@std@@YAPEAUAddState@NFA@re2@@AEAPEAU123@0@Z
    ??$exchange@PEAUAddState@NFA@re2@@PEAU123@@std@@YAPEAUAddState@NFA@re2@@AEAPEAU123@$$QEAPEAU123@@Z
    ??$exchange@PEAUJob@re2@@AEAPEAU12@@std@@YAPEAUJob@re2@@AEAPEAU12@0@Z
    ??$exchange@PEAUJob@re2@@PEAU12@@std@@YAPEAUJob@re2@@AEAPEAU12@$$QEAPEAU12@@Z
    ??$exchange@PEAU_Container_proxy@std@@$$T@std@@YAPEAU_Container_proxy@0@AEAPEAU10@$$QEA$$T@Z
    ??$exchange@PEAV?$SparseSetT@X@re2@@AEAPEAV12@@std@@YAPEAV?$SparseSetT@X@re2@@AEAPEAV12@0@Z
    ??$exchange@PEAVIndexValue@?$SparseArray@PEAUThread@NFA@re2@@@re2@@AEAPEAV123@@std@@YAPEAVIndexValue@?$SparseArray@PEAUThread@NFA@re2@@@re2@@AEAPEAV123@0@Z
    ??$exchange@PEAVIndexValue@?$SparseArray@PEAUThread@NFA@re2@@@re2@@PEAV123@@std@@YAPEAVIndexValue@?$SparseArray@PEAUThread@NFA@re2@@@re2@@AEAPEAV123@$$QEAPEAV123@@Z
    ??$exchange@PEAVInst@Prog@re2@@AEAPEAV123@@std@@YAPEAVInst@Prog@re2@@AEAPEAV123@0@Z
    ??$exchange@PEAVInst@Prog@re2@@PEAV123@@std@@YAPEAVInst@Prog@re2@@AEAPEAV123@$$QEAPEAV123@@Z
    ??$exchange@PEAVPrefilterTree@re2@@AEAPEAV12@@std@@YAPEAVPrefilterTree@re2@@AEAPEAV12@0@Z
    ??$exchange@PEAVPrefilterTree@re2@@PEAV12@@std@@YAPEAVPrefilterTree@re2@@AEAPEAV12@$$QEAPEAV12@@Z
    ??$exchange@PEAVProg@re2@@AEAPEAV12@@std@@YAPEAVProg@re2@@AEAPEAV12@0@Z
    ??$exchange@PEAVProg@re2@@PEAV12@@std@@YAPEAVProg@re2@@AEAPEAV12@$$QEAPEAV12@@Z
    ??$exchange@PEA_KAEAPEA_K@std@@YAPEA_KAEAPEA_K0@Z
    ??$exchange@PEA_KPEA_K@std@@YAPEA_KAEAPEA_K$$QEAPEA_K@Z
    ??$fill@PEAEE@std@@YAXQEAE0AEBE@Z
    ??$fill@PEAV?$_List_unchecked_const_iterator@V?$_List_val@U?$_List_simple_types@PEAUState@DFA@re2@@@std@@@std@@U_Iterator_base0@2@@std@@V12@@std@@YAXQEAV?$_List_unchecked_const_iterator@V?$_List_val@U?$_List_simple_types@PEAUState@DFA@re2@@@std@@@std@@U_Iterator_base0@2@@0@0AEBV10@@Z
    ??$fill@PEAV?$_List_unchecked_iterator@V?$_List_val@U?$_List_simple_types@U?$pair@$$CB_KH@std@@@std@@@std@@@std@@V12@@std@@YAXQEAV?$_List_unchecked_iterator@V?$_List_val@U?$_List_simple_types@U?$pair@$$CB_KH@std@@@std@@@std@@@0@0AEBV10@@Z
    ??$fill@PEAV?$_List_unchecked_iterator@V?$_List_val@U?$_List_simple_types@U?$pair@QEAUState@DFA@re2@@H@std@@@std@@@std@@@std@@V12@@std@@YAXQEAV?$_List_unchecked_iterator@V?$_List_val@U?$_List_simple_types@U?$pair@QEAUState@DFA@re2@@H@std@@@std@@@std@@@0@0AEBV10@@Z
    ??$find@PEBDD@std@@YAPEBDPEBDQEBDAEBD@Z
    ??$find@X@?$_Hash@V?$_Umap_traits@PEAUState@DFA@re2@@HV?$_Uhash_compare@PEAUState@DFA@re2@@U?$hash@PEAUState@DFA@re2@@@std@@U?$equal_to@PEAUState@DFA@re2@@@5@@std@@V?$allocator@U?$pair@QEAUState@DFA@re2@@H@std@@@5@$0A@@std@@@std@@QEAA?AV?$_List_iterator@V?$_List_val@U?$_List_simple_types@U?$pair@QEAUState@DFA@re2@@H@std@@@std@@@std@@@1@AEBQEAUState@DFA@re2@@@Z
    ??$find@X@?$_Hash@V?$_Umap_traits@_KHV?$_Uhash_compare@_KU?$hash@_K@std@@U?$equal_to@_K@2@@std@@V?$allocator@U?$pair@$$CB_KH@std@@@2@$0A@@std@@@std@@QEAA?AV?$_List_iterator@V?$_List_val@U?$_List_simple_types@U?$pair@$$CB_KH@std@@@std@@@std@@@1@AEB_K@Z
    ??$find@X@?$_Hash@V?$_Uset_traits@PEAUState@DFA@re2@@V?$_Uhash_compare@PEAUState@DFA@re2@@UStateHash@23@UStateEqual@23@@std@@V?$allocator@PEAUState@DFA@re2@@@5@$0A@@std@@@std@@QEAA?AV?$_List_const_iterator@V?$_List_val@U?$_List_simple_types@PEAUState@DFA@re2@@@std@@@std@@@1@AEBQEAUState@DFA@re2@@@Z
    ??$find_end@PEBDPEBD@std@@YAPEBDQEBD000@Z
    ??$find_end@PEBDPEBDU?$equal_to@X@std@@@std@@YAPEBDPEBDQEBD11U?$equal_to@X@0@@Z
    ??$forward@AEAH@std@@YAAEAHAEAH@Z
    ??$forward@AEAPEAE@std@@YAAEAPEAEAEAPEAE@Z
    ??$forward@AEAPEAG@std@@YAAEAPEAGAEAPEAG@Z
    ??$forward@AEAPEAH@std@@YAAEAPEAHAEAPEAH@Z
    ??$forward@AEAPEAPEAVRegexp@re2@@@std@@YAAEAPEAPEAVRegexp@re2@@AEAPEAPEAV12@@Z
    ??$forward@AEAPEAPEBD@std@@YAAEAPEAPEBDAEAPEAPEBD@Z
    ??$forward@AEAPEAU?$_List_node@PEAUState@DFA@re2@@PEAX@std@@@std@@YAAEAPEAU?$_List_node@PEAUState@DFA@re2@@PEAX@0@AEAPEAU10@@Z
    ??$forward@AEAPEAU?$_List_node@U?$pair@$$CB_KH@std@@PEAX@std@@@std@@YAAEAPEAU?$_List_node@U?$pair@$$CB_KH@std@@PEAX@0@AEAPEAU10@@Z
    ??$forward@AEAPEAU?$_List_node@U?$pair@QEAUState@DFA@re2@@H@std@@PEAX@std@@@std@@YAAEAPEAU?$_List_node@U?$pair@QEAUState@DFA@re2@@H@std@@PEAX@0@AEAPEAU10@@Z
    ??$forward@AEAPEAU?$_Tree_node@HPEAX@std@@@std@@YAAEAPEAU?$_Tree_node@HPEAX@0@AEAPEAU10@@Z
    ??$forward@AEAPEAU?$_Tree_node@U?$pair@$$CBHH@std@@PEAX@std@@@std@@YAAEAPEAU?$_Tree_node@U?$pair@$$CBHH@std@@PEAX@0@AEAPEAU10@@Z
    ??$forward@AEAPEAU?$_Tree_node@U?$pair@$$CBHV?$basic_string@DU?$char_traits@D@std@@V?$allocator@D@2@@std@@@std@@PEAX@std@@@std@@YAAEAPEAU?$_Tree_node@U?$pair@$$CBHV?$basic_string@DU?$char_traits@D@std@@V?$allocator@D@2@@std@@@std@@PEAX@0@AEAPEAU10@@Z
    ??$forward@AEAPEAU?$_Tree_node@U?$pair@$$CBV?$basic_string@DU?$char_traits@D@std@@V?$allocator@D@2@@std@@H@std@@PEAX@std@@@std@@YAAEAPEAU?$_Tree_node@U?$pair@$$CBV?$basic_string@DU?$char_traits@D@std@@V?$allocator@D@2@@std@@H@std@@PEAX@0@AEAPEAU10@@Z
    ??$forward@AEAPEAU?$_Tree_node@U?$pair@$$CBV?$basic_string@DU?$char_traits@D@std@@V?$allocator@D@2@@std@@PEAVPrefilter@re2@@@std@@PEAX@std@@@std@@YAAEAPEAU?$_Tree_node@U?$pair@$$CBV?$basic_string@DU?$char_traits@D@std@@V?$allocator@D@2@@std@@PEAVPrefilter@re2@@@std@@PEAX@0@AEAPEAU10@@Z
    ??$forward@AEAPEAU?$_Tree_node@U?$pair@QEAVRegexp@re2@@H@std@@PEAX@std@@@std@@YAAEAPEAU?$_Tree_node@U?$pair@QEAVRegexp@re2@@H@std@@PEAX@0@AEAPEAU10@@Z
    ??$forward@AEAPEAU?$_Tree_node@URuneRange@re2@@PEAX@std@@@std@@YAAEAPEAU?$_Tree_node@URuneRange@re2@@PEAX@0@AEAPEAU10@@Z
    ??$forward@AEAPEAU?$_Tree_node@V?$basic_string@DU?$char_traits@D@std@@V?$allocator@D@2@@std@@PEAX@std@@@std@@YAAEAPEAU?$_Tree_node@V?$basic_string@DU?$char_traits@D@std@@V?$allocator@D@2@@std@@PEAX@0@AEAPEAU10@@Z
    ??$forward@AEAPEAU?$pair@V?$basic_string@DU?$char_traits@D@std@@V?$allocator@D@2@@std@@PEAVRegexp@re2@@@std@@@std@@YAAEAPEAU?$pair@V?$basic_string@DU?$char_traits@D@std@@V?$allocator@D@2@@std@@PEAVRegexp@re2@@@0@AEAPEAU10@@Z
    ??$forward@AEAPEAUAddState@NFA@re2@@@std@@YAAEAPEAUAddState@NFA@re2@@AEAPEAU123@@Z
    ??$forward@AEAPEAUInstCond@re2@@@std@@YAAEAPEAUInstCond@re2@@AEAPEAU12@@Z
    ??$forward@AEAPEAUJob@re2@@@std@@YAAEAPEAUJob@re2@@AEAPEAU12@@Z
    ??$forward@AEAPEAUState@DFA@re2@@@std@@YAAEAPEAUState@DFA@re2@@AEAPEAU123@@Z
    ??$forward@AEAPEAVIndexValue@?$SparseArray@H@re2@@@std@@YAAEAPEAVIndexValue@?$SparseArray@H@re2@@AEAPEAV123@@Z
    ??$forward@AEAPEAVIndexValue@?$SparseArray@PEAUThread@NFA@re2@@@re2@@@std@@YAAEAPEAVIndexValue@?$SparseArray@PEAUThread@NFA@re2@@@re2@@AEAPEAV123@@Z
    ??$forward@AEAPEAVInst@Prog@re2@@@std@@YAAEAPEAVInst@Prog@re2@@AEAPEAV123@@Z
    ??$forward@AEAPEAVPrefilter@re2@@@std@@YAAEAPEAVPrefilter@re2@@AEAPEAV12@@Z
    ??$forward@AEAPEAVPrefilterTree@re2@@@std@@YAAEAPEAVPrefilterTree@re2@@AEAPEAV12@@Z
    ??$forward@AEAPEAVRegexp@re2@@@std@@YAAEAPEAVRegexp@re2@@AEAPEAV12@@Z
    ??$forward@AEAPEA_K@std@@YAAEAPEA_KAEAPEA_K@Z
    ??$forward@AEBE@std@@YAAEBEAEBE@Z
    ??$forward@AEBH@std@@YAAEBHAEBH@Z
    ??$forward@AEBQEAD@std@@YAAEBQEADAEBQEAD@Z
    ??$forward@AEBQEAU?$_List_node@PEAUState@DFA@re2@@PEAX@std@@@std@@YAAEBQEAU?$_List_node@PEAUState@DFA@re2@@PEAX@0@AEBQEAU10@@Z
    ??$forward@AEBQEAU?$_List_node@U?$pair@$$CB_KH@std@@PEAX@std@@@std@@YAAEBQEAU?$_List_node@U?$pair@$$CB_KH@std@@PEAX@0@AEBQEAU10@@Z
    ??$forward@AEBQEAU?$_List_node@U?$pair@QEAUState@DFA@re2@@H@std@@PEAX@std@@@std@@YAAEBQEAU?$_List_node@U?$pair@QEAUState@DFA@re2@@H@std@@PEAX@0@AEBQEAU10@@Z
    ??$forward@AEBQEAU?$_Tree_node@HPEAX@std@@@std@@YAAEBQEAU?$_Tree_node@HPEAX@0@AEBQEAU10@@Z
    ??$forward@AEBQEAU?$_Tree_node@U?$pair@$$CBHH@std@@PEAX@std@@@std@@YAAEBQEAU?$_Tree_node@U?$pair@$$CBHH@std@@PEAX@0@AEBQEAU10@@Z
    ??$forward@AEBQEAU?$_Tree_node@U?$pair@$$CBHV?$basic_string@DU?$char_traits@D@std@@V?$allocator@D@2@@std@@@std@@PEAX@std@@@std@@YAAEBQEAU?$_Tree_node@U?$pair@$$CBHV?$basic_string@DU?$char_traits@D@std@@V?$allocator@D@2@@std@@@std@@PEAX@0@AEBQEAU10@@Z
    ??$forward@AEBQEAU?$_Tree_node@U?$pair@$$CBV?$basic_string@DU?$char_traits@D@std@@V?$allocator@D@2@@std@@H@std@@PEAX@std@@@std@@YAAEBQEAU?$_Tree_node@U?$pair@$$CBV?$basic_string@DU?$char_traits@D@std@@V?$allocator@D@2@@std@@H@std@@PEAX@0@AEBQEAU10@@Z
    ??$forward@AEBQEAU?$_Tree_node@U?$pair@$$CBV?$basic_string@DU?$char_traits@D@std@@V?$allocator@D@2@@std@@PEAVPrefilter@re2@@@std@@PEAX@std@@@std@@YAAEBQEAU?$_Tree_node@U?$pair@$$CBV?$basic_string@DU?$char_traits@D@std@@V?$allocator@D@2@@std@@PEAVPrefilter@re2@@@std@@PEAX@0@AEBQEAU10@@Z
    ??$forward@AEBQEAU?$_Tree_node@U?$pair@QEAVRegexp@re2@@H@std@@PEAX@std@@@std@@YAAEBQEAU?$_Tree_node@U?$pair@QEAVRegexp@re2@@H@std@@PEAX@0@AEBQEAU10@@Z
    ??$forward@AEBQEAU?$_Tree_node@URuneRange@re2@@PEAX@std@@@std@@YAAEBQEAU?$_Tree_node@URuneRange@re2@@PEAX@0@AEBQEAU10@@Z
    ??$forward@AEBQEAU?$_Tree_node@V?$basic_string@DU?$char_traits@D@std@@V?$allocator@D@2@@std@@PEAX@std@@@std@@YAAEBQEAU?$_Tree_node@V?$basic_string@DU?$char_traits@D@std@@V?$allocator@D@2@@std@@PEAX@0@AEBQEAU10@@Z
    ??$forward@AEBQEAUState@DFA@re2@@@std@@YAAEBQEAUState@DFA@re2@@AEBQEAU123@@Z
    ??$forward@AEBQEAVPrefilter@re2@@@std@@YAAEBQEAVPrefilter@re2@@AEBQEAV12@@Z
    ??$forward@AEBQEAVRE2@re2@@@std@@YAAEBQEAVRE2@re2@@AEBQEAV12@@Z
    ??$forward@AEBQEAVRegexp@re2@@@std@@YAAEBQEAVRegexp@re2@@AEBQEAV12@@Z
    ??$forward@AEBU?$less@H@std@@@std@@YAAEBU?$less@H@0@AEBU10@@Z
    ??$forward@AEBU?$less@PEAVRegexp@re2@@@std@@@std@@YAAEBU?$less@PEAVRegexp@re2@@@0@AEBU10@@Z
    ??$forward@AEBU?$less@V?$basic_string@DU?$char_traits@D@std@@V?$allocator@D@2@@std@@@std@@@std@@YAAEBU?$less@V?$basic_string@DU?$char_traits@D@std@@V?$allocator@D@2@@std@@@0@AEBU10@@Z
    ??$forward@AEBURuneRange@re2@@@std@@YAAEBURuneRange@re2@@AEBU12@@Z
    ??$forward@AEBURuneRangeLess@re2@@@std@@YAAEBURuneRangeLess@re2@@AEBU12@@Z
    ??$forward@AEBUpiecewise_construct_t@std@@@std@@YAAEBUpiecewise_construct_t@0@AEBU10@@Z
    ??$forward@AEBV?$_List_unchecked_const_iterator@V?$_List_val@U?$_List_simple_types@PEAUState@DFA@re2@@@std@@@std@@U_Iterator_base0@2@@std@@@std@@YAAEBV?$_List_unchecked_const_iterator@V?$_List_val@U?$_List_simple_types@PEAUState@DFA@re2@@@std@@@std@@U_Iterator_base0@2@@0@AEBV10@@Z
    ??$forward@AEBV?$_List_unchecked_iterator@V?$_List_val@U?$_List_simple_types@U?$pair@$$CB_KH@std@@@std@@@std@@@std@@@std@@YAAEBV?$_List_unchecked_iterator@V?$_List_val@U?$_List_simple_types@U?$pair@$$CB_KH@std@@@std@@@std@@@0@AEBV10@@Z
    ??$forward@AEBV?$_List_unchecked_iterator@V?$_List_val@U?$_List_simple_types@U?$pair@QEAUState@DFA@re2@@H@std@@@std@@@std@@@std@@@std@@YAAEBV?$_List_unchecked_iterator@V?$_List_val@U?$_List_simple_types@U?$pair@QEAUState@DFA@re2@@H@std@@@std@@@std@@@0@AEBV10@@Z
    ??$forward@AEBV?$allocator@D@std@@@std@@YAAEBV?$allocator@D@0@AEBV10@@Z
    ??$forward@AEBV?$allocator@H@std@@@std@@YAAEBV?$allocator@H@0@AEBV10@@Z
    ??$forward@AEBV?$allocator@PEAUState@DFA@re2@@@std@@@std@@YAAEBV?$allocator@PEAUState@DFA@re2@@@0@AEBV10@@Z
    ??$forward@AEBV?$allocator@U?$pair@$$CB_KH@std@@@std@@@std@@YAAEBV?$allocator@U?$pair@$$CB_KH@std@@@0@AEBV10@@Z
    ??$forward@AEBV?$allocator@U?$pair@QEAUState@DFA@re2@@H@std@@@std@@@std@@YAAEBV?$allocator@U?$pair@QEAUState@DFA@re2@@H@std@@@0@AEBV10@@Z
    ??$forward@AEBV?$basic_string@DU?$char_traits@D@std@@V?$allocator@D@2@@std@@@std@@YAAEBV?$basic_string@DU?$char_traits@D@std@@V?$allocator@D@2@@0@AEBV10@@Z
    ??$forward@AEB_K@std@@YAAEB_KAEB_K@Z
    ??$forward@AEB_N@std@@YAAEB_NAEB_N@Z
    ??$forward@H@std@@YA$$QEAHAEAH@Z
    ??$forward@M@std@@YA$$QEAMAEAM@Z
    ??$forward@PEAPEAVRegexp@re2@@@std@@YA$$QEAPEAPEAVRegexp@re2@@AEAPEAPEAV12@@Z
    ??$forward@PEAU?$_List_node@U?$pair@$$CB_KH@std@@PEAX@std@@@std@@YA$$QEAPEAU?$_List_node@U?$pair@$$CB_KH@std@@PEAX@0@AEAPEAU10@@Z
    ??$forward@PEAU?$_List_node@U?$pair@QEAUState@DFA@re2@@H@std@@PEAX@std@@@std@@YA$$QEAPEAU?$_List_node@U?$pair@QEAUState@DFA@re2@@H@std@@PEAX@0@AEAPEAU10@@Z
    ??$forward@PEAU?$_Tree_node@HPEAX@std@@@std@@YA$$QEAPEAU?$_Tree_node@HPEAX@0@AEAPEAU10@@Z
    ??$forward@PEAU?$_Tree_node@U?$pair@$$CBHH@std@@PEAX@std@@@std@@YA$$QEAPEAU?$_Tree_node@U?$pair@$$CBHH@std@@PEAX@0@AEAPEAU10@@Z
    ??$forward@PEAU?$_Tree_node@U?$pair@$$CBHV?$basic_string@DU?$char_traits@D@std@@V?$allocator@D@2@@std@@@std@@PEAX@std@@@std@@YA$$QEAPEAU?$_Tree_node@U?$pair@$$CBHV?$basic_string@DU?$char_traits@D@std@@V?$allocator@D@2@@std@@@std@@PEAX@0@AEAPEAU10@@Z
    ??$forward@PEAU?$_Tree_node@U?$pair@$$CBV?$basic_string@DU?$char_traits@D@std@@V?$allocator@D@2@@std@@H@std@@PEAX@std@@@std@@YA$$QEAPEAU?$_Tree_node@U?$pair@$$CBV?$basic_string@DU?$char_traits@D@std@@V?$allocator@D@2@@std@@H@std@@PEAX@0@AEAPEAU10@@Z
    ??$forward@PEAU?$_Tree_node@U?$pair@$$CBV?$basic_string@DU?$char_traits@D@std@@V?$allocator@D@2@@std@@PEAVPrefilter@re2@@@std@@PEAX@std@@@std@@YA$$QEAPEAU?$_Tree_node@U?$pair@$$CBV?$basic_string@DU?$char_traits@D@std@@V?$allocator@D@2@@std@@PEAVPrefilter@re2@@@std@@PEAX@0@AEAPEAU10@@Z
    ??$forward@PEAU?$_Tree_node@U?$pair@QEAVRegexp@re2@@H@std@@PEAX@std@@@std@@YA$$QEAPEAU?$_Tree_node@U?$pair@QEAVRegexp@re2@@H@std@@PEAX@0@AEAPEAU10@@Z
    ??$forward@PEAU?$_Tree_node@URuneRange@re2@@PEAX@std@@@std@@YA$$QEAPEAU?$_Tree_node@URuneRange@re2@@PEAX@0@AEAPEAU10@@Z
    ??$forward@PEAU?$_Tree_node@V?$basic_string@DU?$char_traits@D@std@@V?$allocator@D@2@@std@@PEAX@std@@@std@@YA$$QEAPEAU?$_Tree_node@V?$basic_string@DU?$char_traits@D@std@@V?$allocator@D@2@@std@@PEAX@0@AEAPEAU10@@Z
    ??$forward@PEAU_Container_base12@std@@@std@@YA$$QEAPEAU_Container_base12@0@AEAPEAU10@@Z
    ??$forward@PEAVPrefilterTree@re2@@@std@@YA$$QEAPEAVPrefilterTree@re2@@AEAPEAV12@@Z
    ??$forward@PEAVProg@re2@@@std@@YA$$QEAPEAVProg@re2@@AEAPEAV12@@Z
    ??$forward@PEAVRegexp@re2@@@std@@YA$$QEAPEAVRegexp@re2@@AEAPEAV12@@Z
    ??$forward@PEBH@std@@YA$$QEAPEBHAEAPEBH@Z
    ??$forward@PEBVRE2@re2@@@std@@YA$$QEAPEBVRE2@re2@@AEAPEBV12@@Z
    ??$forward@U?$WalkState@H@re2@@@std@@YA$$QEAU?$WalkState@H@re2@@AEAU12@@Z
    ??$forward@U?$WalkState@PEAVInfo@Prefilter@re2@@@re2@@@std@@YA$$QEAU?$WalkState@PEAVInfo@Prefilter@re2@@@re2@@AEAU12@@Z
    ??$forward@U?$WalkState@PEAVRegexp@re2@@@re2@@@std@@YA$$QEAU?$WalkState@PEAVRegexp@re2@@@re2@@AEAU12@@Z
    ??$forward@U?$WalkState@UFrag@re2@@@re2@@@std@@YA$$QEAU?$WalkState@UFrag@re2@@@re2@@AEAU12@@Z
    ??$forward@U?$WalkState@_N@re2@@@std@@YA$$QEAU?$WalkState@_N@re2@@AEAU12@@Z
    ??$forward@U?$default_delete@VPrefilterTree@re2@@@std@@@std@@YA$$QEAU?$default_delete@VPrefilterTree@re2@@@0@AEAU10@@Z
    ??$forward@U?$default_delete@VProg@re2@@@std@@@std@@YA$$QEAU?$default_delete@VProg@re2@@@0@AEAU10@@Z
    ??$forward@U?$pair@HH@std@@@std@@YA$$QEAU?$pair@HH@0@AEAU10@@Z
    ??$forward@U?$pair@V?$basic_string@DU?$char_traits@D@std@@V?$allocator@D@2@@std@@PEAVRegexp@re2@@@std@@@std@@YA$$QEAU?$pair@V?$basic_string@DU?$char_traits@D@std@@V?$allocator@D@2@@std@@PEAVRegexp@re2@@@0@AEAU10@@Z
    ??$forward@UDeleter@?$PODArray@E@re2@@@std@@YA$$QEAUDeleter@?$PODArray@E@re2@@AEAU123@@Z
    ??$forward@UDeleter@?$PODArray@G@re2@@@std@@YA$$QEAUDeleter@?$PODArray@G@re2@@AEAU123@@Z
    ??$forward@UDeleter@?$PODArray@H@re2@@@std@@YA$$QEAUDeleter@?$PODArray@H@re2@@AEAU123@@Z
    ??$forward@UDeleter@?$PODArray@PEAVRegexp@re2@@@re2@@@std@@YA$$QEAUDeleter@?$PODArray@PEAVRegexp@re2@@@re2@@AEAU123@@Z
    ??$forward@UDeleter@?$PODArray@PEBD@re2@@@std@@YA$$QEAUDeleter@?$PODArray@PEBD@re2@@AEAU123@@Z
    ??$forward@UDeleter@?$PODArray@UAddState@NFA@re2@@@re2@@@std@@YA$$QEAUDeleter@?$PODArray@UAddState@NFA@re2@@@re2@@AEAU123@@Z
    ??$forward@UDeleter@?$PODArray@UInstCond@re2@@@re2@@@std@@YA$$QEAUDeleter@?$PODArray@UInstCond@re2@@@re2@@AEAU123@@Z
    ??$forward@UDeleter@?$PODArray@UJob@re2@@@re2@@@std@@YA$$QEAUDeleter@?$PODArray@UJob@re2@@@re2@@AEAU123@@Z
    ??$forward@UDeleter@?$PODArray@VIndexValue@?$SparseArray@H@re2@@@re2@@@std@@YA$$QEAUDeleter@?$PODArray@VIndexValue@?$SparseArray@H@re2@@@re2@@AEAU123@@Z
    ??$forward@UDeleter@?$PODArray@VIndexValue@?$SparseArray@PEAUThread@NFA@re2@@@re2@@@re2@@@std@@YA$$QEAUDeleter@?$PODArray@VIndexValue@?$SparseArray@PEAUThread@NFA@re2@@@re2@@@re2@@AEAU123@@Z
    ??$forward@UDeleter@?$PODArray@VInst@Prog@re2@@@re2@@@std@@YA$$QEAUDeleter@?$PODArray@VInst@Prog@re2@@@re2@@AEAU123@@Z
    ??$forward@UDeleter@?$PODArray@_K@re2@@@std@@YA$$QEAUDeleter@?$PODArray@_K@re2@@AEAU123@@Z
    ??$forward@UEntry@PrefilterTree@re2@@@std@@YA$$QEAUEntry@PrefilterTree@re2@@AEAU123@@Z
    ??$forward@UFrame@re2@@@std@@YA$$QEAUFrame@re2@@AEAU12@@Z
    ??$forward@URuneRange@re2@@@std@@YA$$QEAURuneRange@re2@@AEAU12@@Z
    ??$forward@USplice@re2@@@std@@YA$$QEAUSplice@re2@@AEAU12@@Z
    ??$forward@U_Zero_then_variadic_args_t@std@@@std@@YA$$QEAU_Zero_then_variadic_args_t@0@AEAU10@@Z
    ??$forward@V?$_List_iterator@V?$_List_val@U?$_List_simple_types@PEAUState@DFA@re2@@@std@@@std@@@std@@@std@@YA$$QEAV?$_List_iterator@V?$_List_val@U?$_List_simple_types@PEAUState@DFA@re2@@@std@@@std@@@0@AEAV10@@Z
    ??$forward@V?$_List_iterator@V?$_List_val@U?$_List_simple_types@U?$pair@QEAUState@DFA@re2@@H@std@@@std@@@std@@@std@@@std@@YA$$QEAV?$_List_iterator@V?$_List_val@U?$_List_simple_types@U?$pair@QEAUState@DFA@re2@@H@std@@@std@@@std@@@0@AEAV10@@Z
    ??$forward@V?$_Tree_const_iterator@V?$_Tree_val@U?$_Tree_simple_types@H@std@@@std@@@std@@@std@@YA$$QEAV?$_Tree_const_iterator@V?$_Tree_val@U?$_Tree_simple_types@H@std@@@std@@@0@AEAV10@@Z
    ??$forward@V?$_Tree_const_iterator@V?$_Tree_val@U?$_Tree_simple_types@URuneRange@re2@@@std@@@std@@@std@@@std@@YA$$QEAV?$_Tree_const_iterator@V?$_Tree_val@U?$_Tree_simple_types@URuneRange@re2@@@std@@@std@@@0@AEAV10@@Z
    ??$forward@V?$_Tree_const_iterator@V?$_Tree_val@U?$_Tree_simple_types@V?$basic_string@DU?$char_traits@D@std@@V?$allocator@D@2@@std@@@std@@@std@@@std@@@std@@YA$$QEAV?$_Tree_const_iterator@V?$_Tree_val@U?$_Tree_simple_types@V?$basic_string@DU?$char_traits@D@std@@V?$allocator@D@2@@std@@@std@@@std@@@0@AEAV10@@Z
    ??$forward@V?$_Tree_iterator@V?$_Tree_val@U?$_Tree_simple_types@U?$pair@$$CBV?$basic_string@DU?$char_traits@D@std@@V?$allocator@D@2@@std@@PEAVPrefilter@re2@@@std@@@std@@@std@@@std@@@std@@YA$$QEAV?$_Tree_iterator@V?$_Tree_val@U?$_Tree_simple_types@U?$pair@$$CBV?$basic_string@DU?$char_traits@D@std@@V?$allocator@D@2@@std@@PEAVPrefilter@re2@@@std@@@std@@@std@@@0@AEAV10@@Z
    ??$forward@V?$allocator@D@std@@@std@@YA$$QEAV?$allocator@D@0@AEAV10@@Z
    ??$forward@V?$allocator@H@std@@@std@@YA$$QEAV?$allocator@H@0@AEAV10@@Z
    ??$forward@V?$allocator@PEAVRE2@re2@@@std@@@std@@YA$$QEAV?$allocator@PEAVRE2@re2@@@0@AEAV10@@Z
    ??$forward@V?$allocator@U?$pair@V?$basic_string@DU?$char_traits@D@std@@V?$allocator@D@2@@std@@PEAVRegexp@re2@@@std@@@std@@@std@@YA$$QEAV?$allocator@U?$pair@V?$basic_string@DU?$char_traits@D@std@@V?$allocator@D@2@@std@@PEAVRegexp@re2@@@std@@@0@AEAV10@@Z
    ??$forward@V?$allocator@USplice@re2@@@std@@@std@@YA$$QEAV?$allocator@USplice@re2@@@0@AEAV10@@Z
    ??$forward@V?$basic_string@DU?$char_traits@D@std@@V?$allocator@D@2@@std@@@std@@YA$$QEAV?$basic_string@DU?$char_traits@D@std@@V?$allocator@D@2@@0@AEAV10@@Z
    ??$forward@V?$tuple@$$QEAH@std@@@std@@YA$$QEAV?$tuple@$$QEAH@0@AEAV10@@Z
    ??$forward@V?$tuple@$$QEAPEAVRegexp@re2@@@std@@@std@@YA$$QEAV?$tuple@$$QEAPEAVRegexp@re2@@@0@AEAV10@@Z
    ??$forward@V?$tuple@$$V@std@@@std@@YA$$QEAV?$tuple@$$V@0@AEAV10@@Z
    ??$forward@V?$tuple@AEBH@std@@@std@@YA$$QEAV?$tuple@AEBH@0@AEAV10@@Z
    ??$forward@V?$tuple@AEBQEAUState@DFA@re2@@@std@@@std@@YA$$QEAV?$tuple@AEBQEAUState@DFA@re2@@@0@AEAV10@@Z
    ??$forward@V?$tuple@AEBV?$basic_string@DU?$char_traits@D@std@@V?$allocator@D@2@@std@@@std@@@std@@YA$$QEAV?$tuple@AEBV?$basic_string@DU?$char_traits@D@std@@V?$allocator@D@2@@std@@@0@AEAV10@@Z
    ??$forward@V?$tuple@AEB_K@std@@@std@@YA$$QEAV?$tuple@AEB_K@0@AEAV10@@Z
    ??$forward@V?$vector@HV?$allocator@H@std@@@std@@@std@@YA$$QEAV?$vector@HV?$allocator@H@std@@@0@AEAV10@@Z
    ??$forward@_N@std@@YA$$QEA_NAEA_N@Z
    ??$forward_as_tuple@$$V@std@@YA?AV?$tuple@$$V@0@XZ
    ??$forward_as_tuple@AEBH@std@@YA?AV?$tuple@AEBH@0@AEBH@Z
    ??$forward_as_tuple@AEBQEAUState@DFA@re2@@@std@@YA?AV?$tuple@AEBQEAUState@DFA@re2@@@0@AEBQEAUState@DFA@re2@@@Z
    ??$forward_as_tuple@AEBV?$basic_string@DU?$char_traits@D@std@@V?$allocator@D@2@@std@@@std@@YA?AV?$tuple@AEBV?$basic_string@DU?$char_traits@D@std@@V?$allocator@D@2@@std@@@0@AEBV?$basic_string@DU?$char_traits@D@std@@V?$allocator@D@2@@0@@Z
    ??$forward_as_tuple@AEB_K@std@@YA?AV?$tuple@AEB_K@0@AEB_K@Z
    ??$forward_as_tuple@H@std@@YA?AV?$tuple@$$QEAH@0@$$QEAH@Z
    ??$forward_as_tuple@PEAVRegexp@re2@@@std@@YA?AV?$tuple@$$QEAPEAVRegexp@re2@@@0@$$QEAPEAVRegexp@re2@@@Z
    ??$get@$0A@$$QEAH@std@@YA$$QEAH$$QEAV?$tuple@$$QEAH@0@@Z
    ??$get@$0A@$$QEAPEAVRegexp@re2@@@std@@YA$$QEAPEAVRegexp@re2@@$$QEAV?$tuple@$$QEAPEAVRegexp@re2@@@0@@Z
    ??$get@$0A@AEBH@std@@YAAEBH$$QEAV?$tuple@AEBH@0@@Z
    ??$get@$0A@AEBQEAUState@DFA@re2@@@std@@YAAEBQEAUState@DFA@re2@@$$QEAV?$tuple@AEBQEAUState@DFA@re2@@@0@@Z
    ??$get@$0A@AEBV?$basic_string@DU?$char_traits@D@std@@V?$allocator@D@2@@std@@@std@@YAAEBV?$basic_string@DU?$char_traits@D@std@@V?$allocator@D@2@@0@$$QEAV?$tuple@AEBV?$basic_string@DU?$char_traits@D@std@@V?$allocator@D@2@@std@@@0@@Z
    ??$get@$0A@AEB_K@std@@YAAEB_K$$QEAV?$tuple@AEB_K@0@@Z
    ??$insert@$0A@$0A@@?$_Tree@V?$_Tset_traits@HU?$less@H@std@@V?$allocator@H@2@$0A@@std@@@std@@QEAA?AU?$pair@V?$_Tree_const_iterator@V?$_Tree_val@U?$_Tree_simple_types@H@std@@@std@@@std@@_N@1@AEBH@Z
    ??$insert@$0A@$0A@@?$_Tree@V?$_Tset_traits@URuneRange@re2@@URuneRangeLess@2@V?$allocator@URuneRange@re2@@@std@@$0A@@std@@@std@@QEAA?AU?$pair@V?$_Tree_const_iterator@V?$_Tree_val@U?$_Tree_simple_types@URuneRange@re2@@@std@@@std@@@std@@_N@1@$$QEAURuneRange@re2@@@Z
    ??$insert@$0A@$0A@@?$_Tree@V?$_Tset_traits@URuneRange@re2@@URuneRangeLess@2@V?$allocator@URuneRange@re2@@@std@@$0A@@std@@@std@@QEAA?AU?$pair@V?$_Tree_const_iterator@V?$_Tree_val@U?$_Tree_simple_types@URuneRange@re2@@@std@@@std@@@std@@_N@1@AEBURuneRange@re2@@@Z
    ??$insert@$0A@$0A@@?$_Tree@V?$_Tset_traits@V?$basic_string@DU?$char_traits@D@std@@V?$allocator@D@2@@std@@U?$less@V?$basic_string@DU?$char_traits@D@std@@V?$allocator@D@2@@std@@@2@V?$allocator@V?$basic_string@DU?$char_traits@D@std@@V?$allocator@D@2@@std@@@2@$0A@@std@@@std@@QEAA?AU?$pair@V?$_Tree_const_iterator@V?$_Tree_val@U?$_Tree_simple_types@V?$basic_string@DU?$char_traits@D@std@@V?$allocator@D@2@@std@@@std@@@std@@@std@@_N@1@$$QEAV?$basic_string@DU?$char_traits@D@std@@V?$allocator@D@2@@1@@Z
    ??$insert@$0A@$0A@@?$_Tree@V?$_Tset_traits@V?$basic_string@DU?$char_traits@D@std@@V?$allocator@D@2@@std@@U?$less@V?$basic_string@DU?$char_traits@D@std@@V?$allocator@D@2@@std@@@2@V?$allocator@V?$basic_string@DU?$char_traits@D@std@@V?$allocator@D@2@@std@@@2@$0A@@std@@@std@@QEAA?AU?$pair@V?$_Tree_const_iterator@V?$_Tree_val@U?$_Tree_simple_types@V?$basic_string@DU?$char_traits@D@std@@V?$allocator@D@2@@std@@@std@@@std@@@std@@_N@1@AEBV?$basic_string@DU?$char_traits@D@std@@V?$allocator@D@2@@1@@Z
    ??$insert@V?$_Vector_const_iterator@V?$_Vector_val@U?$_Simple_types@H@std@@@std@@@std@@$0A@@?$vector@HV?$allocator@H@std@@@std@@QEAA?AV?$_Vector_iterator@V?$_Vector_val@U?$_Simple_types@H@std@@@std@@@1@V?$_Vector_const_iterator@V?$_Vector_val@U?$_Simple_types@H@std@@@std@@@1@00@Z
    ??$iter_swap@PEAHPEAH@std@@YAXPEAH0@Z
    ??$iter_swap@PEAU?$pair@V?$basic_string@DU?$char_traits@D@std@@V?$allocator@D@2@@std@@PEAVRegexp@re2@@@std@@PEAU12@@std@@YAXPEAU?$pair@V?$basic_string@DU?$char_traits@D@std@@V?$allocator@D@2@@std@@PEAVRegexp@re2@@@0@0@Z
    ??$iter_swap@PEAVIndexValue@?$SparseArray@H@re2@@PEAV123@@std@@YAXPEAVIndexValue@?$SparseArray@H@re2@@0@Z
    ??$max@H@std@@YAAEBHAEBH0@Z
    ??$max@PEAD@std@@YAAEBQEADAEBQEAD0@Z
    ??$max@_K@std@@YAAEB_KAEB_K0@Z
    ??$min@H@std@@YAAEBHAEBH0@Z
    ??$min@_J@std@@YAAEB_JAEB_J0@Z
    ??$min@_K@std@@YAAEB_KAEB_K0@Z
    ??$move@AEAD@std@@YA$$QEADAEAD@Z
    ??$move@AEAE@std@@YA$$QEAEAEAE@Z
    ??$move@AEAH@std@@YA$$QEAHAEAH@Z
    ??$move@AEAPEAV?$SparseArray@PEAUThread@NFA@re2@@@re2@@@std@@YA$$QEAPEAV?$SparseArray@PEAUThread@NFA@re2@@@re2@@AEAPEAV12@@Z
    ??$move@AEAPEAVRegexp@re2@@@std@@YA$$QEAPEAVRegexp@re2@@AEAPEAV12@@Z
    ??$move@AEAPEAVWorkq@DFA@re2@@@std@@YA$$QEAPEAVWorkq@DFA@re2@@AEAPEAV123@@Z
    ??$move@AEAPEBE@std@@YA$$QEAPEBEAEAPEBE@Z
    ??$move@AEAU?$WalkState@H@re2@@@std@@YA$$QEAU?$WalkState@H@re2@@AEAU12@@Z
    ??$move@AEAU?$WalkState@PEAVInfo@Prefilter@re2@@@re2@@@std@@YA$$QEAU?$WalkState@PEAVInfo@Prefilter@re2@@@re2@@AEAU12@@Z
    ??$move@AEAU?$WalkState@PEAVRegexp@re2@@@re2@@@std@@YA$$QEAU?$WalkState@PEAVRegexp@re2@@@re2@@AEAU12@@Z
    ??$move@AEAU?$WalkState@UFrag@re2@@@re2@@@std@@YA$$QEAU?$WalkState@UFrag@re2@@@re2@@AEAU12@@Z
    ??$move@AEAU?$WalkState@_N@re2@@@std@@YA$$QEAU?$WalkState@_N@re2@@AEAU12@@Z
    ??$move@AEAU?$pair@HH@std@@@std@@YA$$QEAU?$pair@HH@0@AEAU10@@Z
    ??$move@AEAU?$pair@V?$basic_string@DU?$char_traits@D@std@@V?$allocator@D@2@@std@@PEAVRegexp@re2@@@std@@@std@@YA$$QEAU?$pair@V?$basic_string@DU?$char_traits@D@std@@V?$allocator@D@2@@std@@PEAVRegexp@re2@@@0@AEAU10@@Z
    ??$move@AEAUDeleter@?$PODArray@E@re2@@@std@@YA$$QEAUDeleter@?$PODArray@E@re2@@AEAU123@@Z
    ??$move@AEAUDeleter@?$PODArray@G@re2@@@std@@YA$$QEAUDeleter@?$PODArray@G@re2@@AEAU123@@Z
    ??$move@AEAUDeleter@?$PODArray@H@re2@@@std@@YA$$QEAUDeleter@?$PODArray@H@re2@@AEAU123@@Z
    ??$move@AEAUDeleter@?$PODArray@PEAVRegexp@re2@@@re2@@@std@@YA$$QEAUDeleter@?$PODArray@PEAVRegexp@re2@@@re2@@AEAU123@@Z
    ??$move@AEAUDeleter@?$PODArray@PEBD@re2@@@std@@YA$$QEAUDeleter@?$PODArray@PEBD@re2@@AEAU123@@Z
    ??$move@AEAUDeleter@?$PODArray@UAddState@NFA@re2@@@re2@@@std@@YA$$QEAUDeleter@?$PODArray@UAddState@NFA@re2@@@re2@@AEAU123@@Z
    ??$move@AEAUDeleter@?$PODArray@UInstCond@re2@@@re2@@@std@@YA$$QEAUDeleter@?$PODArray@UInstCond@re2@@@re2@@AEAU123@@Z
    ??$move@AEAUDeleter@?$PODArray@UJob@re2@@@re2@@@std@@YA$$QEAUDeleter@?$PODArray@UJob@re2@@@re2@@AEAU123@@Z
    ??$move@AEAUDeleter@?$PODArray@VIndexValue@?$SparseArray@H@re2@@@re2@@@std@@YA$$QEAUDeleter@?$PODArray@VIndexValue@?$SparseArray@H@re2@@@re2@@AEAU123@@Z
    ??$move@AEAUDeleter@?$PODArray@VIndexValue@?$SparseArray@PEAUThread@NFA@re2@@@re2@@@re2@@@std@@YA$$QEAUDeleter@?$PODArray@VIndexValue@?$SparseArray@PEAUThread@NFA@re2@@@re2@@@re2@@AEAU123@@Z
    ??$move@AEAUDeleter@?$PODArray@VInst@Prog@re2@@@re2@@@std@@YA$$QEAUDeleter@?$PODArray@VInst@Prog@re2@@@re2@@AEAU123@@Z
    ??$move@AEAUDeleter@?$PODArray@_K@re2@@@std@@YA$$QEAUDeleter@?$PODArray@_K@re2@@AEAU123@@Z
    ??$move@AEAUEntry@PrefilterTree@re2@@@std@@YA$$QEAUEntry@PrefilterTree@re2@@AEAU123@@Z
    ??$move@AEAUFrame@re2@@@std@@YA$$QEAUFrame@re2@@AEAU12@@Z
    ??$move@AEAURuneRange@re2@@@std@@YA$$QEAURuneRange@re2@@AEAU12@@Z
    ??$move@AEAUSplice@re2@@@std@@YA$$QEAUSplice@re2@@AEAU12@@Z
    ??$move@AEAV?$PODArray@H@re2@@@std@@YA$$QEAV?$PODArray@H@re2@@AEAV12@@Z
    ??$move@AEAV?$PODArray@UJob@re2@@@re2@@@std@@YA$$QEAV?$PODArray@UJob@re2@@@re2@@AEAV12@@Z
    ??$move@AEAV?$PODArray@VIndexValue@?$SparseArray@PEAUThread@NFA@re2@@@re2@@@re2@@@std@@YA$$QEAV?$PODArray@VIndexValue@?$SparseArray@PEAUThread@NFA@re2@@@re2@@@re2@@AEAV12@@Z
    ??$move@AEAV?$PODArray@VInst@Prog@re2@@@re2@@@std@@YA$$QEAV?$PODArray@VInst@Prog@re2@@@re2@@AEAV12@@Z
    ??$move@AEAV?$allocator@D@std@@@std@@YA$$QEAV?$allocator@D@0@AEAV10@@Z
    ??$move@AEAV?$allocator@H@std@@@std@@YA$$QEAV?$allocator@H@0@AEAV10@@Z
    ??$move@AEAV?$allocator@PEAVRE2@re2@@@std@@@std@@YA$$QEAV?$allocator@PEAVRE2@re2@@@0@AEAV10@@Z
    ??$move@AEAV?$allocator@U?$pair@V?$basic_string@DU?$char_traits@D@std@@V?$allocator@D@2@@std@@PEAVRegexp@re2@@@std@@@std@@@std@@YA$$QEAV?$allocator@U?$pair@V?$basic_string@DU?$char_traits@D@std@@V?$allocator@D@2@@std@@PEAVRegexp@re2@@@std@@@0@AEAV10@@Z
    ??$move@AEAV?$allocator@USplice@re2@@@std@@@std@@YA$$QEAV?$allocator@USplice@re2@@@0@AEAV10@@Z
    ??$move@AEAV?$basic_string@DU?$char_traits@D@std@@V?$allocator@D@2@@std@@@std@@YA$$QEAV?$basic_string@DU?$char_traits@D@std@@V?$allocator@D@2@@0@AEAV10@@Z
    ??$move@AEAV?$tuple@$$QEAH@std@@@std@@YA$$QEAV?$tuple@$$QEAH@0@AEAV10@@Z
    ??$move@AEAV?$tuple@$$QEAPEAVRegexp@re2@@@std@@@std@@YA$$QEAV?$tuple@$$QEAPEAVRegexp@re2@@@0@AEAV10@@Z
    ??$move@AEAV?$tuple@AEBH@std@@@std@@YA$$QEAV?$tuple@AEBH@0@AEAV10@@Z
    ??$move@AEAV?$tuple@AEBQEAUState@DFA@re2@@@std@@@std@@YA$$QEAV?$tuple@AEBQEAUState@DFA@re2@@@0@AEAV10@@Z
    ??$move@AEAV?$tuple@AEBV?$basic_string@DU?$char_traits@D@std@@V?$allocator@D@2@@std@@@std@@@std@@YA$$QEAV?$tuple@AEBV?$basic_string@DU?$char_traits@D@std@@V?$allocator@D@2@@std@@@0@AEAV10@@Z
    ??$move@AEAV?$tuple@AEB_K@std@@@std@@YA$$QEAV?$tuple@AEB_K@0@AEAV10@@Z
    ??$move@AEAV?$unique_ptr@VPrefilterTree@re2@@U?$default_delete@VPrefilterTree@re2@@@std@@@std@@@std@@YA$$QEAV?$unique_ptr@VPrefilterTree@re2@@U?$default_delete@VPrefilterTree@re2@@@std@@@0@AEAV10@@Z
    ??$move@AEAV?$unique_ptr@VProg@re2@@U?$default_delete@VProg@re2@@@std@@@std@@@std@@YA$$QEAV?$unique_ptr@VProg@re2@@U?$default_delete@VProg@re2@@@std@@@0@AEAV10@@Z
    ??$move@AEAV?$vector@HV?$allocator@H@std@@@std@@@std@@YA$$QEAV?$vector@HV?$allocator@H@std@@@0@AEAV10@@Z
    ??$move@AEAV?$vector@PEAVRE2@re2@@V?$allocator@PEAVRE2@re2@@@std@@@std@@@std@@YA$$QEAV?$vector@PEAVRE2@re2@@V?$allocator@PEAVRE2@re2@@@std@@@0@AEAV10@@Z
    ??$move@AEAV?$vector@U?$pair@V?$basic_string@DU?$char_traits@D@std@@V?$allocator@D@2@@std@@PEAVRegexp@re2@@@std@@V?$allocator@U?$pair@V?$basic_string@DU?$char_traits@D@std@@V?$allocator@D@2@@std@@PEAVRegexp@re2@@@std@@@2@@std@@@std@@YA$$QEAV?$vector@U?$pair@V?$basic_string@DU?$char_traits@D@std@@V?$allocator@D@2@@std@@PEAVRegexp@re2@@@std@@V?$allocator@U?$pair@V?$basic_string@DU?$char_traits@D@std@@V?$allocator@D@2@@std@@PEAVRegexp@re2@@@std@@@2@@0@AEAV10@@Z
    ??$move@AEAVFilteredRE2@re2@@@std@@YA$$QEAVFilteredRE2@re2@@AEAV12@@Z
    ??$move@AEAVIndexValue@?$SparseArray@H@re2@@@std@@YA$$QEAVIndexValue@?$SparseArray@H@re2@@AEAV123@@Z
    ??$move@AEAVSet@RE2@re2@@@std@@YA$$QEAVSet@RE2@re2@@AEAV123@@Z
    ??$move@AEA_N@std@@YA$$QEA_NAEA_N@Z
    ??$reset@PEAEX@?$unique_ptr@$$BY0A@EUDeleter@?$PODArray@E@re2@@@std@@QEAAXPEAE@Z
    ??$reset@PEAGX@?$unique_ptr@$$BY0A@GUDeleter@?$PODArray@G@re2@@@std@@QEAAXPEAG@Z
    ??$reset@PEAHX@?$unique_ptr@$$BY0A@HUDeleter@?$PODArray@H@re2@@@std@@QEAAXPEAH@Z
    ??$reset@PEAPEAVRegexp@re2@@X@?$unique_ptr@$$BY0A@PEAVRegexp@re2@@UDeleter@?$PODArray@PEAVRegexp@re2@@@2@@std@@QEAAXPEAPEAVRegexp@re2@@@Z
    ??$reset@PEAPEBDX@?$unique_ptr@$$BY0A@PEBDUDeleter@?$PODArray@PEBD@re2@@@std@@QEAAXPEAPEBD@Z
    ??$reset@PEAUAddState@NFA@re2@@X@?$unique_ptr@$$BY0A@UAddState@NFA@re2@@UDeleter@?$PODArray@UAddState@NFA@re2@@@3@@std@@QEAAXPEAUAddState@NFA@re2@@@Z
    ??$reset@PEAUJob@re2@@X@?$unique_ptr@$$BY0A@UJob@re2@@UDeleter@?$PODArray@UJob@re2@@@2@@std@@QEAAXPEAUJob@re2@@@Z
    ??$reset@PEAVIndexValue@?$SparseArray@PEAUThread@NFA@re2@@@re2@@X@?$unique_ptr@$$BY0A@VIndexValue@?$SparseArray@PEAUThread@NFA@re2@@@re2@@UDeleter@?$PODArray@VIndexValue@?$SparseArray@PEAUThread@NFA@re2@@@re2@@@3@@std@@QEAAXPEAVIndexValue@?$SparseArray@PEAUThread@NFA@re2@@@re2@@@Z
    ??$reset@PEAVInst@Prog@re2@@X@?$unique_ptr@$$BY0A@VInst@Prog@re2@@UDeleter@?$PODArray@VInst@Prog@re2@@@3@@std@@QEAAXPEAVInst@Prog@re2@@@Z
    ??$reset@PEA_KX@?$unique_ptr@$$BY0A@_KUDeleter@?$PODArray@_K@re2@@@std@@QEAAXPEA_K@Z
    ??$search@PEBDPEBD@std@@YAPEBDQEBD000@Z
    ??$search@PEBDPEBDU?$equal_to@X@std@@@std@@YAPEBDPEBD0QEBD1U?$equal_to@X@0@@Z
    ??$sort@PEAH@std@@YAXQEAH0@Z
    ??$sort@PEAHU?$less@X@std@@@std@@YAXQEAH0U?$less@X@0@@Z
    ??$sort@PEAVIndexValue@?$SparseArray@H@re2@@P6A_NAEBV123@0@Z@std@@YAXQEAVIndexValue@?$SparseArray@H@re2@@0P6A_NAEBV123@1@Z@Z
    ??$sort@V?$_Vector_iterator@V?$_Vector_val@U?$_Simple_types@H@std@@@std@@@std@@@std@@YAXV?$_Vector_iterator@V?$_Vector_val@U?$_Simple_types@H@std@@@std@@@0@0@Z
    ??$sort@V?$_Vector_iterator@V?$_Vector_val@U?$_Simple_types@H@std@@@std@@@std@@U?$less@X@2@@std@@YAXV?$_Vector_iterator@V?$_Vector_val@U?$_Simple_types@H@std@@@std@@@0@0U?$less@X@0@@Z
    ??$swap@D$0A@@std@@YAXAEAD0@Z
    ??$swap@DU?$char_traits@D@std@@V?$allocator@D@2@@std@@YAXAEAV?$basic_string@DU?$char_traits@D@std@@V?$allocator@D@2@@0@0@Z
    ??$swap@H$0A@@std@@YAXAEAH0@Z
    ??$swap@PEAV?$SparseArray@PEAUThread@NFA@re2@@@re2@@$0A@@std@@YAXAEAPEAV?$SparseArray@PEAUThread@NFA@re2@@@re2@@0@Z
    ??$swap@PEAVRegexp@re2@@$0A@@std@@YAXAEAPEAVRegexp@re2@@0@Z
    ??$swap@PEAVWorkq@DFA@re2@@$0A@@std@@YAXAEAPEAVWorkq@DFA@re2@@0@Z
    ??$swap@PEBE$0A@@std@@YAXAEAPEBE0@Z
    ??$swap@V?$basic_string@DU?$char_traits@D@std@@V?$allocator@D@2@@std@@PEAVRegexp@re2@@$0A@@std@@YAXAEAU?$pair@V?$basic_string@DU?$char_traits@D@std@@V?$allocator@D@2@@std@@PEAVRegexp@re2@@@0@0@Z
    ??$swap@VIndexValue@?$SparseArray@H@re2@@$0A@@std@@YAXAEAVIndexValue@?$SparseArray@H@re2@@0@Z
    ??$swap@_N$0A@@std@@YAXAEA_N0@Z
    ??$uninitialized_copy@PEAPEAPEAUState@DFA@re2@@PEAPEAPEAU123@@std@@YAPEAPEAPEAUState@DFA@re2@@QEAPEAPEAU123@0PEAPEAPEAU123@@Z
    ??$uninitialized_copy@PEAPEAU?$WalkState@H@re2@@PEAPEAU12@@std@@YAPEAPEAU?$WalkState@H@re2@@QEAPEAU12@0PEAPEAU12@@Z
    ??$uninitialized_copy@PEAPEAU?$WalkState@PEAVInfo@Prefilter@re2@@@re2@@PEAPEAU12@@std@@YAPEAPEAU?$WalkState@PEAVInfo@Prefilter@re2@@@re2@@QEAPEAU12@0PEAPEAU12@@Z
    ??$uninitialized_copy@PEAPEAU?$WalkState@PEAVRegexp@re2@@@re2@@PEAPEAU12@@std@@YAPEAPEAU?$WalkState@PEAVRegexp@re2@@@re2@@QEAPEAU12@0PEAPEAU12@@Z
    ??$uninitialized_copy@PEAPEAU?$WalkState@UFrag@re2@@@re2@@PEAPEAU12@@std@@YAPEAPEAU?$WalkState@UFrag@re2@@@re2@@QEAPEAU12@0PEAPEAU12@@Z
    ??$uninitialized_copy@PEAPEAU?$WalkState@_N@re2@@PEAPEAU12@@std@@YAPEAPEAU?$WalkState@_N@re2@@QEAPEAU12@0PEAPEAU12@@Z
    ??$uninitialized_copy@PEAPEAUThread@NFA@re2@@PEAPEAU123@@std@@YAPEAPEAUThread@NFA@re2@@QEAPEAU123@0PEAPEAU123@@Z
    ??$uninitialized_fill@PEAV?$_List_unchecked_const_iterator@V?$_List_val@U?$_List_simple_types@PEAUState@DFA@re2@@@std@@@std@@U_Iterator_base0@2@@std@@V12@@std@@YAXQEAV?$_List_unchecked_const_iterator@V?$_List_val@U?$_List_simple_types@PEAUState@DFA@re2@@@std@@@std@@U_Iterator_base0@2@@0@0AEBV10@@Z
    ??$uninitialized_fill@PEAV?$_List_unchecked_iterator@V?$_List_val@U?$_List_simple_types@U?$pair@$$CB_KH@std@@@std@@@std@@@std@@V12@@std@@YAXQEAV?$_List_unchecked_iterator@V?$_List_val@U?$_List_simple_types@U?$pair@$$CB_KH@std@@@std@@@std@@@0@0AEBV10@@Z
    ??$uninitialized_fill@PEAV?$_List_unchecked_iterator@V?$_List_val@U?$_List_simple_types@U?$pair@QEAUState@DFA@re2@@H@std@@@std@@@std@@@std@@V12@@std@@YAXQEAV?$_List_unchecked_iterator@V?$_List_val@U?$_List_simple_types@U?$pair@QEAUState@DFA@re2@@H@std@@@std@@@std@@@0@0AEBV10@@Z
    ??0?$PODArray@E@re2@@QEAA@H@Z
    ??0?$PODArray@E@re2@@QEAA@XZ
    ??0?$PODArray@G@re2@@QEAA@H@Z
    ??0?$PODArray@G@re2@@QEAA@XZ
    ??0?$PODArray@H@re2@@QEAA@H@Z
    ??0?$PODArray@H@re2@@QEAA@XZ
    ??0?$PODArray@PEAVRegexp@re2@@@re2@@QEAA@H@Z
    ??0?$PODArray@PEAVRegexp@re2@@@re2@@QEAA@XZ
    ??0?$PODArray@PEBD@re2@@QEAA@H@Z
    ??0?$PODArray@PEBD@re2@@QEAA@XZ
    ??0?$PODArray@UAddState@NFA@re2@@@re2@@QEAA@H@Z
    ??0?$PODArray@UAddState@NFA@re2@@@re2@@QEAA@XZ
    ??0?$PODArray@UInstCond@re2@@@re2@@QEAA@H@Z
    ??0?$PODArray@UJob@re2@@@re2@@QEAA@H@Z
    ??0?$PODArray@UJob@re2@@@re2@@QEAA@XZ
    ??0?$PODArray@VIndexValue@?$SparseArray@H@re2@@@re2@@QEAA@H@Z
    ??0?$PODArray@VIndexValue@?$SparseArray@PEAUThread@NFA@re2@@@re2@@@re2@@QEAA@H@Z
    ??0?$PODArray@VIndexValue@?$SparseArray@PEAUThread@NFA@re2@@@re2@@@re2@@QEAA@XZ
    ??0?$PODArray@VInst@Prog@re2@@@re2@@QEAA@H@Z
    ??0?$PODArray@VInst@Prog@re2@@@re2@@QEAA@XZ
    ??0?$PODArray@_K@re2@@QEAA@H@Z
    ??0?$PODArray@_K@re2@@QEAA@XZ
    ??0?$SparseArray@H@re2@@QEAA@AEBV01@@Z
    ??0?$SparseArray@H@re2@@QEAA@H@Z
    ??0?$SparseArray@PEAUThread@NFA@re2@@@re2@@QEAA@XZ
    ??0?$SparseSetT@X@re2@@QEAA@H@Z
    ??0?$WalkState@H@re2@@QEAA@PEAVRegexp@1@H@Z
    ??0?$WalkState@PEAVInfo@Prefilter@re2@@@re2@@QEAA@PEAVRegexp@1@PEAVInfo@Prefilter@1@@Z
    ??0?$WalkState@PEAVRegexp@re2@@@re2@@QEAA@PEAVRegexp@1@0@Z
    ??0?$WalkState@UFrag@re2@@@re2@@QEAA@PEAVRegexp@1@UFrag@1@@Z
    ??0?$WalkState@_N@re2@@QEAA@PEAVRegexp@1@_N@Z
    ??0?$Walker@H@Regexp@re2@@QEAA@XZ
    ??0?$Walker@PEAVInfo@Prefilter@re2@@@Regexp@re2@@QEAA@XZ
    ??0?$Walker@PEAVRegexp@re2@@@Regexp@re2@@QEAA@XZ
    ??0?$Walker@UFrag@re2@@@Regexp@re2@@QEAA@XZ
    ??0?$Walker@_N@Regexp@re2@@QEAA@XZ
    ??0?$_Alloc_construct_ptr@V?$allocator@U?$_List_node@PEAUState@DFA@re2@@PEAX@std@@@std@@@std@@QEAA@AEAV?$allocator@U?$_List_node@PEAUState@DFA@re2@@PEAX@std@@@1@@Z
    ??0?$_Alloc_construct_ptr@V?$allocator@U?$_List_node@U?$pair@$$CB_KH@std@@PEAX@std@@@std@@@std@@QEAA@AEAV?$allocator@U?$_List_node@U?$pair@$$CB_KH@std@@PEAX@std@@@1@@Z
    ??0?$_Alloc_construct_ptr@V?$allocator@U?$_List_node@U?$pair@QEAUState@DFA@re2@@H@std@@PEAX@std@@@std@@@std@@QEAA@AEAV?$allocator@U?$_List_node@U?$pair@QEAUState@DFA@re2@@H@std@@PEAX@std@@@1@@Z
    ??0?$_Alloc_construct_ptr@V?$allocator@U?$_Tree_node@HPEAX@std@@@std@@@std@@QEAA@AEAV?$allocator@U?$_Tree_node@HPEAX@std@@@1@@Z
    ??0?$_Alloc_construct_ptr@V?$allocator@U?$_Tree_node@U?$pair@$$CBHH@std@@PEAX@std@@@std@@@std@@QEAA@AEAV?$allocator@U?$_Tree_node@U?$pair@$$CBHH@std@@PEAX@std@@@1@@Z
    ??0?$_Alloc_construct_ptr@V?$allocator@U?$_Tree_node@U?$pair@$$CBHV?$basic_string@DU?$char_traits@D@std@@V?$allocator@D@2@@std@@@std@@PEAX@std@@@std@@@std@@QEAA@AEAV?$allocator@U?$_Tree_node@U?$pair@$$CBHV?$basic_string@DU?$char_traits@D@std@@V?$allocator@D@2@@std@@@std@@PEAX@std@@@1@@Z
    ??0?$_Alloc_construct_ptr@V?$allocator@U?$_Tree_node@U?$pair@$$CBV?$basic_string@DU?$char_traits@D@std@@V?$allocator@D@2@@std@@H@std@@PEAX@std@@@std@@@std@@QEAA@AEAV?$allocator@U?$_Tree_node@U?$pair@$$CBV?$basic_string@DU?$char_traits@D@std@@V?$allocator@D@2@@std@@H@std@@PEAX@std@@@1@@Z
    ??0?$_Alloc_construct_ptr@V?$allocator@U?$_Tree_node@U?$pair@$$CBV?$basic_string@DU?$char_traits@D@std@@V?$allocator@D@2@@std@@PEAVPrefilter@re2@@@std@@PEAX@std@@@std@@@std@@QEAA@AEAV?$allocator@U?$_Tree_node@U?$pair@$$CBV?$basic_string@DU?$char_traits@D@std@@V?$allocator@D@2@@std@@PEAVPrefilter@re2@@@std@@PEAX@std@@@1@@Z
    ??0?$_Alloc_construct_ptr@V?$allocator@U?$_Tree_node@U?$pair@QEAVRegexp@re2@@H@std@@PEAX@std@@@std@@@std@@QEAA@AEAV?$allocator@U?$_Tree_node@U?$pair@QEAVRegexp@re2@@H@std@@PEAX@std@@@1@@Z
    ??0?$_Alloc_construct_ptr@V?$allocator@U?$_Tree_node@URuneRange@re2@@PEAX@std@@@std@@@std@@QEAA@AEAV?$allocator@U?$_Tree_node@URuneRange@re2@@PEAX@std@@@1@@Z
    ??0?$_Alloc_construct_ptr@V?$allocator@U?$_Tree_node@V?$basic_string@DU?$char_traits@D@std@@V?$allocator@D@2@@std@@PEAX@std@@@std@@@std@@QEAA@AEAV?$allocator@U?$_Tree_node@V?$basic_string@DU?$char_traits@D@std@@V?$allocator@D@2@@std@@PEAX@std@@@1@@Z
    ??0?$_Atomic_pointer@PEAUState@DFA@re2@@@std@@QEAA@QEAUState@DFA@re2@@@Z
    ??0?$_Atomic_storage@PEAUState@DFA@re2@@$07@std@@QEAA@QEAUState@DFA@re2@@@Z
    ??0?$_Deque_unchecked_const_iterator@V?$_Deque_val@U?$_Deque_simple_types@PEAUState@DFA@re2@@@std@@@std@@@std@@QEAA@_KPEBU_Container_base12@1@@Z
    ??0?$_Deque_unchecked_const_iterator@V?$_Deque_val@U?$_Deque_simple_types@U?$WalkState@H@re2@@@std@@@std@@@std@@QEAA@_KPEBU_Container_base12@1@@Z
    ??0?$_Deque_unchecked_const_iterator@V?$_Deque_val@U?$_Deque_simple_types@U?$WalkState@PEAVInfo@Prefilter@re2@@@re2@@@std@@@std@@@std@@QEAA@_KPEBU_Container_base12@1@@Z
    ??0?$_Deque_unchecked_const_iterator@V?$_Deque_val@U?$_Deque_simple_types@U?$WalkState@PEAVRegexp@re2@@@re2@@@std@@@std@@@std@@QEAA@_KPEBU_Container_base12@1@@Z
    ??0?$_Deque_unchecked_const_iterator@V?$_Deque_val@U?$_Deque_simple_types@U?$WalkState@UFrag@re2@@@re2@@@std@@@std@@@std@@QEAA@_KPEBU_Container_base12@1@@Z
    ??0?$_Deque_unchecked_const_iterator@V?$_Deque_val@U?$_Deque_simple_types@U?$WalkState@_N@re2@@@std@@@std@@@std@@QEAA@_KPEBU_Container_base12@1@@Z
    ??0?$_Deque_unchecked_const_iterator@V?$_Deque_val@U?$_Deque_simple_types@UThread@NFA@re2@@@std@@@std@@@std@@QEAA@_KPEBU_Container_base12@1@@Z
    ??0?$_Deque_unchecked_iterator@V?$_Deque_val@U?$_Deque_simple_types@PEAUState@DFA@re2@@@std@@@std@@@std@@QEAA@_KPEBU_Container_base12@1@@Z
    ??0?$_Deque_unchecked_iterator@V?$_Deque_val@U?$_Deque_simple_types@U?$WalkState@H@re2@@@std@@@std@@@std@@QEAA@_KPEBU_Container_base12@1@@Z
    ??0?$_Deque_unchecked_iterator@V?$_Deque_val@U?$_Deque_simple_types@U?$WalkState@PEAVInfo@Prefilter@re2@@@re2@@@std@@@std@@@std@@QEAA@_KPEBU_Container_base12@1@@Z
    ??0?$_Deque_unchecked_iterator@V?$_Deque_val@U?$_Deque_simple_types@U?$WalkState@PEAVRegexp@re2@@@re2@@@std@@@std@@@std@@QEAA@_KPEBU_Container_base12@1@@Z
    ??0?$_Deque_unchecked_iterator@V?$_Deque_val@U?$_Deque_simple_types@U?$WalkState@UFrag@re2@@@re2@@@std@@@std@@@std@@QEAA@_KPEBU_Container_base12@1@@Z
    ??0?$_Deque_unchecked_iterator@V?$_Deque_val@U?$_Deque_simple_types@U?$WalkState@_N@re2@@@std@@@std@@@std@@QEAA@_KPEBU_Container_base12@1@@Z
    ??0?$_Deque_unchecked_iterator@V?$_Deque_val@U?$_Deque_simple_types@UThread@NFA@re2@@@std@@@std@@@std@@QEAA@_KPEBU_Container_base12@1@@Z
    ??0?$_Deque_val@U?$_Deque_simple_types@PEAUState@DFA@re2@@@std@@@std@@QEAA@XZ
    ??0?$_Deque_val@U?$_Deque_simple_types@U?$WalkState@H@re2@@@std@@@std@@QEAA@XZ
    ??0?$_Deque_val@U?$_Deque_simple_types@U?$WalkState@PEAVInfo@Prefilter@re2@@@re2@@@std@@@std@@QEAA@XZ
    ??0?$_Deque_val@U?$_Deque_simple_types@U?$WalkState@PEAVRegexp@re2@@@re2@@@std@@@std@@QEAA@XZ
    ??0?$_Deque_val@U?$_Deque_simple_types@U?$WalkState@UFrag@re2@@@re2@@@std@@@std@@QEAA@XZ
    ??0?$_Deque_val@U?$_Deque_simple_types@U?$WalkState@_N@re2@@@std@@@std@@QEAA@XZ
    ??0?$_Deque_val@U?$_Deque_simple_types@UThread@NFA@re2@@@std@@@std@@QEAA@XZ
    ??0?$_Hash@V?$_Umap_traits@PEAUState@DFA@re2@@HV?$_Uhash_compare@PEAUState@DFA@re2@@U?$hash@PEAUState@DFA@re2@@@std@@U?$equal_to@PEAUState@DFA@re2@@@5@@std@@V?$allocator@U?$pair@QEAUState@DFA@re2@@H@std@@@5@$0A@@std@@@std@@IEAA@AEBV?$_Uhash_compare@PEAUState@DFA@re2@@U?$hash@PEAUState@DFA@re2@@@std@@U?$equal_to@PEAUState@DFA@re2@@@5@@1@AEBV?$allocator@U?$pair@QEAUState@DFA@re2@@H@std@@@1@@Z
    ??0?$_Hash@V?$_Umap_traits@_KHV?$_Uhash_compare@_KU?$hash@_K@std@@U?$equal_to@_K@2@@std@@V?$allocator@U?$pair@$$CB_KH@std@@@2@$0A@@std@@@std@@IEAA@AEBV?$_Uhash_compare@_KU?$hash@_K@std@@U?$equal_to@_K@2@@1@AEBV?$allocator@U?$pair@$$CB_KH@std@@@1@@Z
    ??0?$_Hash@V?$_Uset_traits@PEAUState@DFA@re2@@V?$_Uhash_compare@PEAUState@DFA@re2@@UStateHash@23@UStateEqual@23@@std@@V?$allocator@PEAUState@DFA@re2@@@5@$0A@@std@@@std@@IEAA@AEBV?$_Uhash_compare@PEAUState@DFA@re2@@UStateHash@23@UStateEqual@23@@1@AEBV?$allocator@PEAUState@DFA@re2@@@1@@Z
    ??0?$_List_const_iterator@V?$_List_val@U?$_List_simple_types@PEAUState@DFA@re2@@@std@@@std@@@std@@QEAA@PEAU?$_List_node@PEAUState@DFA@re2@@PEAX@1@PEBV?$_List_val@U?$_List_simple_types@PEAUState@DFA@re2@@@std@@@1@@Z
    ??0?$_List_const_iterator@V?$_List_val@U?$_List_simple_types@U?$pair@$$CB_KH@std@@@std@@@std@@@std@@QEAA@PEAU?$_List_node@U?$pair@$$CB_KH@std@@PEAX@1@PEBV?$_List_val@U?$_List_simple_types@U?$pair@$$CB_KH@std@@@std@@@1@@Z
    ??0?$_List_const_iterator@V?$_List_val@U?$_List_simple_types@U?$pair@QEAUState@DFA@re2@@H@std@@@std@@@std@@@std@@QEAA@PEAU?$_List_node@U?$pair@QEAUState@DFA@re2@@H@std@@PEAX@1@PEBV?$_List_val@U?$_List_simple_types@U?$pair@QEAUState@DFA@re2@@H@std@@@std@@@1@@Z
    ??0?$_List_iterator@V?$_List_val@U?$_List_simple_types@PEAUState@DFA@re2@@@std@@@std@@@std@@QEAA@PEAU?$_List_node@PEAUState@DFA@re2@@PEAX@1@PEBV?$_List_val@U?$_List_simple_types@PEAUState@DFA@re2@@@std@@@1@@Z
    ??0?$_List_iterator@V?$_List_val@U?$_List_simple_types@U?$pair@$$CB_KH@std@@@std@@@std@@@std@@QEAA@PEAU?$_List_node@U?$pair@$$CB_KH@std@@PEAX@1@PEBV?$_List_val@U?$_List_simple_types@U?$pair@$$CB_KH@std@@@std@@@1@@Z
    ??0?$_List_iterator@V?$_List_val@U?$_List_simple_types@U?$pair@QEAUState@DFA@re2@@H@std@@@std@@@std@@@std@@QEAA@PEAU?$_List_node@U?$pair@QEAUState@DFA@re2@@H@std@@PEAX@1@PEBV?$_List_val@U?$_List_simple_types@U?$pair@QEAUState@DFA@re2@@H@std@@@std@@@1@@Z
    ??0?$_List_unchecked_const_iterator@V?$_List_val@U?$_List_simple_types@PEAUState@DFA@re2@@@std@@@std@@U_Iterator_base0@2@@std@@QEAA@PEAU?$_List_node@PEAUState@DFA@re2@@PEAX@1@PEBV?$_List_val@U?$_List_simple_types@PEAUState@DFA@re2@@@std@@@1@@Z
    ??0?$_List_unchecked_const_iterator@V?$_List_val@U?$_List_simple_types@U?$pair@$$CB_KH@std@@@std@@@std@@U_Iterator_base0@2@@std@@QEAA@PEAU?$_List_node@U?$pair@$$CB_KH@std@@PEAX@1@PEBV?$_List_val@U?$_List_simple_types@U?$pair@$$CB_KH@std@@@std@@@1@@Z
    ??0?$_List_unchecked_const_iterator@V?$_List_val@U?$_List_simple_types@U?$pair@QEAUState@DFA@re2@@H@std@@@std@@@std@@U_Iterator_base0@2@@std@@QEAA@PEAU?$_List_node@U?$pair@QEAUState@DFA@re2@@H@std@@PEAX@1@PEBV?$_List_val@U?$_List_simple_types@U?$pair@QEAUState@DFA@re2@@H@std@@@std@@@1@@Z
    ??0?$_List_unchecked_iterator@V?$_List_val@U?$_List_simple_types@PEAUState@DFA@re2@@@std@@@std@@@std@@QEAA@PEAU?$_List_node@PEAUState@DFA@re2@@PEAX@1@PEBV?$_List_val@U?$_List_simple_types@PEAUState@DFA@re2@@@std@@@1@@Z
    ??0?$_List_unchecked_iterator@V?$_List_val@U?$_List_simple_types@U?$pair@$$CB_KH@std@@@std@@@std@@@std@@QEAA@PEAU?$_List_node@U?$pair@$$CB_KH@std@@PEAX@1@PEBV?$_List_val@U?$_List_simple_types@U?$pair@$$CB_KH@std@@@std@@@1@@Z
    ??0?$_List_unchecked_iterator@V?$_List_val@U?$_List_simple_types@U?$pair@QEAUState@DFA@re2@@H@std@@@std@@@std@@@std@@QEAA@PEAU?$_List_node@U?$pair@QEAUState@DFA@re2@@H@std@@PEAX@1@PEBV?$_List_val@U?$_List_simple_types@U?$pair@QEAUState@DFA@re2@@H@std@@@std@@@1@@Z
    ??0?$_List_val@U?$_List_simple_types@PEAUState@DFA@re2@@@std@@@std@@QEAA@XZ
    ??0?$_List_val@U?$_List_simple_types@U?$pair@$$CB_KH@std@@@std@@@std@@QEAA@XZ
    ??0?$_List_val@U?$_List_simple_types@U?$pair@QEAUState@DFA@re2@@H@std@@@std@@@std@@QEAA@XZ
    ??0?$_String_val@U?$_Simple_types@D@std@@@std@@QEAA@XZ
    ??0?$_Tree@V?$_Tmap_traits@HHU?$less@H@std@@V?$allocator@U?$pair@$$CBHH@std@@@2@$0A@@std@@@std@@QEAA@AEBU?$less@H@1@@Z
    ??0?$_Tree@V?$_Tmap_traits@HV?$basic_string@DU?$char_traits@D@std@@V?$allocator@D@2@@std@@U?$less@H@2@V?$allocator@U?$pair@$$CBHV?$basic_string@DU?$char_traits@D@std@@V?$allocator@D@2@@std@@@std@@@2@$0A@@std@@@std@@QEAA@AEBU?$less@H@1@@Z
    ??0?$_Tree@V?$_Tmap_traits@PEAVRegexp@re2@@HU?$less@PEAVRegexp@re2@@@std@@V?$allocator@U?$pair@QEAVRegexp@re2@@H@std@@@4@$0A@@std@@@std@@QEAA@AEBU?$less@PEAVRegexp@re2@@@1@@Z
    ??0?$_Tree@V?$_Tmap_traits@V?$basic_string@DU?$char_traits@D@std@@V?$allocator@D@2@@std@@HU?$less@V?$basic_string@DU?$char_traits@D@std@@V?$allocator@D@2@@std@@@2@V?$allocator@U?$pair@$$CBV?$basic_string@DU?$char_traits@D@std@@V?$allocator@D@2@@std@@H@std@@@2@$0A@@std@@@std@@QEAA@AEBU?$less@V?$basic_string@DU?$char_traits@D@std@@V?$allocator@D@2@@std@@@1@@Z
    ??0?$_Tree@V?$_Tmap_traits@V?$basic_string@DU?$char_traits@D@std@@V?$allocator@D@2@@std@@PEAVPrefilter@re2@@U?$less@V?$basic_string@DU?$char_traits@D@std@@V?$allocator@D@2@@std@@@2@V?$allocator@U?$pair@$$CBV?$basic_string@DU?$char_traits@D@std@@V?$allocator@D@2@@std@@PEAVPrefilter@re2@@@std@@@2@$0A@@std@@@std@@QEAA@AEBU?$less@V?$basic_string@DU?$char_traits@D@std@@V?$allocator@D@2@@std@@@1@@Z
    ??0?$_Tree@V?$_Tset_traits@HU?$less@H@std@@V?$allocator@H@2@$0A@@std@@@std@@QEAA@AEBU?$less@H@1@@Z
    ??0?$_Tree@V?$_Tset_traits@URuneRange@re2@@URuneRangeLess@2@V?$allocator@URuneRange@re2@@@std@@$0A@@std@@@std@@QEAA@AEBURuneRangeLess@re2@@@Z
    ??0?$_Tree@V?$_Tset_traits@V?$basic_string@DU?$char_traits@D@std@@V?$allocator@D@2@@std@@U?$less@V?$basic_string@DU?$char_traits@D@std@@V?$allocator@D@2@@std@@@2@V?$allocator@V?$basic_string@DU?$char_traits@D@std@@V?$allocator@D@2@@std@@@2@$0A@@std@@@std@@QEAA@AEBU?$less@V?$basic_string@DU?$char_traits@D@std@@V?$allocator@D@2@@std@@@1@@Z
    ??0?$_Tree_const_iterator@V?$_Tree_val@U?$_Tree_simple_types@H@std@@@std@@@std@@QEAA@PEAU?$_Tree_node@HPEAX@1@PEBV?$_Tree_val@U?$_Tree_simple_types@H@std@@@1@@Z
    ??0?$_Tree_const_iterator@V?$_Tree_val@U?$_Tree_simple_types@U?$pair@$$CBHH@std@@@std@@@std@@@std@@QEAA@PEAU?$_Tree_node@U?$pair@$$CBHH@std@@PEAX@1@PEBV?$_Tree_val@U?$_Tree_simple_types@U?$pair@$$CBHH@std@@@std@@@1@@Z
    ??0?$_Tree_const_iterator@V?$_Tree_val@U?$_Tree_simple_types@U?$pair@$$CBV?$basic_string@DU?$char_traits@D@std@@V?$allocator@D@2@@std@@H@std@@@std@@@std@@@std@@QEAA@PEAU?$_Tree_node@U?$pair@$$CBV?$basic_string@DU?$char_traits@D@std@@V?$allocator@D@2@@std@@H@std@@PEAX@1@PEBV?$_Tree_val@U?$_Tree_simple_types@U?$pair@$$CBV?$basic_string@DU?$char_traits@D@std@@V?$allocator@D@2@@std@@H@std@@@std@@@1@@Z
    ??0?$_Tree_const_iterator@V?$_Tree_val@U?$_Tree_simple_types@U?$pair@$$CBV?$basic_string@DU?$char_traits@D@std@@V?$allocator@D@2@@std@@PEAVPrefilter@re2@@@std@@@std@@@std@@@std@@QEAA@PEAU?$_Tree_node@U?$pair@$$CBV?$basic_string@DU?$char_traits@D@std@@V?$allocator@D@2@@std@@PEAVPrefilter@re2@@@std@@PEAX@1@PEBV?$_Tree_val@U?$_Tree_simple_types@U?$pair@$$CBV?$basic_string@DU?$char_traits@D@std@@V?$allocator@D@2@@std@@PEAVPrefilter@re2@@@std@@@std@@@1@@Z
    ??0?$_Tree_const_iterator@V?$_Tree_val@U?$_Tree_simple_types@URuneRange@re2@@@std@@@std@@@std@@QEAA@PEAU?$_Tree_node@URuneRange@re2@@PEAX@1@PEBV?$_Tree_val@U?$_Tree_simple_types@URuneRange@re2@@@std@@@1@@Z
    ??0?$_Tree_const_iterator@V?$_Tree_val@U?$_Tree_simple_types@V?$basic_string@DU?$char_traits@D@std@@V?$allocator@D@2@@std@@@std@@@std@@@std@@QEAA@PEAU?$_Tree_node@V?$basic_string@DU?$char_traits@D@std@@V?$allocator@D@2@@std@@PEAX@1@PEBV?$_Tree_val@U?$_Tree_simple_types@V?$basic_string@DU?$char_traits@D@std@@V?$allocator@D@2@@std@@@std@@@1@@Z
    ??0?$_Tree_iterator@V?$_Tree_val@U?$_Tree_simple_types@U?$pair@$$CBHH@std@@@std@@@std@@@std@@QEAA@PEAU?$_Tree_node@U?$pair@$$CBHH@std@@PEAX@1@PEBV?$_Tree_val@U?$_Tree_simple_types@U?$pair@$$CBHH@std@@@std@@@1@@Z
    ??0?$_Tree_iterator@V?$_Tree_val@U?$_Tree_simple_types@U?$pair@$$CBV?$basic_string@DU?$char_traits@D@std@@V?$allocator@D@2@@std@@H@std@@@std@@@std@@@std@@QEAA@PEAU?$_Tree_node@U?$pair@$$CBV?$basic_string@DU?$char_traits@D@std@@V?$allocator@D@2@@std@@H@std@@PEAX@1@PEBV?$_Tree_val@U?$_Tree_simple_types@U?$pair@$$CBV?$basic_string@DU?$char_traits@D@std@@V?$allocator@D@2@@std@@H@std@@@std@@@1@@Z
    ??0?$_Tree_iterator@V?$_Tree_val@U?$_Tree_simple_types@U?$pair@$$CBV?$basic_string@DU?$char_traits@D@std@@V?$allocator@D@2@@std@@PEAVPrefilter@re2@@@std@@@std@@@std@@@std@@QEAA@PEAU?$_Tree_node@U?$pair@$$CBV?$basic_string@DU?$char_traits@D@std@@V?$allocator@D@2@@std@@PEAVPrefilter@re2@@@std@@PEAX@1@PEBV?$_Tree_val@U?$_Tree_simple_types@U?$pair@$$CBV?$basic_string@DU?$char_traits@D@std@@V?$allocator@D@2@@std@@PEAVPrefilter@re2@@@std@@@std@@@1@@Z
    ??0?$_Tree_temp_node_alloc@V?$allocator@U?$_Tree_node@HPEAX@std@@@std@@@std@@QEAA@AEAV?$allocator@U?$_Tree_node@HPEAX@std@@@1@@Z
    ??0?$_Tree_temp_node_alloc@V?$allocator@U?$_Tree_node@U?$pair@$$CBHH@std@@PEAX@std@@@std@@@std@@QEAA@AEAV?$allocator@U?$_Tree_node@U?$pair@$$CBHH@std@@PEAX@std@@@1@@Z
    ??0?$_Tree_temp_node_alloc@V?$allocator@U?$_Tree_node@U?$pair@$$CBHV?$basic_string@DU?$char_traits@D@std@@V?$allocator@D@2@@std@@@std@@PEAX@std@@@std@@@std@@QEAA@AEAV?$allocator@U?$_Tree_node@U?$pair@$$CBHV?$basic_string@DU?$char_traits@D@std@@V?$allocator@D@2@@std@@@std@@PEAX@std@@@1@@Z
    ??0?$_Tree_temp_node_alloc@V?$allocator@U?$_Tree_node@U?$pair@$$CBV?$basic_string@DU?$char_traits@D@std@@V?$allocator@D@2@@std@@H@std@@PEAX@std@@@std@@@std@@QEAA@AEAV?$allocator@U?$_Tree_node@U?$pair@$$CBV?$basic_string@DU?$char_traits@D@std@@V?$allocator@D@2@@std@@H@std@@PEAX@std@@@1@@Z
    ??0?$_Tree_temp_node_alloc@V?$allocator@U?$_Tree_node@U?$pair@$$CBV?$basic_string@DU?$char_traits@D@std@@V?$allocator@D@2@@std@@PEAVPrefilter@re2@@@std@@PEAX@std@@@std@@@std@@QEAA@AEAV?$allocator@U?$_Tree_node@U?$pair@$$CBV?$basic_string@DU?$char_traits@D@std@@V?$allocator@D@2@@std@@PEAVPrefilter@re2@@@std@@PEAX@std@@@1@@Z
    ??0?$_Tree_temp_node_alloc@V?$allocator@U?$_Tree_node@U?$pair@QEAVRegexp@re2@@H@std@@PEAX@std@@@std@@@std@@QEAA@AEAV?$allocator@U?$_Tree_node@U?$pair@QEAVRegexp@re2@@H@std@@PEAX@std@@@1@@Z
    ??0?$_Tree_temp_node_alloc@V?$allocator@U?$_Tree_node@URuneRange@re2@@PEAX@std@@@std@@@std@@QEAA@AEAV?$allocator@U?$_Tree_node@URuneRange@re2@@PEAX@std@@@1@@Z
    ??0?$_Tree_temp_node_alloc@V?$allocator@U?$_Tree_node@V?$basic_string@DU?$char_traits@D@std@@V?$allocator@D@2@@std@@PEAX@std@@@std@@@std@@QEAA@AEAV?$allocator@U?$_Tree_node@V?$basic_string@DU?$char_traits@D@std@@V?$allocator@D@2@@std@@PEAX@std@@@1@@Z
    ??0?$_Tree_unchecked_const_iterator@V?$_Tree_val@U?$_Tree_simple_types@H@std@@@std@@U_Iterator_base0@2@@std@@QEAA@PEAU?$_Tree_node@HPEAX@1@PEBV?$_Tree_val@U?$_Tree_simple_types@H@std@@@1@@Z
    ??0?$_Tree_unchecked_const_iterator@V?$_Tree_val@U?$_Tree_simple_types@U?$pair@$$CBHH@std@@@std@@@std@@U_Iterator_base0@2@@std@@QEAA@PEAU?$_Tree_node@U?$pair@$$CBHH@std@@PEAX@1@PEBV?$_Tree_val@U?$_Tree_simple_types@U?$pair@$$CBHH@std@@@std@@@1@@Z
    ??0?$_Tree_unchecked_const_iterator@V?$_Tree_val@U?$_Tree_simple_types@U?$pair@$$CBV?$basic_string@DU?$char_traits@D@std@@V?$allocator@D@2@@std@@H@std@@@std@@@std@@U_Iterator_base0@2@@std@@QEAA@PEAU?$_Tree_node@U?$pair@$$CBV?$basic_string@DU?$char_traits@D@std@@V?$allocator@D@2@@std@@H@std@@PEAX@1@PEBV?$_Tree_val@U?$_Tree_simple_types@U?$pair@$$CBV?$basic_string@DU?$char_traits@D@std@@V?$allocator@D@2@@std@@H@std@@@std@@@1@@Z
    ??0?$_Tree_unchecked_const_iterator@V?$_Tree_val@U?$_Tree_simple_types@U?$pair@$$CBV?$basic_string@DU?$char_traits@D@std@@V?$allocator@D@2@@std@@PEAVPrefilter@re2@@@std@@@std@@@std@@U_Iterator_base0@2@@std@@QEAA@PEAU?$_Tree_node@U?$pair@$$CBV?$basic_string@DU?$char_traits@D@std@@V?$allocator@D@2@@std@@PEAVPrefilter@re2@@@std@@PEAX@1@PEBV?$_Tree_val@U?$_Tree_simple_types@U?$pair@$$CBV?$basic_string@DU?$char_traits@D@std@@V?$allocator@D@2@@std@@PEAVPrefilter@re2@@@std@@@std@@@1@@Z
    ??0?$_Tree_unchecked_const_iterator@V?$_Tree_val@U?$_Tree_simple_types@U?$pair@QEAVRegexp@re2@@H@std@@@std@@@std@@U_Iterator_base0@2@@std@@QEAA@PEAU?$_Tree_node@U?$pair@QEAVRegexp@re2@@H@std@@PEAX@1@PEBV?$_Tree_val@U?$_Tree_simple_types@U?$pair@QEAVRegexp@re2@@H@std@@@std@@@1@@Z
    ??0?$_Tree_unchecked_const_iterator@V?$_Tree_val@U?$_Tree_simple_types@URuneRange@re2@@@std@@@std@@U_Iterator_base0@2@@std@@QEAA@PEAU?$_Tree_node@URuneRange@re2@@PEAX@1@PEBV?$_Tree_val@U?$_Tree_simple_types@URuneRange@re2@@@std@@@1@@Z
    ??0?$_Tree_unchecked_const_iterator@V?$_Tree_val@U?$_Tree_simple_types@V?$basic_string@DU?$char_traits@D@std@@V?$allocator@D@2@@std@@@std@@@std@@U_Iterator_base0@2@@std@@QEAA@PEAU?$_Tree_node@V?$basic_string@DU?$char_traits@D@std@@V?$allocator@D@2@@std@@PEAX@1@PEBV?$_Tree_val@U?$_Tree_simple_types@V?$basic_string@DU?$char_traits@D@std@@V?$allocator@D@2@@std@@@std@@@1@@Z
    ??0?$_Tree_unchecked_iterator@V?$_Tree_val@U?$_Tree_simple_types@U?$pair@QEAVRegexp@re2@@H@std@@@std@@@std@@@std@@QEAA@PEAU?$_Tree_node@U?$pair@QEAVRegexp@re2@@H@std@@PEAX@1@PEBV?$_Tree_val@U?$_Tree_simple_types@U?$pair@QEAVRegexp@re2@@H@std@@@std@@@1@@Z
    ??0?$_Tree_val@U?$_Tree_simple_types@H@std@@@std@@QEAA@XZ
    ??0?$_Tree_val@U?$_Tree_simple_types@U?$pair@$$CBHH@std@@@std@@@std@@QEAA@XZ
    ??0?$_Tree_val@U?$_Tree_simple_types@U?$pair@$$CBHV?$basic_string@DU?$char_traits@D@std@@V?$allocator@D@2@@std@@@std@@@std@@@std@@QEAA@XZ
    ??0?$_Tree_val@U?$_Tree_simple_types@U?$pair@$$CBV?$basic_string@DU?$char_traits@D@std@@V?$allocator@D@2@@std@@H@std@@@std@@@std@@QEAA@XZ
    ??0?$_Tree_val@U?$_Tree_simple_types@U?$pair@$$CBV?$basic_string@DU?$char_traits@D@std@@V?$allocator@D@2@@std@@PEAVPrefilter@re2@@@std@@@std@@@std@@QEAA@XZ
    ??0?$_Tree_val@U?$_Tree_simple_types@U?$pair@QEAVRegexp@re2@@H@std@@@std@@@std@@QEAA@XZ
    ??0?$_Tree_val@U?$_Tree_simple_types@URuneRange@re2@@@std@@@std@@QEAA@XZ
    ??0?$_Tree_val@U?$_Tree_simple_types@V?$basic_string@DU?$char_traits@D@std@@V?$allocator@D@2@@std@@@std@@@std@@QEAA@XZ
    ??0?$_Uhash_compare@PEAUState@DFA@re2@@U?$hash@PEAUState@DFA@re2@@@std@@U?$equal_to@PEAUState@DFA@re2@@@5@@std@@QEAA@XZ
    ??0?$_Uhash_compare@PEAUState@DFA@re2@@UStateHash@23@UStateEqual@23@@std@@QEAA@XZ
    ??0?$_Uhash_compare@_KU?$hash@_K@std@@U?$equal_to@_K@2@@std@@QEAA@XZ
    ??0?$_Umap_traits@PEAUState@DFA@re2@@HV?$_Uhash_compare@PEAUState@DFA@re2@@U?$hash@PEAUState@DFA@re2@@@std@@U?$equal_to@PEAUState@DFA@re2@@@5@@std@@V?$allocator@U?$pair@QEAUState@DFA@re2@@H@std@@@5@$0A@@std@@QEAA@AEBV?$_Uhash_compare@PEAUState@DFA@re2@@U?$hash@PEAUState@DFA@re2@@@std@@U?$equal_to@PEAUState@DFA@re2@@@5@@1@@Z
    ??0?$_Umap_traits@_KHV?$_Uhash_compare@_KU?$hash@_K@std@@U?$equal_to@_K@2@@std@@V?$allocator@U?$pair@$$CB_KH@std@@@2@$0A@@std@@QEAA@AEBV?$_Uhash_compare@_KU?$hash@_K@std@@U?$equal_to@_K@2@@1@@Z
    ??0?$_Uninitialized_backout@PEAV?$_List_unchecked_const_iterator@V?$_List_val@U?$_List_simple_types@PEAUState@DFA@re2@@@std@@@std@@U_Iterator_base0@2@@std@@@std@@QEAA@PEAV?$_List_unchecked_const_iterator@V?$_List_val@U?$_List_simple_types@PEAUState@DFA@re2@@@std@@@std@@U_Iterator_base0@2@@1@@Z
    ??0?$_Uninitialized_backout@PEAV?$_List_unchecked_iterator@V?$_List_val@U?$_List_simple_types@U?$pair@$$CB_KH@std@@@std@@@std@@@std@@@std@@QEAA@PEAV?$_List_unchecked_iterator@V?$_List_val@U?$_List_simple_types@U?$pair@$$CB_KH@std@@@std@@@std@@@1@@Z
    ??0?$_Uninitialized_backout@PEAV?$_List_unchecked_iterator@V?$_List_val@U?$_List_simple_types@U?$pair@QEAUState@DFA@re2@@H@std@@@std@@@std@@@std@@@std@@QEAA@PEAV?$_List_unchecked_iterator@V?$_List_val@U?$_List_simple_types@U?$pair@QEAUState@DFA@re2@@H@std@@@std@@@std@@@1@@Z
    ??0?$_Uninitialized_backout_al@V?$allocator@U?$pair@HH@std@@@std@@@std@@QEAA@PEAU?$pair@HH@1@AEAV?$allocator@U?$pair@HH@std@@@1@@Z
    ??0?$_Uninitialized_backout_al@V?$allocator@U?$pair@V?$basic_string@DU?$char_traits@D@std@@V?$allocator@D@2@@std@@PEAVRegexp@re2@@@std@@@std@@@std@@QEAA@PEAU?$pair@V?$basic_string@DU?$char_traits@D@std@@V?$allocator@D@2@@std@@PEAVRegexp@re2@@@1@AEAV?$allocator@U?$pair@V?$basic_string@DU?$char_traits@D@std@@V?$allocator@D@2@@std@@PEAVRegexp@re2@@@std@@@1@@Z
    ??0?$_Uninitialized_backout_al@V?$allocator@UEntry@PrefilterTree@re2@@@std@@@std@@QEAA@PEAUEntry@PrefilterTree@re2@@AEAV?$allocator@UEntry@PrefilterTree@re2@@@1@@Z
    ??0?$_Uninitialized_backout_al@V?$allocator@UFrame@re2@@@std@@@std@@QEAA@PEAUFrame@re2@@AEAV?$allocator@UFrame@re2@@@1@@Z
    ??0?$_Uninitialized_backout_al@V?$allocator@URuneRange@re2@@@std@@@std@@QEAA@PEAURuneRange@re2@@AEAV?$allocator@URuneRange@re2@@@1@@Z
    ??0?$_Uninitialized_backout_al@V?$allocator@USplice@re2@@@std@@@std@@QEAA@PEAUSplice@re2@@AEAV?$allocator@USplice@re2@@@1@@Z
    ??0?$_Uninitialized_backout_al@V?$allocator@V?$basic_string@DU?$char_traits@D@std@@V?$allocator@D@2@@std@@@std@@@std@@QEAA@PEAV?$basic_string@DU?$char_traits@D@std@@V?$allocator@D@2@@1@AEAV?$allocator@V?$basic_string@DU?$char_traits@D@std@@V?$allocator@D@2@@std@@@1@@Z
    ??0?$_Uninitialized_backout_al@V?$allocator@V?$vector@HV?$allocator@H@std@@@std@@@std@@@std@@QEAA@PEAV?$vector@HV?$allocator@H@std@@@1@AEAV?$allocator@V?$vector@HV?$allocator@H@std@@@std@@@1@@Z
    ??0?$_Uset_traits@PEAUState@DFA@re2@@V?$_Uhash_compare@PEAUState@DFA@re2@@UStateHash@23@UStateEqual@23@@std@@V?$allocator@PEAUState@DFA@re2@@@5@$0A@@std@@QEAA@AEBV?$_Uhash_compare@PEAUState@DFA@re2@@UStateHash@23@UStateEqual@23@@1@@Z
    ??0?$_Vector_const_iterator@V?$_Vector_val@U?$_Simple_types@E@std@@@std@@@std@@QEAA@PEAEPEBU_Container_base0@1@@Z
    ??0?$_Vector_const_iterator@V?$_Vector_val@U?$_Simple_types@H@std@@@std@@@std@@QEAA@PEAHPEBU_Container_base0@1@@Z
    ??0?$_Vector_const_iterator@V?$_Vector_val@U?$_Simple_types@U?$pair@HH@std@@@std@@@std@@@std@@QEAA@PEAU?$pair@HH@1@PEBU_Container_base0@1@@Z
    ??0?$_Vector_const_iterator@V?$_Vector_val@U?$_Simple_types@U?$pair@V?$basic_string@DU?$char_traits@D@std@@V?$allocator@D@2@@std@@PEAVRegexp@re2@@@std@@@std@@@std@@@std@@QEAA@PEAU?$pair@V?$basic_string@DU?$char_traits@D@std@@V?$allocator@D@2@@std@@PEAVRegexp@re2@@@1@PEBU_Container_base0@1@@Z
    ??0?$_Vector_const_iterator@V?$_Vector_val@U?$_Simple_types@USplice@re2@@@std@@@std@@@std@@QEAA@PEAUSplice@re2@@PEBU_Container_base0@1@@Z
    ??0?$_Vector_iterator@V?$_Vector_val@U?$_Simple_types@E@std@@@std@@@std@@QEAA@PEAEPEBU_Container_base0@1@@Z
    ??0?$_Vector_iterator@V?$_Vector_val@U?$_Simple_types@H@std@@@std@@@std@@QEAA@PEAHPEBU_Container_base0@1@@Z
    ??0?$_Vector_iterator@V?$_Vector_val@U?$_Simple_types@U?$pair@HH@std@@@std@@@std@@@std@@QEAA@PEAU?$pair@HH@1@PEBU_Container_base0@1@@Z
    ??0?$_Vector_iterator@V?$_Vector_val@U?$_Simple_types@U?$pair@V?$basic_string@DU?$char_traits@D@std@@V?$allocator@D@2@@std@@PEAVRegexp@re2@@@std@@@std@@@std@@@std@@QEAA@PEAU?$pair@V?$basic_string@DU?$char_traits@D@std@@V?$allocator@D@2@@std@@PEAVRegexp@re2@@@1@PEBU_Container_base0@1@@Z
    ??0?$_Vector_iterator@V?$_Vector_val@U?$_Simple_types@USplice@re2@@@std@@@std@@@std@@QEAA@PEAUSplice@re2@@PEBU_Container_base0@1@@Z
    ??0?$_Vector_val@U?$_Simple_types@E@std@@@std@@QEAA@XZ
    ??0?$_Vector_val@U?$_Simple_types@H@std@@@std@@QEAA@XZ
    ??0?$_Vector_val@U?$_Simple_types@PEAVPrefilter@re2@@@std@@@std@@QEAA@XZ
    ??0?$_Vector_val@U?$_Simple_types@PEAVRE2@re2@@@std@@@std@@QEAA@XZ
    ??0?$_Vector_val@U?$_Simple_types@PEAVRegexp@re2@@@std@@@std@@QEAA@XZ
    ??0?$_Vector_val@U?$_Simple_types@U?$pair@HH@std@@@std@@@std@@QEAA@XZ
    ??0?$_Vector_val@U?$_Simple_types@U?$pair@V?$basic_string@DU?$char_traits@D@std@@V?$allocator@D@2@@std@@PEAVRegexp@re2@@@std@@@std@@@std@@QEAA@XZ
    ??0?$_Vector_val@U?$_Simple_types@UEntry@PrefilterTree@re2@@@std@@@std@@QEAA@XZ
    ??0?$_Vector_val@U?$_Simple_types@UFrame@re2@@@std@@@std@@QEAA@XZ
    ??0?$_Vector_val@U?$_Simple_types@URuneRange@re2@@@std@@@std@@QEAA@XZ
    ??0?$_Vector_val@U?$_Simple_types@USplice@re2@@@std@@@std@@QEAA@XZ
    ??0?$_Vector_val@U?$_Simple_types@V?$_List_unchecked_const_iterator@V?$_List_val@U?$_List_simple_types@PEAUState@DFA@re2@@@std@@@std@@U_Iterator_base0@2@@std@@@std@@@std@@QEAA@XZ
    ??0?$_Vector_val@U?$_Simple_types@V?$_List_unchecked_iterator@V?$_List_val@U?$_List_simple_types@U?$pair@$$CB_KH@std@@@std@@@std@@@std@@@std@@@std@@QEAA@XZ
    ??0?$_Vector_val@U?$_Simple_types@V?$_List_unchecked_iterator@V?$_List_val@U?$_List_simple_types@U?$pair@QEAUState@DFA@re2@@H@std@@@std@@@std@@@std@@@std@@@std@@QEAA@XZ
    ??0?$_Vector_val@U?$_Simple_types@V?$vector@HV?$allocator@H@std@@@std@@@std@@@std@@QEAA@XZ
    ??0?$_Vector_val@U?$_Simple_types@VInst@Prog@re2@@@std@@@std@@QEAA@XZ
    ??0?$allocator@D@std@@QEAA@XZ
    ??0?$allocator@E@std@@QEAA@XZ
    ??0?$allocator@G@std@@QEAA@XZ
    ??0?$allocator@H@std@@QEAA@XZ
    ??0?$allocator@PEAUState@DFA@re2@@@std@@QEAA@XZ
    ??0?$allocator@PEAVPrefilter@re2@@@std@@QEAA@XZ
    ??0?$allocator@PEAVRE2@re2@@@std@@QEAA@XZ
    ??0?$allocator@PEAVRegexp@re2@@@std@@QEAA@XZ
    ??0?$allocator@PEBD@std@@QEAA@XZ
    ??0?$allocator@U?$WalkState@H@re2@@@std@@QEAA@XZ
    ??0?$allocator@U?$WalkState@PEAVInfo@Prefilter@re2@@@re2@@@std@@QEAA@XZ
    ??0?$allocator@U?$WalkState@PEAVRegexp@re2@@@re2@@@std@@QEAA@XZ
    ??0?$allocator@U?$WalkState@UFrag@re2@@@re2@@@std@@QEAA@XZ
    ??0?$allocator@U?$WalkState@_N@re2@@@std@@QEAA@XZ
    ??0?$allocator@U?$_Tree_node@HPEAX@std@@@std@@QEAA@XZ
    ??0?$allocator@U?$_Tree_node@U?$pair@$$CBHH@std@@PEAX@std@@@std@@QEAA@XZ
    ??0?$allocator@U?$_Tree_node@U?$pair@$$CBHV?$basic_string@DU?$char_traits@D@std@@V?$allocator@D@2@@std@@@std@@PEAX@std@@@std@@QEAA@XZ
    ??0?$allocator@U?$_Tree_node@U?$pair@$$CBV?$basic_string@DU?$char_traits@D@std@@V?$allocator@D@2@@std@@H@std@@PEAX@std@@@std@@QEAA@XZ
    ??0?$allocator@U?$_Tree_node@U?$pair@$$CBV?$basic_string@DU?$char_traits@D@std@@V?$allocator@D@2@@std@@PEAVPrefilter@re2@@@std@@PEAX@std@@@std@@QEAA@XZ
    ??0?$allocator@U?$_Tree_node@U?$pair@QEAVRegexp@re2@@H@std@@PEAX@std@@@std@@QEAA@XZ
    ??0?$allocator@U?$_Tree_node@URuneRange@re2@@PEAX@std@@@std@@QEAA@XZ
    ??0?$allocator@U?$_Tree_node@V?$basic_string@DU?$char_traits@D@std@@V?$allocator@D@2@@std@@PEAX@std@@@std@@QEAA@XZ
    ??0?$allocator@U?$pair@$$CB_KH@std@@@std@@QEAA@XZ
    ??0?$allocator@U?$pair@HH@std@@@std@@QEAA@XZ
    ??0?$allocator@U?$pair@QEAUState@DFA@re2@@H@std@@@std@@QEAA@XZ
    ??0?$allocator@U?$pair@V?$basic_string@DU?$char_traits@D@std@@V?$allocator@D@2@@std@@PEAVRegexp@re2@@@std@@@std@@QEAA@XZ
    ??0?$allocator@UAddState@NFA@re2@@@std@@QEAA@XZ
    ??0?$allocator@UEntry@PrefilterTree@re2@@@std@@QEAA@XZ
    ??0?$allocator@UFrame@re2@@@std@@QEAA@XZ
    ??0?$allocator@UInstCond@re2@@@std@@QEAA@XZ
    ??0?$allocator@UJob@re2@@@std@@QEAA@XZ
    ??0?$allocator@URuneRange@re2@@@std@@QEAA@XZ
    ??0?$allocator@USplice@re2@@@std@@QEAA@XZ
    ??0?$allocator@UThread@NFA@re2@@@std@@QEAA@XZ
    ??0?$allocator@V?$vector@HV?$allocator@H@std@@@std@@@std@@QEAA@XZ
    ??0?$allocator@VIndexValue@?$SparseArray@H@re2@@@std@@QEAA@XZ
    ??0?$allocator@VIndexValue@?$SparseArray@PEAUThread@NFA@re2@@@re2@@@std@@QEAA@XZ
    ??0?$allocator@VInst@Prog@re2@@@std@@QEAA@XZ
    ??0?$allocator@_K@std@@QEAA@XZ
    ??0?$atomic@PEAUState@DFA@re2@@@std@@QEAA@QEAUState@DFA@re2@@@Z
    ??0?$atomic@PEAUState@DFA@re2@@@std@@QEAA@XZ
    ??0?$basic_ostringstream@DU?$char_traits@D@std@@V?$allocator@D@2@@std@@QEAA@XZ
    ??0?$basic_string@DU?$char_traits@D@std@@V?$allocator@D@2@@std@@QEAA@$$QEAV01@@Z
    ??0?$basic_string@DU?$char_traits@D@std@@V?$allocator@D@2@@std@@QEAA@AEBV01@@Z
    ??0?$basic_string@DU?$char_traits@D@std@@V?$allocator@D@2@@std@@QEAA@AEBV01@_K1AEBV?$allocator@D@1@@Z
    ??0?$basic_string@DU?$char_traits@D@std@@V?$allocator@D@2@@std@@QEAA@AEBV?$allocator@D@1@@Z
    ??0?$basic_string@DU?$char_traits@D@std@@V?$allocator@D@2@@std@@QEAA@QEBD@Z
    ??0?$basic_string@DU?$char_traits@D@std@@V?$allocator@D@2@@std@@QEAA@QEBD_K@Z
    ??0?$basic_string@DU?$char_traits@D@std@@V?$allocator@D@2@@std@@QEAA@U_String_constructor_concat_tag@1@AEBV01@QEBD_K23@Z
    ??0?$basic_string@DU?$char_traits@D@std@@V?$allocator@D@2@@std@@QEAA@XZ
    ??0?$basic_stringbuf@DU?$char_traits@D@std@@V?$allocator@D@2@@std@@QEAA@H@Z
    ??0?$deque@PEAUState@DFA@re2@@V?$allocator@PEAUState@DFA@re2@@@std@@@std@@QEAA@XZ
    ??0?$deque@U?$WalkState@H@re2@@V?$allocator@U?$WalkState@H@re2@@@std@@@std@@QEAA@XZ
    ??0?$deque@U?$WalkState@PEAVInfo@Prefilter@re2@@@re2@@V?$allocator@U?$WalkState@PEAVInfo@Prefilter@re2@@@re2@@@std@@@std@@QEAA@XZ
    ??0?$deque@U?$WalkState@PEAVRegexp@re2@@@re2@@V?$allocator@U?$WalkState@PEAVRegexp@re2@@@re2@@@std@@@std@@QEAA@XZ
    ??0?$deque@U?$WalkState@UFrag@re2@@@re2@@V?$allocator@U?$WalkState@UFrag@re2@@@re2@@@std@@@std@@QEAA@XZ
    ??0?$deque@U?$WalkState@_N@re2@@V?$allocator@U?$WalkState@_N@re2@@@std@@@std@@QEAA@XZ
    ??0?$deque@UThread@NFA@re2@@V?$allocator@UThread@NFA@re2@@@std@@@std@@QEAA@XZ
    ??0?$fpos@U_Mbstatet@@@std@@QEAA@_J@Z
    ??0?$initializer_list@H@std@@QEAA@PEBH0@Z
    ??0?$initializer_list@_N@std@@QEAA@PEB_N0@Z
    ??0?$list@PEAUState@DFA@re2@@V?$allocator@PEAUState@DFA@re2@@@std@@@std@@QEAA@AEBV?$allocator@PEAUState@DFA@re2@@@1@@Z
    ??0?$list@U?$pair@$$CB_KH@std@@V?$allocator@U?$pair@$$CB_KH@std@@@2@@std@@QEAA@AEBV?$allocator@U?$pair@$$CB_KH@std@@@1@@Z
    ??0?$list@U?$pair@QEAUState@DFA@re2@@H@std@@V?$allocator@U?$pair@QEAUState@DFA@re2@@H@std@@@2@@std@@QEAA@AEBV?$allocator@U?$pair@QEAUState@DFA@re2@@H@std@@@1@@Z
    ??0?$map@HHU?$less@H@std@@V?$allocator@U?$pair@$$CBHH@std@@@2@@std@@QEAA@XZ
    ??0?$map@HV?$basic_string@DU?$char_traits@D@std@@V?$allocator@D@2@@std@@U?$less@H@2@V?$allocator@U?$pair@$$CBHV?$basic_string@DU?$char_traits@D@std@@V?$allocator@D@2@@std@@@std@@@2@@std@@QEAA@XZ
    ??0?$map@PEAVRegexp@re2@@HU?$less@PEAVRegexp@re2@@@std@@V?$allocator@U?$pair@QEAVRegexp@re2@@H@std@@@4@@std@@QEAA@XZ
    ??0?$map@V?$basic_string@DU?$char_traits@D@std@@V?$allocator@D@2@@std@@HU?$less@V?$basic_string@DU?$char_traits@D@std@@V?$allocator@D@2@@std@@@2@V?$allocator@U?$pair@$$CBV?$basic_string@DU?$char_traits@D@std@@V?$allocator@D@2@@std@@H@std@@@2@@std@@QEAA@XZ
    ??0?$map@V?$basic_string@DU?$char_traits@D@std@@V?$allocator@D@2@@std@@PEAVPrefilter@re2@@U?$less@V?$basic_string@DU?$char_traits@D@std@@V?$allocator@D@2@@std@@@2@V?$allocator@U?$pair@$$CBV?$basic_string@DU?$char_traits@D@std@@V?$allocator@D@2@@std@@PEAVPrefilter@re2@@@std@@@2@@std@@QEAA@XZ
    ??0?$pair@V?$basic_string@DU?$char_traits@D@std@@V?$allocator@D@2@@std@@PEAVRegexp@re2@@@std@@QEAA@$$QEAU01@@Z
    ??0?$set@HU?$less@H@std@@V?$allocator@H@2@@std@@QEAA@XZ
    ??0?$set@URuneRange@re2@@URuneRangeLess@2@V?$allocator@URuneRange@re2@@@std@@@std@@QEAA@XZ
    ??0?$set@V?$basic_string@DU?$char_traits@D@std@@V?$allocator@D@2@@std@@U?$less@V?$basic_string@DU?$char_traits@D@std@@V?$allocator@D@2@@std@@@2@V?$allocator@V?$basic_string@DU?$char_traits@D@std@@V?$allocator@D@2@@std@@@2@@std@@QEAA@XZ
    ??0?$stack@U?$WalkState@H@re2@@V?$deque@U?$WalkState@H@re2@@V?$allocator@U?$WalkState@H@re2@@@std@@@std@@@std@@QEAA@XZ
    ??0?$stack@U?$WalkState@PEAVInfo@Prefilter@re2@@@re2@@V?$deque@U?$WalkState@PEAVInfo@Prefilter@re2@@@re2@@V?$allocator@U?$WalkState@PEAVInfo@Prefilter@re2@@@re2@@@std@@@std@@@std@@QEAA@XZ
    ??0?$stack@U?$WalkState@PEAVRegexp@re2@@@re2@@V?$deque@U?$WalkState@PEAVRegexp@re2@@@re2@@V?$allocator@U?$WalkState@PEAVRegexp@re2@@@re2@@@std@@@std@@@std@@QEAA@XZ
    ??0?$stack@U?$WalkState@UFrag@re2@@@re2@@V?$deque@U?$WalkState@UFrag@re2@@@re2@@V?$allocator@U?$WalkState@UFrag@re2@@@re2@@@std@@@std@@@std@@QEAA@XZ
    ??0?$stack@U?$WalkState@_N@re2@@V?$deque@U?$WalkState@_N@re2@@V?$allocator@U?$WalkState@_N@re2@@@std@@@std@@@std@@QEAA@XZ
    ??0?$tuple@$$QEAH@std@@QEAA@$$QEAV01@@Z
    ??0?$tuple@$$QEAPEAVRegexp@re2@@@std@@QEAA@$$QEAV01@@Z
    ??0?$tuple@$$V@std@@QEAA@AEBV01@@Z
    ??0?$tuple@$$V@std@@QEAA@XZ
    ??0?$tuple@AEBH@std@@QEAA@$$QEAV01@@Z
    ??0?$tuple@AEBQEAUState@DFA@re2@@@std@@QEAA@$$QEAV01@@Z
    ??0?$tuple@AEBV?$basic_string@DU?$char_traits@D@std@@V?$allocator@D@2@@std@@@std@@QEAA@$$QEAV01@@Z
    ??0?$tuple@AEB_K@std@@QEAA@$$QEAV01@@Z
    ??0?$unordered_map@PEAUState@DFA@re2@@HU?$hash@PEAUState@DFA@re2@@@std@@U?$equal_to@PEAUState@DFA@re2@@@5@V?$allocator@U?$pair@QEAUState@DFA@re2@@H@std@@@5@@std@@QEAA@XZ
    ??0?$unordered_map@_KHU?$hash@_K@std@@U?$equal_to@_K@2@V?$allocator@U?$pair@$$CB_KH@std@@@2@@std@@QEAA@XZ
    ??0?$unordered_set@PEAUState@DFA@re2@@UStateHash@23@UStateEqual@23@V?$allocator@PEAUState@DFA@re2@@@std@@@std@@QEAA@XZ
    ??0?$vector@EV?$allocator@E@std@@@std@@QEAA@XZ
    ??0?$vector@HV?$allocator@H@std@@@std@@QEAA@$$QEAV01@@Z
    ??0?$vector@HV?$allocator@H@std@@@std@@QEAA@XZ
    ??0?$vector@HV?$allocator@H@std@@@std@@QEAA@_KAEBV?$allocator@H@1@@Z
    ??0?$vector@PEAVPrefilter@re2@@V?$allocator@PEAVPrefilter@re2@@@std@@@std@@QEAA@XZ
    ??0?$vector@PEAVRE2@re2@@V?$allocator@PEAVRE2@re2@@@std@@@std@@QEAA@$$QEAV01@@Z
    ??0?$vector@PEAVRE2@re2@@V?$allocator@PEAVRE2@re2@@@std@@@std@@QEAA@XZ
    ??0?$vector@PEAVRegexp@re2@@V?$allocator@PEAVRegexp@re2@@@std@@@std@@QEAA@XZ
    ??0?$vector@U?$pair@HH@std@@V?$allocator@U?$pair@HH@std@@@2@@std@@QEAA@XZ
    ??0?$vector@U?$pair@V?$basic_string@DU?$char_traits@D@std@@V?$allocator@D@2@@std@@PEAVRegexp@re2@@@std@@V?$allocator@U?$pair@V?$basic_string@DU?$char_traits@D@std@@V?$allocator@D@2@@std@@PEAVRegexp@re2@@@std@@@2@@std@@QEAA@$$QEAV01@@Z
    ??0?$vector@U?$pair@V?$basic_string@DU?$char_traits@D@std@@V?$allocator@D@2@@std@@PEAVRegexp@re2@@@std@@V?$allocator@U?$pair@V?$basic_string@DU?$char_traits@D@std@@V?$allocator@D@2@@std@@PEAVRegexp@re2@@@std@@@2@@std@@QEAA@XZ
    ??0?$vector@UEntry@PrefilterTree@re2@@V?$allocator@UEntry@PrefilterTree@re2@@@std@@@std@@QEAA@XZ
    ??0?$vector@UFrame@re2@@V?$allocator@UFrame@re2@@@std@@@std@@QEAA@XZ
    ??0?$vector@URuneRange@re2@@V?$allocator@URuneRange@re2@@@std@@@std@@QEAA@XZ
    ??0?$vector@USplice@re2@@V?$allocator@USplice@re2@@@std@@@std@@QEAA@$$QEAV01@@Z
    ??0?$vector@USplice@re2@@V?$allocator@USplice@re2@@@std@@@std@@QEAA@XZ
    ??0?$vector@V?$vector@HV?$allocator@H@std@@@std@@V?$allocator@V?$vector@HV?$allocator@H@std@@@std@@@2@@std@@QEAA@XZ
    ??0?$vector@VInst@Prog@re2@@V?$allocator@VInst@Prog@re2@@@std@@@std@@QEAA@XZ
    ??0BitState@re2@@QEAA@PEAVProg@1@@Z
    ??0Bitmap256@re2@@QEAA@XZ
    ??0ByteMapBuilder@re2@@QEAA@XZ
    ??0CaptureNamesWalker@re2@@QEAA@XZ
    ??0CharClassBuilder@re2@@QEAA@XZ
    ??0CoalesceWalker@re2@@QEAA@XZ
    ??0Compiler@re2@@QEAA@XZ
    ??0DFA@re2@@QEAA@PEAVProg@1@W4MatchKind@21@_J@Z
    ??0Deleter@?$PODArray@E@re2@@QEAA@H@Z
    ??0Deleter@?$PODArray@E@re2@@QEAA@XZ
    ??0Deleter@?$PODArray@G@re2@@QEAA@H@Z
    ??0Deleter@?$PODArray@G@re2@@QEAA@XZ
    ??0Deleter@?$PODArray@H@re2@@QEAA@H@Z
    ??0Deleter@?$PODArray@H@re2@@QEAA@XZ
    ??0Deleter@?$PODArray@PEAVRegexp@re2@@@re2@@QEAA@H@Z
    ??0Deleter@?$PODArray@PEAVRegexp@re2@@@re2@@QEAA@XZ
    ??0Deleter@?$PODArray@PEBD@re2@@QEAA@H@Z
    ??0Deleter@?$PODArray@PEBD@re2@@QEAA@XZ
    ??0Deleter@?$PODArray@UAddState@NFA@re2@@@re2@@QEAA@H@Z
    ??0Deleter@?$PODArray@UAddState@NFA@re2@@@re2@@QEAA@XZ
    ??0Deleter@?$PODArray@UInstCond@re2@@@re2@@QEAA@H@Z
    ??0Deleter@?$PODArray@UJob@re2@@@re2@@QEAA@H@Z
    ??0Deleter@?$PODArray@UJob@re2@@@re2@@QEAA@XZ
    ??0Deleter@?$PODArray@VIndexValue@?$SparseArray@H@re2@@@re2@@QEAA@H@Z
    ??0Deleter@?$PODArray@VIndexValue@?$SparseArray@PEAUThread@NFA@re2@@@re2@@@re2@@QEAA@H@Z
    ??0Deleter@?$PODArray@VIndexValue@?$SparseArray@PEAUThread@NFA@re2@@@re2@@@re2@@QEAA@XZ
    ??0Deleter@?$PODArray@VInst@Prog@re2@@@re2@@QEAA@H@Z
    ??0Deleter@?$PODArray@VInst@Prog@re2@@@re2@@QEAA@XZ
    ??0Deleter@?$PODArray@_K@re2@@QEAA@H@Z
    ??0Deleter@?$PODArray@_K@re2@@QEAA@XZ
    ??0EmptyStringWalker@re2@@QEAA@XZ
    ??0Entry@PrefilterTree@re2@@QEAA@$$QEAU012@@Z
    ??0Entry@PrefilterTree@re2@@QEAA@XZ
    ??0FilteredRE2@re2@@QEAA@$$QEAV01@@Z
    ??0FilteredRE2@re2@@QEAA@H@Z
    ??0FilteredRE2@re2@@QEAA@XZ
    ??0Frag@re2@@QEAA@IUPatchList@1@_N@Z
    ??0Frag@re2@@QEAA@XZ
    ??0Frame@re2@@QEAA@$$QEAU01@@Z
    ??0Frame@re2@@QEAA@PEAPEAVRegexp@1@H@Z
    ??0HashMix@re2@@QEAA@_K@Z
    ??0Info@Prefilter@re2@@QEAA@XZ
    ??0LogMessage@@QEAA@PEBDH@Z
    ??0LogMessageFatal@@QEAA@PEBDH@Z
    ??0Mutex@re2@@QEAA@XZ
    ??0MutexLock@re2@@QEAA@PEAVMutex@1@@Z
    ??0NFA@re2@@QEAA@PEAVProg@1@@Z
    ??0NamedCapturesWalker@re2@@QEAA@XZ
    ??0NumCapturesWalker@re2@@QEAA@XZ
    ??0Options@RE2@re2@@QEAA@W4CannedOptions@12@@Z
    ??0Options@RE2@re2@@QEAA@XZ
    ??0PCREWalker@re2@@QEAA@XZ
    ??0ParseState@Regexp@re2@@QEAA@W4ParseFlags@12@AEBVStringPiece@2@PEAVRegexpStatus@2@@Z
    ??0Prefilter@re2@@QEAA@W4Op@01@@Z
    ??0PrefilterTree@re2@@QEAA@H@Z
    ??0PrefilterTree@re2@@QEAA@XZ
    ??0Prog@re2@@QEAA@XZ
    ??0RE2@re2@@QEAA@AEBV?$basic_string@DU?$char_traits@D@std@@V?$allocator@D@2@@std@@@Z
    ??0RE2@re2@@QEAA@AEBVStringPiece@1@@Z
    ??0RE2@re2@@QEAA@AEBVStringPiece@1@AEBVOptions@01@@Z
    ??0RE2@re2@@QEAA@PEBD@Z
    ??0RWLocker@DFA@re2@@QEAA@PEAVMutex@2@@Z
    ??0Regexp@re2@@AEAA@W4RegexpOp@1@W4ParseFlags@01@@Z
    ??0RegexpStatus@re2@@QEAA@XZ
    ??0RepetitionWalker@re2@@QEAA@XZ
    ??0RuneRange@re2@@QEAA@HH@Z
    ??0RuneRange@re2@@QEAA@XZ
    ??0SearchParams@DFA@re2@@QEAA@AEBVStringPiece@2@0PEAVRWLocker@12@@Z
    ??0Set@RE2@re2@@QEAA@$$QEAV012@@Z
    ??0Set@RE2@re2@@QEAA@AEBVOptions@12@W4Anchor@12@@Z
    ??0SimplifyWalker@re2@@QEAA@XZ
    ??0Splice@re2@@QEAA@PEAVRegexp@1@PEAPEAV21@H@Z
    ??0StartInfo@DFA@re2@@QEAA@XZ
    ??0State@DFA@re2@@QEAA@XZ
    ??0StateSaver@DFA@re2@@QEAA@PEAV12@PEAUState@12@@Z
    ??0StringPiece@re2@@QEAA@AEBV?$basic_string@DU?$char_traits@D@std@@V?$allocator@D@2@@std@@@Z
    ??0StringPiece@re2@@QEAA@PEBD@Z
    ??0StringPiece@re2@@QEAA@PEBD_K@Z
    ??0StringPiece@re2@@QEAA@XZ
    ??0ToStringWalker@re2@@QEAA@PEAV?$basic_string@DU?$char_traits@D@std@@V?$allocator@D@2@@std@@@Z
    ??0Walker@Info@Prefilter@re2@@QEAA@_N@Z
    ??0Workq@DFA@re2@@QEAA@HH@Z
    ??0_Bxty@?$_String_val@U?$_Simple_types@D@std@@@std@@QEAA@XZ
    ??0_Clear_guard@?$_Hash@V?$_Umap_traits@PEAUState@DFA@re2@@HV?$_Uhash_compare@PEAUState@DFA@re2@@U?$hash@PEAUState@DFA@re2@@@std@@U?$equal_to@PEAUState@DFA@re2@@@5@@std@@V?$allocator@U?$pair@QEAUState@DFA@re2@@H@std@@@5@$0A@@std@@@std@@QEAA@QEAV12@@Z
    ??0_Clear_guard@?$_Hash@V?$_Umap_traits@_KHV?$_Uhash_compare@_KU?$hash@_K@std@@U?$equal_to@_K@2@@std@@V?$allocator@U?$pair@$$CB_KH@std@@@2@$0A@@std@@@std@@QEAA@QEAV12@@Z
    ??0_Clear_guard@?$_Hash@V?$_Uset_traits@PEAUState@DFA@re2@@V?$_Uhash_compare@PEAUState@DFA@re2@@UStateHash@23@UStateEqual@23@@std@@V?$allocator@PEAUState@DFA@re2@@@5@$0A@@std@@@std@@QEAA@QEAV12@@Z
    ??0_Container_base12@std@@QEAA@XZ
    ??0_Container_proxy@std@@QEAA@PEAU_Container_base12@1@@Z
    ??0_Fake_proxy_ptr_impl@std@@QEAA@AEBU_Fake_allocator@1@AEBU_Container_base0@1@@Z
    ??0_Range_eraser@?$_Hash@V?$_Umap_traits@PEAUState@DFA@re2@@HV?$_Uhash_compare@PEAUState@DFA@re2@@U?$hash@PEAUState@DFA@re2@@@std@@U?$equal_to@PEAUState@DFA@re2@@@5@@std@@V?$allocator@U?$pair@QEAUState@DFA@re2@@H@std@@@5@$0A@@std@@@std@@QEAA@AEAV?$list@U?$pair@QEAUState@DFA@re2@@H@std@@V?$allocator@U?$pair@QEAUState@DFA@re2@@H@std@@@2@@2@QEAU?$_List_node@U?$pair@QEAUState@DFA@re2@@H@std@@PEAX@2@@Z
    ??0_Range_eraser@?$_Hash@V?$_Umap_traits@_KHV?$_Uhash_compare@_KU?$hash@_K@std@@U?$equal_to@_K@2@@std@@V?$allocator@U?$pair@$$CB_KH@std@@@2@$0A@@std@@@std@@QEAA@AEAV?$list@U?$pair@$$CB_KH@std@@V?$allocator@U?$pair@$$CB_KH@std@@@2@@2@QEAU?$_List_node@U?$pair@$$CB_KH@std@@PEAX@2@@Z
    ??0_Sentry_base@?$basic_ostream@DU?$char_traits@D@std@@@std@@QEAA@AEAV12@@Z
    ??0bad_alloc@std@@AEAA@QEBD@Z
    ??0bad_alloc@std@@QEAA@AEBV01@@Z
    ??0bad_array_new_length@std@@QEAA@AEBV01@@Z
    ??0bad_array_new_length@std@@QEAA@XZ
    ??0exception@std@@QEAA@AEBV01@@Z
    ??0exception@std@@QEAA@QEBDH@Z
    ??0once_flag@std@@QEAA@XZ
    ??0sentry@?$basic_ostream@DU?$char_traits@D@std@@@std@@QEAA@AEAV12@@Z
    ??1?$PODArray@E@re2@@QEAA@XZ
    ??1?$PODArray@G@re2@@QEAA@XZ
    ??1?$PODArray@H@re2@@QEAA@XZ
    ??1?$PODArray@PEAVRegexp@re2@@@re2@@QEAA@XZ
    ??1?$PODArray@PEBD@re2@@QEAA@XZ
    ??1?$PODArray@UAddState@NFA@re2@@@re2@@QEAA@XZ
    ??1?$PODArray@UInstCond@re2@@@re2@@QEAA@XZ
    ??1?$PODArray@UJob@re2@@@re2@@QEAA@XZ
    ??1?$PODArray@VIndexValue@?$SparseArray@H@re2@@@re2@@QEAA@XZ
    ??1?$PODArray@VIndexValue@?$SparseArray@PEAUThread@NFA@re2@@@re2@@@re2@@QEAA@XZ
    ??1?$PODArray@VInst@Prog@re2@@@re2@@QEAA@XZ
    ??1?$PODArray@_K@re2@@QEAA@XZ
    ??1?$SparseArray@H@re2@@QEAA@XZ
    ??1?$SparseArray@PEAUThread@NFA@re2@@@re2@@QEAA@XZ
    ??1?$SparseSetT@X@re2@@QEAA@XZ
    ??1?$Walker@H@Regexp@re2@@UEAA@XZ
    ??1?$Walker@PEAVInfo@Prefilter@re2@@@Regexp@re2@@UEAA@XZ
    ??1?$Walker@PEAVRegexp@re2@@@Regexp@re2@@UEAA@XZ
    ??1?$Walker@UFrag@re2@@@Regexp@re2@@UEAA@XZ
    ??1?$Walker@_N@Regexp@re2@@UEAA@XZ
    ??1?$_Alloc_construct_ptr@V?$allocator@U?$_List_node@PEAUState@DFA@re2@@PEAX@std@@@std@@@std@@QEAA@XZ
    ??1?$_Alloc_construct_ptr@V?$allocator@U?$_List_node@U?$pair@$$CB_KH@std@@PEAX@std@@@std@@@std@@QEAA@XZ
    ??1?$_Alloc_construct_ptr@V?$allocator@U?$_List_node@U?$pair@QEAUState@DFA@re2@@H@std@@PEAX@std@@@std@@@std@@QEAA@XZ
    ??1?$_Alloc_construct_ptr@V?$allocator@U?$_Tree_node@HPEAX@std@@@std@@@std@@QEAA@XZ
    ??1?$_Alloc_construct_ptr@V?$allocator@U?$_Tree_node@U?$pair@$$CBHH@std@@PEAX@std@@@std@@@std@@QEAA@XZ
    ??1?$_Alloc_construct_ptr@V?$allocator@U?$_Tree_node@U?$pair@$$CBHV?$basic_string@DU?$char_traits@D@std@@V?$allocator@D@2@@std@@@std@@PEAX@std@@@std@@@std@@QEAA@XZ
    ??1?$_Alloc_construct_ptr@V?$allocator@U?$_Tree_node@U?$pair@$$CBV?$basic_string@DU?$char_traits@D@std@@V?$allocator@D@2@@std@@H@std@@PEAX@std@@@std@@@std@@QEAA@XZ
    ??1?$_Alloc_construct_ptr@V?$allocator@U?$_Tree_node@U?$pair@$$CBV?$basic_string@DU?$char_traits@D@std@@V?$allocator@D@2@@std@@PEAVPrefilter@re2@@@std@@PEAX@std@@@std@@@std@@QEAA@XZ
    ??1?$_Alloc_construct_ptr@V?$allocator@U?$_Tree_node@U?$pair@QEAVRegexp@re2@@H@std@@PEAX@std@@@std@@@std@@QEAA@XZ
    ??1?$_Alloc_construct_ptr@V?$allocator@U?$_Tree_node@URuneRange@re2@@PEAX@std@@@std@@@std@@QEAA@XZ
    ??1?$_Alloc_construct_ptr@V?$allocator@U?$_Tree_node@V?$basic_string@DU?$char_traits@D@std@@V?$allocator@D@2@@std@@PEAX@std@@@std@@@std@@QEAA@XZ
    ??1?$_Alloc_temporary@V?$allocator@E@std@@@std@@QEAA@XZ
    ??1?$_Compressed_pair@V?$allocator@D@std@@V?$_String_val@U?$_Simple_types@D@std@@@2@$00@std@@QEAA@XZ
    ??1?$_Hash@V?$_Umap_traits@PEAUState@DFA@re2@@HV?$_Uhash_compare@PEAUState@DFA@re2@@U?$hash@PEAUState@DFA@re2@@@std@@U?$equal_to@PEAUState@DFA@re2@@@5@@std@@V?$allocator@U?$pair@QEAUState@DFA@re2@@H@std@@@5@$0A@@std@@@std@@QEAA@XZ
    ??1?$_Hash@V?$_Umap_traits@_KHV?$_Uhash_compare@_KU?$hash@_K@std@@U?$equal_to@_K@2@@std@@V?$allocator@U?$pair@$$CB_KH@std@@@2@$0A@@std@@@std@@QEAA@XZ
    ??1?$_Hash@V?$_Uset_traits@PEAUState@DFA@re2@@V?$_Uhash_compare@PEAUState@DFA@re2@@UStateHash@23@UStateEqual@23@@std@@V?$allocator@PEAUState@DFA@re2@@@5@$0A@@std@@@std@@QEAA@XZ
    ??1?$_Hash_vec@V?$allocator@V?$_List_unchecked_const_iterator@V?$_List_val@U?$_List_simple_types@PEAUState@DFA@re2@@@std@@@std@@U_Iterator_base0@2@@std@@@std@@@std@@QEAA@XZ
    ??1?$_Hash_vec@V?$allocator@V?$_List_unchecked_iterator@V?$_List_val@U?$_List_simple_types@U?$pair@$$CB_KH@std@@@std@@@std@@@std@@@std@@@std@@QEAA@XZ
    ??1?$_Hash_vec@V?$allocator@V?$_List_unchecked_iterator@V?$_List_val@U?$_List_simple_types@U?$pair@QEAUState@DFA@re2@@H@std@@@std@@@std@@@std@@@std@@@std@@QEAA@XZ
    ??1?$_List_node_emplace_op2@V?$allocator@U?$_List_node@PEAUState@DFA@re2@@PEAX@std@@@std@@@std@@QEAA@XZ
    ??1?$_List_node_emplace_op2@V?$allocator@U?$_List_node@U?$pair@$$CB_KH@std@@PEAX@std@@@std@@@std@@QEAA@XZ
    ??1?$_List_node_emplace_op2@V?$allocator@U?$_List_node@U?$pair@QEAUState@DFA@re2@@H@std@@PEAX@std@@@std@@@std@@QEAA@XZ
    ??1?$_String_val@U?$_Simple_types@D@std@@@std@@QEAA@XZ
    ??1?$_Tidy_guard@V?$vector@HV?$allocator@H@std@@@std@@@std@@QEAA@XZ
    ??1?$_Tree@V?$_Tmap_traits@HHU?$less@H@std@@V?$allocator@U?$pair@$$CBHH@std@@@2@$0A@@std@@@std@@QEAA@XZ
    ??1?$_Tree@V?$_Tmap_traits@HV?$basic_string@DU?$char_traits@D@std@@V?$allocator@D@2@@std@@U?$less@H@2@V?$allocator@U?$pair@$$CBHV?$basic_string@DU?$char_traits@D@std@@V?$allocator@D@2@@std@@@std@@@2@$0A@@std@@@std@@QEAA@XZ
    ??1?$_Tree@V?$_Tmap_traits@V?$basic_string@DU?$char_traits@D@std@@V?$allocator@D@2@@std@@HU?$less@V?$basic_string@DU?$char_traits@D@std@@V?$allocator@D@2@@std@@@2@V?$allocator@U?$pair@$$CBV?$basic_string@DU?$char_traits@D@std@@V?$allocator@D@2@@std@@H@std@@@2@$0A@@std@@@std@@QEAA@XZ
    ??1?$_Tree@V?$_Tmap_traits@V?$basic_string@DU?$char_traits@D@std@@V?$allocator@D@2@@std@@PEAVPrefilter@re2@@U?$less@V?$basic_string@DU?$char_traits@D@std@@V?$allocator@D@2@@std@@@2@V?$allocator@U?$pair@$$CBV?$basic_string@DU?$char_traits@D@std@@V?$allocator@D@2@@std@@PEAVPrefilter@re2@@@std@@@2@$0A@@std@@@std@@QEAA@XZ
    ??1?$_Tree@V?$_Tset_traits@HU?$less@H@std@@V?$allocator@H@2@$0A@@std@@@std@@QEAA@XZ
    ??1?$_Tree@V?$_Tset_traits@URuneRange@re2@@URuneRangeLess@2@V?$allocator@URuneRange@re2@@@std@@$0A@@std@@@std@@QEAA@XZ
    ??1?$_Tree@V?$_Tset_traits@V?$basic_string@DU?$char_traits@D@std@@V?$allocator@D@2@@std@@U?$less@V?$basic_string@DU?$char_traits@D@std@@V?$allocator@D@2@@std@@@2@V?$allocator@V?$basic_string@DU?$char_traits@D@std@@V?$allocator@D@2@@std@@@2@$0A@@std@@@std@@QEAA@XZ
    ??1?$_Tree_temp_node@V?$allocator@U?$_Tree_node@HPEAX@std@@@std@@@std@@QEAA@XZ
    ??1?$_Tree_temp_node@V?$allocator@U?$_Tree_node@U?$pair@$$CBHH@std@@PEAX@std@@@std@@@std@@QEAA@XZ
    ??1?$_Tree_temp_node@V?$allocator@U?$_Tree_node@U?$pair@$$CBHV?$basic_string@DU?$char_traits@D@std@@V?$allocator@D@2@@std@@@std@@PEAX@std@@@std@@@std@@QEAA@XZ
    ??1?$_Tree_temp_node@V?$allocator@U?$_Tree_node@U?$pair@$$CBV?$basic_string@DU?$char_traits@D@std@@V?$allocator@D@2@@std@@H@std@@PEAX@std@@@std@@@std@@QEAA@XZ
    ??1?$_Tree_temp_node@V?$allocator@U?$_Tree_node@U?$pair@$$CBV?$basic_string@DU?$char_traits@D@std@@V?$allocator@D@2@@std@@PEAVPrefilter@re2@@@std@@PEAX@std@@@std@@@std@@QEAA@XZ
    ??1?$_Tree_temp_node@V?$allocator@U?$_Tree_node@U?$pair@QEAVRegexp@re2@@H@std@@PEAX@std@@@std@@@std@@QEAA@XZ
    ??1?$_Tree_temp_node@V?$allocator@U?$_Tree_node@URuneRange@re2@@PEAX@std@@@std@@@std@@QEAA@XZ
    ??1?$_Tree_temp_node@V?$allocator@U?$_Tree_node@V?$basic_string@DU?$char_traits@D@std@@V?$allocator@D@2@@std@@PEAX@std@@@std@@@std@@QEAA@XZ
    ??1?$_Tree_temp_node_alloc@V?$allocator@U?$_Tree_node@HPEAX@std@@@std@@@std@@QEAA@XZ
    ??1?$_Tree_temp_node_alloc@V?$allocator@U?$_Tree_node@U?$pair@$$CBHH@std@@PEAX@std@@@std@@@std@@QEAA@XZ
    ??1?$_Tree_temp_node_alloc@V?$allocator@U?$_Tree_node@U?$pair@$$CBHV?$basic_string@DU?$char_traits@D@std@@V?$allocator@D@2@@std@@@std@@PEAX@std@@@std@@@std@@QEAA@XZ
    ??1?$_Tree_temp_node_alloc@V?$allocator@U?$_Tree_node@U?$pair@$$CBV?$basic_string@DU?$char_traits@D@std@@V?$allocator@D@2@@std@@H@std@@PEAX@std@@@std@@@std@@QEAA@XZ
    ??1?$_Tree_temp_node_alloc@V?$allocator@U?$_Tree_node@U?$pair@$$CBV?$basic_string@DU?$char_traits@D@std@@V?$allocator@D@2@@std@@PEAVPrefilter@re2@@@std@@PEAX@std@@@std@@@std@@QEAA@XZ
    ??1?$_Tree_temp_node_alloc@V?$allocator@U?$_Tree_node@U?$pair@QEAVRegexp@re2@@H@std@@PEAX@std@@@std@@@std@@QEAA@XZ
    ??1?$_Tree_temp_node_alloc@V?$allocator@U?$_Tree_node@URuneRange@re2@@PEAX@std@@@std@@@std@@QEAA@XZ
    ??1?$_Tree_temp_node_alloc@V?$allocator@U?$_Tree_node@V?$basic_string@DU?$char_traits@D@std@@V?$allocator@D@2@@std@@PEAX@std@@@std@@@std@@QEAA@XZ
    ??1?$_Uninitialized_backout@PEAV?$_List_unchecked_const_iterator@V?$_List_val@U?$_List_simple_types@PEAUState@DFA@re2@@@std@@@std@@U_Iterator_base0@2@@std@@@std@@QEAA@XZ
    ??1?$_Uninitialized_backout@PEAV?$_List_unchecked_iterator@V?$_List_val@U?$_List_simple_types@U?$pair@$$CB_KH@std@@@std@@@std@@@std@@@std@@QEAA@XZ
    ??1?$_Uninitialized_backout@PEAV?$_List_unchecked_iterator@V?$_List_val@U?$_List_simple_types@U?$pair@QEAUState@DFA@re2@@H@std@@@std@@@std@@@std@@@std@@QEAA@XZ
    ??1?$_Uninitialized_backout_al@V?$allocator@U?$pair@HH@std@@@std@@@std@@QEAA@XZ
    ??1?$_Uninitialized_backout_al@V?$allocator@U?$pair@V?$basic_string@DU?$char_traits@D@std@@V?$allocator@D@2@@std@@PEAVRegexp@re2@@@std@@@std@@@std@@QEAA@XZ
    ??1?$_Uninitialized_backout_al@V?$allocator@UEntry@PrefilterTree@re2@@@std@@@std@@QEAA@XZ
    ??1?$_Uninitialized_backout_al@V?$allocator@UFrame@re2@@@std@@@std@@QEAA@XZ
    ??1?$_Uninitialized_backout_al@V?$allocator@URuneRange@re2@@@std@@@std@@QEAA@XZ
    ??1?$_Uninitialized_backout_al@V?$allocator@USplice@re2@@@std@@@std@@QEAA@XZ
    ??1?$_Uninitialized_backout_al@V?$allocator@V?$basic_string@DU?$char_traits@D@std@@V?$allocator@D@2@@std@@@std@@@std@@QEAA@XZ
    ??1?$_Uninitialized_backout_al@V?$allocator@V?$vector@HV?$allocator@H@std@@@std@@@std@@@std@@QEAA@XZ
    ??1?$basic_ostringstream@DU?$char_traits@D@std@@V?$allocator@D@2@@std@@UEAA@XZ
    ??1?$basic_string@DU?$char_traits@D@std@@V?$allocator@D@2@@std@@QEAA@XZ
    ??1?$basic_stringbuf@DU?$char_traits@D@std@@V?$allocator@D@2@@std@@UEAA@XZ
    ??1?$deque@PEAUState@DFA@re2@@V?$allocator@PEAUState@DFA@re2@@@std@@@std@@QEAA@XZ
    ??1?$deque@U?$WalkState@H@re2@@V?$allocator@U?$WalkState@H@re2@@@std@@@std@@QEAA@XZ
    ??1?$deque@U?$WalkState@PEAVInfo@Prefilter@re2@@@re2@@V?$allocator@U?$WalkState@PEAVInfo@Prefilter@re2@@@re2@@@std@@@std@@QEAA@XZ
    ??1?$deque@U?$WalkState@PEAVRegexp@re2@@@re2@@V?$allocator@U?$WalkState@PEAVRegexp@re2@@@re2@@@std@@@std@@QEAA@XZ
    ??1?$deque@U?$WalkState@UFrag@re2@@@re2@@V?$allocator@U?$WalkState@UFrag@re2@@@re2@@@std@@@std@@QEAA@XZ
    ??1?$deque@U?$WalkState@_N@re2@@V?$allocator@U?$WalkState@_N@re2@@@std@@@std@@QEAA@XZ
    ??1?$deque@UThread@NFA@re2@@V?$allocator@UThread@NFA@re2@@@std@@@std@@QEAA@XZ
    ??1?$list@PEAUState@DFA@re2@@V?$allocator@PEAUState@DFA@re2@@@std@@@std@@QEAA@XZ
    ??1?$list@U?$pair@$$CB_KH@std@@V?$allocator@U?$pair@$$CB_KH@std@@@2@@std@@QEAA@XZ
    ??1?$list@U?$pair@QEAUState@DFA@re2@@H@std@@V?$allocator@U?$pair@QEAUState@DFA@re2@@H@std@@@2@@std@@QEAA@XZ
    ??1?$map@HHU?$less@H@std@@V?$allocator@U?$pair@$$CBHH@std@@@2@@std@@QEAA@XZ
    ??1?$map@HV?$basic_string@DU?$char_traits@D@std@@V?$allocator@D@2@@std@@U?$less@H@2@V?$allocator@U?$pair@$$CBHV?$basic_string@DU?$char_traits@D@std@@V?$allocator@D@2@@std@@@std@@@2@@std@@QEAA@XZ
    ??1?$map@V?$basic_string@DU?$char_traits@D@std@@V?$allocator@D@2@@std@@HU?$less@V?$basic_string@DU?$char_traits@D@std@@V?$allocator@D@2@@std@@@2@V?$allocator@U?$pair@$$CBV?$basic_string@DU?$char_traits@D@std@@V?$allocator@D@2@@std@@H@std@@@2@@std@@QEAA@XZ
    ??1?$map@V?$basic_string@DU?$char_traits@D@std@@V?$allocator@D@2@@std@@PEAVPrefilter@re2@@U?$less@V?$basic_string@DU?$char_traits@D@std@@V?$allocator@D@2@@std@@@2@V?$allocator@U?$pair@$$CBV?$basic_string@DU?$char_traits@D@std@@V?$allocator@D@2@@std@@PEAVPrefilter@re2@@@std@@@2@@std@@QEAA@XZ
    ??1?$pair@$$CBHV?$basic_string@DU?$char_traits@D@std@@V?$allocator@D@2@@std@@@std@@QEAA@XZ
    ??1?$pair@$$CBV?$basic_string@DU?$char_traits@D@std@@V?$allocator@D@2@@std@@H@std@@QEAA@XZ
    ??1?$pair@$$CBV?$basic_string@DU?$char_traits@D@std@@V?$allocator@D@2@@std@@PEAVPrefilter@re2@@@std@@QEAA@XZ
    ??1?$pair@V?$basic_string@DU?$char_traits@D@std@@V?$allocator@D@2@@std@@PEAVRegexp@re2@@@std@@QEAA@XZ
    ??1?$set@HU?$less@H@std@@V?$allocator@H@2@@std@@QEAA@XZ
    ??1?$set@URuneRange@re2@@URuneRangeLess@2@V?$allocator@URuneRange@re2@@@std@@@std@@QEAA@XZ
    ??1?$set@V?$basic_string@DU?$char_traits@D@std@@V?$allocator@D@2@@std@@U?$less@V?$basic_string@DU?$char_traits@D@std@@V?$allocator@D@2@@std@@@2@V?$allocator@V?$basic_string@DU?$char_traits@D@std@@V?$allocator@D@2@@std@@@2@@std@@QEAA@XZ
    ??1?$stack@U?$WalkState@H@re2@@V?$deque@U?$WalkState@H@re2@@V?$allocator@U?$WalkState@H@re2@@@std@@@std@@@std@@QEAA@XZ
    ??1?$stack@U?$WalkState@PEAVInfo@Prefilter@re2@@@re2@@V?$deque@U?$WalkState@PEAVInfo@Prefilter@re2@@@re2@@V?$allocator@U?$WalkState@PEAVInfo@Prefilter@re2@@@re2@@@std@@@std@@@std@@QEAA@XZ
    ??1?$stack@U?$WalkState@PEAVRegexp@re2@@@re2@@V?$deque@U?$WalkState@PEAVRegexp@re2@@@re2@@V?$allocator@U?$WalkState@PEAVRegexp@re2@@@re2@@@std@@@std@@@std@@QEAA@XZ
    ??1?$stack@U?$WalkState@UFrag@re2@@@re2@@V?$deque@U?$WalkState@UFrag@re2@@@re2@@V?$allocator@U?$WalkState@UFrag@re2@@@re2@@@std@@@std@@@std@@QEAA@XZ
    ??1?$stack@U?$WalkState@_N@re2@@V?$deque@U?$WalkState@_N@re2@@V?$allocator@U?$WalkState@_N@re2@@@std@@@std@@@std@@QEAA@XZ
    ??1?$unique_ptr@$$BY0A@EUDeleter@?$PODArray@E@re2@@@std@@QEAA@XZ
    ??1?$unique_ptr@$$BY0A@GUDeleter@?$PODArray@G@re2@@@std@@QEAA@XZ
    ??1?$unique_ptr@$$BY0A@HUDeleter@?$PODArray@H@re2@@@std@@QEAA@XZ
    ??1?$unique_ptr@$$BY0A@PEAVRegexp@re2@@UDeleter@?$PODArray@PEAVRegexp@re2@@@2@@std@@QEAA@XZ
    ??1?$unique_ptr@$$BY0A@PEBDUDeleter@?$PODArray@PEBD@re2@@@std@@QEAA@XZ
    ??1?$unique_ptr@$$BY0A@UAddState@NFA@re2@@UDeleter@?$PODArray@UAddState@NFA@re2@@@3@@std@@QEAA@XZ
    ??1?$unique_ptr@$$BY0A@UInstCond@re2@@UDeleter@?$PODArray@UInstCond@re2@@@2@@std@@QEAA@XZ
    ??1?$unique_ptr@$$BY0A@UJob@re2@@UDeleter@?$PODArray@UJob@re2@@@2@@std@@QEAA@XZ
    ??1?$unique_ptr@$$BY0A@VIndexValue@?$SparseArray@H@re2@@UDeleter@?$PODArray@VIndexValue@?$SparseArray@H@re2@@@3@@std@@QEAA@XZ
    ??1?$unique_ptr@$$BY0A@VIndexValue@?$SparseArray@PEAUThread@NFA@re2@@@re2@@UDeleter@?$PODArray@VIndexValue@?$SparseArray@PEAUThread@NFA@re2@@@re2@@@3@@std@@QEAA@XZ
    ??1?$unique_ptr@$$BY0A@VInst@Prog@re2@@UDeleter@?$PODArray@VInst@Prog@re2@@@3@@std@@QEAA@XZ
    ??1?$unique_ptr@$$BY0A@_KUDeleter@?$PODArray@_K@re2@@@std@@QEAA@XZ
    ??1?$unique_ptr@V?$SparseSetT@X@re2@@U?$default_delete@V?$SparseSetT@X@re2@@@std@@@std@@QEAA@XZ
    ??1?$unique_ptr@VPrefilterTree@re2@@U?$default_delete@VPrefilterTree@re2@@@std@@@std@@QEAA@XZ
    ??1?$unique_ptr@VProg@re2@@U?$default_delete@VProg@re2@@@std@@@std@@QEAA@XZ
    ??1?$unordered_map@PEAUState@DFA@re2@@HU?$hash@PEAUState@DFA@re2@@@std@@U?$equal_to@PEAUState@DFA@re2@@@5@V?$allocator@U?$pair@QEAUState@DFA@re2@@H@std@@@5@@std@@QEAA@XZ
    ??1?$unordered_map@_KHU?$hash@_K@std@@U?$equal_to@_K@2@V?$allocator@U?$pair@$$CB_KH@std@@@2@@std@@QEAA@XZ
    ??1?$unordered_set@PEAUState@DFA@re2@@UStateHash@23@UStateEqual@23@V?$allocator@PEAUState@DFA@re2@@@std@@@std@@QEAA@XZ
    ??1?$vector@EV?$allocator@E@std@@@std@@QEAA@XZ
    ??1?$vector@HV?$allocator@H@std@@@std@@QEAA@XZ
    ??1?$vector@PEAVPrefilter@re2@@V?$allocator@PEAVPrefilter@re2@@@std@@@std@@QEAA@XZ
    ??1?$vector@PEAVRE2@re2@@V?$allocator@PEAVRE2@re2@@@std@@@std@@QEAA@XZ
    ??1?$vector@PEAVRegexp@re2@@V?$allocator@PEAVRegexp@re2@@@std@@@std@@QEAA@XZ
    ??1?$vector@U?$pair@HH@std@@V?$allocator@U?$pair@HH@std@@@2@@std@@QEAA@XZ
    ??1?$vector@U?$pair@V?$basic_string@DU?$char_traits@D@std@@V?$allocator@D@2@@std@@PEAVRegexp@re2@@@std@@V?$allocator@U?$pair@V?$basic_string@DU?$char_traits@D@std@@V?$allocator@D@2@@std@@PEAVRegexp@re2@@@std@@@2@@std@@QEAA@XZ
    ??1?$vector@UEntry@PrefilterTree@re2@@V?$allocator@UEntry@PrefilterTree@re2@@@std@@@std@@QEAA@XZ
    ??1?$vector@UFrame@re2@@V?$allocator@UFrame@re2@@@std@@@std@@QEAA@XZ
    ??1?$vector@URuneRange@re2@@V?$allocator@URuneRange@re2@@@std@@@std@@QEAA@XZ
    ??1?$vector@USplice@re2@@V?$allocator@USplice@re2@@@std@@@std@@QEAA@XZ
    ??1?$vector@V?$vector@HV?$allocator@H@std@@@std@@V?$allocator@V?$vector@HV?$allocator@H@std@@@std@@@2@@std@@QEAA@XZ
    ??1?$vector@VInst@Prog@re2@@V?$allocator@VInst@Prog@re2@@@std@@@std@@QEAA@XZ
    ??1BitState@re2@@QEAA@XZ
    ??1ByteMapBuilder@re2@@QEAA@XZ
    ??1CaptureNamesWalker@re2@@UEAA@XZ
    ??1CharClassBuilder@re2@@QEAA@XZ
    ??1CoalesceWalker@re2@@UEAA@XZ
    ??1Compiler@re2@@UEAA@XZ
    ??1DFA@re2@@QEAA@XZ
    ??1EmptyStringWalker@re2@@UEAA@XZ
    ??1Entry@PrefilterTree@re2@@QEAA@XZ
    ??1FilteredRE2@re2@@QEAA@XZ
    ??1Frame@re2@@QEAA@XZ
    ??1Info@Prefilter@re2@@QEAA@XZ
    ??1LogMessage@@QEAA@XZ
    ??1LogMessageFatal@@QEAA@XZ
    ??1Mutex@re2@@QEAA@XZ
    ??1MutexLock@re2@@QEAA@XZ
    ??1NFA@re2@@QEAA@XZ
    ??1NamedCapturesWalker@re2@@UEAA@XZ
    ??1NumCapturesWalker@re2@@UEAA@XZ
    ??1PCREWalker@re2@@UEAA@XZ
    ??1ParseState@Regexp@re2@@QEAA@XZ
    ??1Prefilter@re2@@QEAA@XZ
    ??1PrefilterTree@re2@@QEAA@XZ
    ??1Prog@re2@@QEAA@XZ
    ??1RE2@re2@@QEAA@XZ
    ??1RWLocker@DFA@re2@@QEAA@XZ
    ??1Regexp@re2@@AEAA@XZ
    ??1RegexpStatus@re2@@QEAA@XZ
    ??1RepetitionWalker@re2@@UEAA@XZ
    ??1Set@RE2@re2@@QEAA@XZ
    ??1SimplifyWalker@re2@@UEAA@XZ
    ??1StateSaver@DFA@re2@@QEAA@XZ
    ??1ToStringWalker@re2@@UEAA@XZ
    ??1Walker@Info@Prefilter@re2@@UEAA@XZ
    ??1Workq@DFA@re2@@QEAA@XZ
    ??1_Bxty@?$_String_val@U?$_Simple_types@D@std@@@std@@QEAA@XZ
    ??1_Clear_guard@?$_Hash@V?$_Umap_traits@PEAUState@DFA@re2@@HV?$_Uhash_compare@PEAUState@DFA@re2@@U?$hash@PEAUState@DFA@re2@@@std@@U?$equal_to@PEAUState@DFA@re2@@@5@@std@@V?$allocator@U?$pair@QEAUState@DFA@re2@@H@std@@@5@$0A@@std@@@std@@QEAA@XZ
    ??1_Clear_guard@?$_Hash@V?$_Umap_traits@_KHV?$_Uhash_compare@_KU?$hash@_K@std@@U?$equal_to@_K@2@@std@@V?$allocator@U?$pair@$$CB_KH@std@@@2@$0A@@std@@@std@@QEAA@XZ
    ??1_Clear_guard@?$_Hash@V?$_Uset_traits@PEAUState@DFA@re2@@V?$_Uhash_compare@PEAUState@DFA@re2@@UStateHash@23@UStateEqual@23@@std@@V?$allocator@PEAUState@DFA@re2@@@5@$0A@@std@@@std@@QEAA@XZ
    ??1_Init_once_completer@std@@QEAA@XZ
    ??1_Range_eraser@?$_Hash@V?$_Umap_traits@PEAUState@DFA@re2@@HV?$_Uhash_compare@PEAUState@DFA@re2@@U?$hash@PEAUState@DFA@re2@@@std@@U?$equal_to@PEAUState@DFA@re2@@@5@@std@@V?$allocator@U?$pair@QEAUState@DFA@re2@@H@std@@@5@$0A@@std@@@std@@QEAA@XZ
    ??1_Range_eraser@?$_Hash@V?$_Umap_traits@_KHV?$_Uhash_compare@_KU?$hash@_K@std@@U?$equal_to@_K@2@@std@@V?$allocator@U?$pair@$$CB_KH@std@@@2@$0A@@std@@@std@@QEAA@XZ
    ??1_Sentry_base@?$basic_ostream@DU?$char_traits@D@std@@@std@@QEAA@XZ
    ??1bad_alloc@std@@UEAA@XZ
    ??1bad_array_new_length@std@@UEAA@XZ
    ??1exception@std@@UEAA@XZ
    ??1sentry@?$basic_ostream@DU?$char_traits@D@std@@@std@@QEAA@XZ
    ??2@YAPEAX_KPEAX@Z
    ??4?$PODArray@E@re2@@QEAAAEAV01@$$QEAV01@@Z
    ??4?$PODArray@G@re2@@QEAAAEAV01@$$QEAV01@@Z
    ??4?$PODArray@H@re2@@QEAAAEAV01@$$QEAV01@@Z
    ??4?$PODArray@PEAVRegexp@re2@@@re2@@QEAAAEAV01@$$QEAV01@@Z
    ??4?$PODArray@PEBD@re2@@QEAAAEAV01@$$QEAV01@@Z
    ??4?$PODArray@UAddState@NFA@re2@@@re2@@QEAAAEAV01@$$QEAV01@@Z
    ??4?$PODArray@UJob@re2@@@re2@@QEAAAEAV01@$$QEAV01@@Z
    ??4?$PODArray@VIndexValue@?$SparseArray@PEAUThread@NFA@re2@@@re2@@@re2@@QEAAAEAV01@$$QEAV01@@Z
    ??4?$PODArray@VInst@Prog@re2@@@re2@@QEAAAEAV01@$$QEAV01@@Z
    ??4?$PODArray@_K@re2@@QEAAAEAV01@$$QEAV01@@Z
    ??4?$basic_string@DU?$char_traits@D@std@@V?$allocator@D@2@@std@@QEAAAEAV01@$$QEAV01@@Z
    ??4?$basic_string@DU?$char_traits@D@std@@V?$allocator@D@2@@std@@QEAAAEAV01@AEBV01@@Z
    ??4?$basic_string@DU?$char_traits@D@std@@V?$allocator@D@2@@std@@QEAAAEAV01@QEBD@Z
    ??4FilteredRE2@re2@@QEAAAEAV01@$$QEAV01@@Z
    ??4Set@RE2@re2@@QEAAAEAV012@$$QEAV012@@Z
    ??6re2@@YAAEAV?$basic_ostream@DU?$char_traits@D@std@@@std@@AEAV12@AEBVStringPiece@0@@Z
    ??8?$_Deque_unchecked_const_iterator@V?$_Deque_val@U?$_Deque_simple_types@UThread@NFA@re2@@@std@@@std@@@std@@QEBA_NAEBV01@@Z
    ??8?$_List_const_iterator@V?$_List_val@U?$_List_simple_types@PEAUState@DFA@re2@@@std@@@std@@@std@@QEBA_NAEBV01@@Z
    ??8?$_List_const_iterator@V?$_List_val@U?$_List_simple_types@U?$pair@$$CB_KH@std@@@std@@@std@@@std@@QEBA_NAEBV01@@Z
    ??8?$_List_const_iterator@V?$_List_val@U?$_List_simple_types@U?$pair@QEAUState@DFA@re2@@H@std@@@std@@@std@@@std@@QEBA_NAEBV01@@Z
    ??8?$_List_unchecked_const_iterator@V?$_List_val@U?$_List_simple_types@PEAUState@DFA@re2@@@std@@@std@@U_Iterator_base0@2@@std@@QEBA_NAEBV01@@Z
    ??8?$_List_unchecked_const_iterator@V?$_List_val@U?$_List_simple_types@U?$pair@$$CB_KH@std@@@std@@@std@@U_Iterator_base0@2@@std@@QEBA_NAEBV01@@Z
    ??8?$_List_unchecked_const_iterator@V?$_List_val@U?$_List_simple_types@U?$pair@QEAUState@DFA@re2@@H@std@@@std@@@std@@U_Iterator_base0@2@@std@@QEBA_NAEBV01@@Z
    ??8?$_Tree_const_iterator@V?$_Tree_val@U?$_Tree_simple_types@U?$pair@$$CBHH@std@@@std@@@std@@@std@@QEBA_NAEBV01@@Z
    ??8?$_Tree_const_iterator@V?$_Tree_val@U?$_Tree_simple_types@U?$pair@$$CBV?$basic_string@DU?$char_traits@D@std@@V?$allocator@D@2@@std@@H@std@@@std@@@std@@@std@@QEBA_NAEBV01@@Z
    ??8?$_Tree_const_iterator@V?$_Tree_val@U?$_Tree_simple_types@U?$pair@$$CBV?$basic_string@DU?$char_traits@D@std@@V?$allocator@D@2@@std@@PEAVPrefilter@re2@@@std@@@std@@@std@@@std@@QEBA_NAEBV01@@Z
    ??8?$_Tree_const_iterator@V?$_Tree_val@U?$_Tree_simple_types@URuneRange@re2@@@std@@@std@@@std@@QEBA_NAEBV01@@Z
    ??8?$_Tree_const_iterator@V?$_Tree_val@U?$_Tree_simple_types@V?$basic_string@DU?$char_traits@D@std@@V?$allocator@D@2@@std@@@std@@@std@@@std@@QEBA_NAEBV01@@Z
    ??8?$_Tree_unchecked_const_iterator@V?$_Tree_val@U?$_Tree_simple_types@U?$pair@QEAVRegexp@re2@@H@std@@@std@@@std@@U_Iterator_base0@2@@std@@QEBA_NAEBV01@@Z
    ??8?$_Vector_const_iterator@V?$_Vector_val@U?$_Simple_types@U?$pair@HH@std@@@std@@@std@@@std@@QEBA_NAEBV01@@Z
    ??8?$_Vector_const_iterator@V?$_Vector_val@U?$_Simple_types@USplice@re2@@@std@@@std@@@std@@QEBA_NAEBV01@@Z
    ??8re2@@YA_NAEBVStringPiece@0@0@Z
    ??9?$_Deque_unchecked_const_iterator@V?$_Deque_val@U?$_Deque_simple_types@UThread@NFA@re2@@@std@@@std@@@std@@QEBA_NAEBV01@@Z
    ??9?$_List_const_iterator@V?$_List_val@U?$_List_simple_types@PEAUState@DFA@re2@@@std@@@std@@@std@@QEBA_NAEBV01@@Z
    ??9?$_List_const_iterator@V?$_List_val@U?$_List_simple_types@U?$pair@$$CB_KH@std@@@std@@@std@@@std@@QEBA_NAEBV01@@Z
    ??9?$_List_unchecked_const_iterator@V?$_List_val@U?$_List_simple_types@PEAUState@DFA@re2@@@std@@@std@@U_Iterator_base0@2@@std@@QEBA_NAEBV01@@Z
    ??9?$_List_unchecked_const_iterator@V?$_List_val@U?$_List_simple_types@U?$pair@$$CB_KH@std@@@std@@@std@@U_Iterator_base0@2@@std@@QEBA_NAEBV01@@Z
    ??9?$_List_unchecked_const_iterator@V?$_List_val@U?$_List_simple_types@U?$pair@QEAUState@DFA@re2@@H@std@@@std@@@std@@U_Iterator_base0@2@@std@@QEBA_NAEBV01@@Z
    ??9?$_Tree_const_iterator@V?$_Tree_val@U?$_Tree_simple_types@U?$pair@$$CBHH@std@@@std@@@std@@@std@@QEBA_NAEBV01@@Z
    ??9?$_Tree_const_iterator@V?$_Tree_val@U?$_Tree_simple_types@U?$pair@$$CBV?$basic_string@DU?$char_traits@D@std@@V?$allocator@D@2@@std@@PEAVPrefilter@re2@@@std@@@std@@@std@@@std@@QEBA_NAEBV01@@Z
    ??9?$_Tree_const_iterator@V?$_Tree_val@U?$_Tree_simple_types@URuneRange@re2@@@std@@@std@@@std@@QEBA_NAEBV01@@Z
    ??9?$_Tree_const_iterator@V?$_Tree_val@U?$_Tree_simple_types@V?$basic_string@DU?$char_traits@D@std@@V?$allocator@D@2@@std@@@std@@@std@@@std@@QEBA_NAEBV01@@Z
    ??9?$_Tree_unchecked_const_iterator@V?$_Tree_val@U?$_Tree_simple_types@U?$pair@QEAVRegexp@re2@@H@std@@@std@@@std@@U_Iterator_base0@2@@std@@QEBA_NAEBV01@@Z
    ??9?$_Vector_const_iterator@V?$_Vector_val@U?$_Simple_types@U?$pair@HH@std@@@std@@@std@@@std@@QEBA_NAEBV01@@Z
    ??A?$PODArray@G@re2@@QEBAAEAGH@Z
    ??A?$PODArray@H@re2@@QEBAAEAHH@Z
    ??A?$PODArray@PEAVRegexp@re2@@@re2@@QEBAAEAPEAVRegexp@1@H@Z
    ??A?$PODArray@PEBD@re2@@QEBAAEAPEBDH@Z
    ??A?$PODArray@UInstCond@re2@@@re2@@QEBAAEAUInstCond@1@H@Z
    ??A?$PODArray@UJob@re2@@@re2@@QEBAAEAUJob@1@H@Z
    ??A?$PODArray@VIndexValue@?$SparseArray@H@re2@@@re2@@QEBAAEAVIndexValue@?$SparseArray@H@1@H@Z
    ??A?$PODArray@VIndexValue@?$SparseArray@PEAUThread@NFA@re2@@@re2@@@re2@@QEBAAEAVIndexValue@?$SparseArray@PEAUThread@NFA@re2@@@1@H@Z
    ??A?$PODArray@VInst@Prog@re2@@@re2@@QEBAAEAVInst@Prog@1@H@Z
    ??A?$PODArray@_K@re2@@QEBAAEA_KH@Z
    ??A?$basic_string@DU?$char_traits@D@std@@V?$allocator@D@2@@std@@QEAAAEAD_K@Z
    ??A?$basic_string@DU?$char_traits@D@std@@V?$allocator@D@2@@std@@QEBAAEBD_K@Z
    ??A?$map@HHU?$less@H@std@@V?$allocator@U?$pair@$$CBHH@std@@@2@@std@@QEAAAEAH$$QEAH@Z
    ??A?$map@HHU?$less@H@std@@V?$allocator@U?$pair@$$CBHH@std@@@2@@std@@QEAAAEAHAEBH@Z
    ??A?$map@HV?$basic_string@DU?$char_traits@D@std@@V?$allocator@D@2@@std@@U?$less@H@2@V?$allocator@U?$pair@$$CBHV?$basic_string@DU?$char_traits@D@std@@V?$allocator@D@2@@std@@@std@@@2@@std@@QEAAAEAV?$basic_string@DU?$char_traits@D@std@@V?$allocator@D@2@@1@$$QEAH@Z
    ??A?$map@PEAVRegexp@re2@@HU?$less@PEAVRegexp@re2@@@std@@V?$allocator@U?$pair@QEAVRegexp@re2@@H@std@@@4@@std@@QEAAAEAH$$QEAPEAVRegexp@re2@@@Z
    ??A?$map@V?$basic_string@DU?$char_traits@D@std@@V?$allocator@D@2@@std@@HU?$less@V?$basic_string@DU?$char_traits@D@std@@V?$allocator@D@2@@std@@@2@V?$allocator@U?$pair@$$CBV?$basic_string@DU?$char_traits@D@std@@V?$allocator@D@2@@std@@H@std@@@2@@std@@QEAAAEAHAEBV?$basic_string@DU?$char_traits@D@std@@V?$allocator@D@2@@1@@Z
    ??A?$unique_ptr@$$BY0A@GUDeleter@?$PODArray@G@re2@@@std@@QEBAAEAG_K@Z
    ??A?$unique_ptr@$$BY0A@HUDeleter@?$PODArray@H@re2@@@std@@QEBAAEAH_K@Z
    ??A?$unique_ptr@$$BY0A@PEAVRegexp@re2@@UDeleter@?$PODArray@PEAVRegexp@re2@@@2@@std@@QEBAAEAPEAVRegexp@re2@@_K@Z
    ??A?$unique_ptr@$$BY0A@PEBDUDeleter@?$PODArray@PEBD@re2@@@std@@QEBAAEAPEBD_K@Z
    ??A?$unique_ptr@$$BY0A@UInstCond@re2@@UDeleter@?$PODArray@UInstCond@re2@@@2@@std@@QEBAAEAUInstCond@re2@@_K@Z
    ??A?$unique_ptr@$$BY0A@UJob@re2@@UDeleter@?$PODArray@UJob@re2@@@2@@std@@QEBAAEAUJob@re2@@_K@Z
    ??A?$unique_ptr@$$BY0A@VIndexValue@?$SparseArray@H@re2@@UDeleter@?$PODArray@VIndexValue@?$SparseArray@H@re2@@@3@@std@@QEBAAEAVIndexValue@?$SparseArray@H@re2@@_K@Z
    ??A?$unique_ptr@$$BY0A@VIndexValue@?$SparseArray@PEAUThread@NFA@re2@@@re2@@UDeleter@?$PODArray@VIndexValue@?$SparseArray@PEAUThread@NFA@re2@@@re2@@@3@@std@@QEBAAEAVIndexValue@?$SparseArray@PEAUThread@NFA@re2@@@re2@@_K@Z
    ??A?$unique_ptr@$$BY0A@VInst@Prog@re2@@UDeleter@?$PODArray@VInst@Prog@re2@@@3@@std@@QEBAAEAVInst@Prog@re2@@_K@Z
    ??A?$unique_ptr@$$BY0A@_KUDeleter@?$PODArray@_K@re2@@@std@@QEBAAEA_K_K@Z
    ??A?$unordered_map@PEAUState@DFA@re2@@HU?$hash@PEAUState@DFA@re2@@@std@@U?$equal_to@PEAUState@DFA@re2@@@5@V?$allocator@U?$pair@QEAUState@DFA@re2@@H@std@@@5@@std@@QEAAAEAHAEBQEAUState@DFA@re2@@@Z
    ??A?$unordered_map@_KHU?$hash@_K@std@@U?$equal_to@_K@2@V?$allocator@U?$pair@$$CB_KH@std@@@2@@std@@QEAAAEAHAEB_K@Z
    ??A?$vector@HV?$allocator@H@std@@@std@@QEAAAEAH_K@Z
    ??A?$vector@HV?$allocator@H@std@@@std@@QEBAAEBH_K@Z
    ??A?$vector@PEAVPrefilter@re2@@V?$allocator@PEAVPrefilter@re2@@@std@@@std@@QEAAAEAPEAVPrefilter@re2@@_K@Z
    ??A?$vector@PEAVPrefilter@re2@@V?$allocator@PEAVPrefilter@re2@@@std@@@std@@QEBAAEBQEAVPrefilter@re2@@_K@Z
    ??A?$vector@PEAVRE2@re2@@V?$allocator@PEAVRE2@re2@@@std@@@std@@QEAAAEAPEAVRE2@re2@@_K@Z
    ??A?$vector@PEAVRE2@re2@@V?$allocator@PEAVRE2@re2@@@std@@@std@@QEBAAEBQEAVRE2@re2@@_K@Z
    ??A?$vector@PEAVRegexp@re2@@V?$allocator@PEAVRegexp@re2@@@std@@@std@@QEAAAEAPEAVRegexp@re2@@_K@Z
    ??A?$vector@U?$pair@V?$basic_string@DU?$char_traits@D@std@@V?$allocator@D@2@@std@@PEAVRegexp@re2@@@std@@V?$allocator@U?$pair@V?$basic_string@DU?$char_traits@D@std@@V?$allocator@D@2@@std@@PEAVRegexp@re2@@@std@@@2@@std@@QEAAAEAU?$pair@V?$basic_string@DU?$char_traits@D@std@@V?$allocator@D@2@@std@@PEAVRegexp@re2@@@1@_K@Z
    ??A?$vector@UEntry@PrefilterTree@re2@@V?$allocator@UEntry@PrefilterTree@re2@@@std@@@std@@QEAAAEAUEntry@PrefilterTree@re2@@_K@Z
    ??A?$vector@UEntry@PrefilterTree@re2@@V?$allocator@UEntry@PrefilterTree@re2@@@std@@@std@@QEBAAEBUEntry@PrefilterTree@re2@@_K@Z
    ??A?$vector@URuneRange@re2@@V?$allocator@URuneRange@re2@@@std@@@std@@QEAAAEAURuneRange@re2@@_K@Z
    ??A?$vector@USplice@re2@@V?$allocator@USplice@re2@@@std@@@std@@QEAAAEAUSplice@re2@@_K@Z
    ??A?$vector@V?$vector@HV?$allocator@H@std@@@std@@V?$allocator@V?$vector@HV?$allocator@H@std@@@std@@@2@@std@@QEAAAEAV?$vector@HV?$allocator@H@std@@@1@_K@Z
    ??A?$vector@VInst@Prog@re2@@V?$allocator@VInst@Prog@re2@@@std@@@std@@QEAAAEAVInst@Prog@re2@@_K@Z
    ??AStringPiece@re2@@QEBAAEBD_K@Z
    ??B?$fpos@U_Mbstatet@@@std@@QEBA_JXZ
    ??B?$function@$$A6AXPEBH_N@Z@std@@QEBA_NXZ
    ??B?$unique_ptr@VProg@re2@@U?$default_delete@VProg@re2@@@std@@@std@@QEBA_NXZ
    ??Bsentry@?$basic_ostream@DU?$char_traits@D@std@@@std@@QEBA_NXZ
    ??C?$_List_const_iterator@V?$_List_val@U?$_List_simple_types@U?$pair@$$CB_KH@std@@@std@@@std@@@std@@QEBAPEBU?$pair@$$CB_KH@1@XZ
    ??C?$_Tree_const_iterator@V?$_Tree_val@U?$_Tree_simple_types@URuneRange@re2@@@std@@@std@@@std@@QEBAPEBURuneRange@re2@@XZ
    ??C?$_Tree_const_iterator@V?$_Tree_val@U?$_Tree_simple_types@V?$basic_string@DU?$char_traits@D@std@@V?$allocator@D@2@@std@@@std@@@std@@@std@@QEBAPEBV?$basic_string@DU?$char_traits@D@std@@V?$allocator@D@2@@1@XZ
    ??C?$_Tree_iterator@V?$_Tree_val@U?$_Tree_simple_types@U?$pair@$$CBHH@std@@@std@@@std@@@std@@QEBAPEAU?$pair@$$CBHH@1@XZ
    ??C?$_Vector_const_iterator@V?$_Vector_val@U?$_Simple_types@U?$pair@HH@std@@@std@@@std@@@std@@QEBAPEBU?$pair@HH@1@XZ
    ??C?$_Vector_const_iterator@V?$_Vector_val@U?$_Simple_types@USplice@re2@@@std@@@std@@@std@@QEBAPEBUSplice@re2@@XZ
    ??C?$_Vector_iterator@V?$_Vector_val@U?$_Simple_types@USplice@re2@@@std@@@std@@@std@@QEBAPEAUSplice@re2@@XZ
    ??C?$unique_ptr@V?$SparseSetT@X@re2@@U?$default_delete@V?$SparseSetT@X@re2@@@std@@@std@@QEBAPEAV?$SparseSetT@X@re2@@XZ
    ??C?$unique_ptr@VPrefilterTree@re2@@U?$default_delete@VPrefilterTree@re2@@@std@@@std@@QEBAPEAVPrefilterTree@re2@@XZ
    ??C?$unique_ptr@VProg@re2@@U?$default_delete@VProg@re2@@@std@@@std@@QEBAPEAVProg@re2@@XZ
    ??D?$_Deque_unchecked_const_iterator@V?$_Deque_val@U?$_Deque_simple_types@PEAUState@DFA@re2@@@std@@@std@@@std@@QEBAAEBQEAUState@DFA@re2@@XZ
    ??D?$_Deque_unchecked_const_iterator@V?$_Deque_val@U?$_Deque_simple_types@U?$WalkState@H@re2@@@std@@@std@@@std@@QEBAAEBU?$WalkState@H@re2@@XZ
    ??D?$_Deque_unchecked_const_iterator@V?$_Deque_val@U?$_Deque_simple_types@U?$WalkState@PEAVInfo@Prefilter@re2@@@re2@@@std@@@std@@@std@@QEBAAEBU?$WalkState@PEAVInfo@Prefilter@re2@@@re2@@XZ
    ??D?$_Deque_unchecked_const_iterator@V?$_Deque_val@U?$_Deque_simple_types@U?$WalkState@PEAVRegexp@re2@@@re2@@@std@@@std@@@std@@QEBAAEBU?$WalkState@PEAVRegexp@re2@@@re2@@XZ
    ??D?$_Deque_unchecked_const_iterator@V?$_Deque_val@U?$_Deque_simple_types@U?$WalkState@UFrag@re2@@@re2@@@std@@@std@@@std@@QEBAAEBU?$WalkState@UFrag@re2@@@re2@@XZ
    ??D?$_Deque_unchecked_const_iterator@V?$_Deque_val@U?$_Deque_simple_types@U?$WalkState@_N@re2@@@std@@@std@@@std@@QEBAAEBU?$WalkState@_N@re2@@XZ
    ??D?$_Deque_unchecked_const_iterator@V?$_Deque_val@U?$_Deque_simple_types@UThread@NFA@re2@@@std@@@std@@@std@@QEBAAEBUThread@NFA@re2@@XZ
    ??D?$_Deque_unchecked_iterator@V?$_Deque_val@U?$_Deque_simple_types@PEAUState@DFA@re2@@@std@@@std@@@std@@QEBAAEAPEAUState@DFA@re2@@XZ
    ??D?$_Deque_unchecked_iterator@V?$_Deque_val@U?$_Deque_simple_types@U?$WalkState@H@re2@@@std@@@std@@@std@@QEBAAEAU?$WalkState@H@re2@@XZ
    ??D?$_Deque_unchecked_iterator@V?$_Deque_val@U?$_Deque_simple_types@U?$WalkState@PEAVInfo@Prefilter@re2@@@re2@@@std@@@std@@@std@@QEBAAEAU?$WalkState@PEAVInfo@Prefilter@re2@@@re2@@XZ
    ??D?$_Deque_unchecked_iterator@V?$_Deque_val@U?$_Deque_simple_types@U?$WalkState@PEAVRegexp@re2@@@re2@@@std@@@std@@@std@@QEBAAEAU?$WalkState@PEAVRegexp@re2@@@re2@@XZ
    ??D?$_Deque_unchecked_iterator@V?$_Deque_val@U?$_Deque_simple_types@U?$WalkState@UFrag@re2@@@re2@@@std@@@std@@@std@@QEBAAEAU?$WalkState@UFrag@re2@@@re2@@XZ
    ??D?$_Deque_unchecked_iterator@V?$_Deque_val@U?$_Deque_simple_types@U?$WalkState@_N@re2@@@std@@@std@@@std@@QEBAAEAU?$WalkState@_N@re2@@XZ
    ??D?$_Deque_unchecked_iterator@V?$_Deque_val@U?$_Deque_simple_types@UThread@NFA@re2@@@std@@@std@@@std@@QEBAAEAUThread@NFA@re2@@XZ
    ??D?$_List_const_iterator@V?$_List_val@U?$_List_simple_types@PEAUState@DFA@re2@@@std@@@std@@@std@@QEBAAEBQEAUState@DFA@re2@@XZ
    ??D?$_List_const_iterator@V?$_List_val@U?$_List_simple_types@U?$pair@$$CB_KH@std@@@std@@@std@@@std@@QEBAAEBU?$pair@$$CB_KH@1@XZ
    ??D?$_List_unchecked_const_iterator@V?$_List_val@U?$_List_simple_types@PEAUState@DFA@re2@@@std@@@std@@U_Iterator_base0@2@@std@@QEBAAEBQEAUState@DFA@re2@@XZ
    ??D?$_List_unchecked_const_iterator@V?$_List_val@U?$_List_simple_types@U?$pair@$$CB_KH@std@@@std@@@std@@U_Iterator_base0@2@@std@@QEBAAEBU?$pair@$$CB_KH@1@XZ
    ??D?$_List_unchecked_const_iterator@V?$_List_val@U?$_List_simple_types@U?$pair@QEAUState@DFA@re2@@H@std@@@std@@@std@@U_Iterator_base0@2@@std@@QEBAAEBU?$pair@QEAUState@DFA@re2@@H@1@XZ
    ??D?$_List_unchecked_iterator@V?$_List_val@U?$_List_simple_types@U?$pair@$$CB_KH@std@@@std@@@std@@@std@@QEBAAEAU?$pair@$$CB_KH@1@XZ
    ??D?$_List_unchecked_iterator@V?$_List_val@U?$_List_simple_types@U?$pair@QEAUState@DFA@re2@@H@std@@@std@@@std@@@std@@QEBAAEAU?$pair@QEAUState@DFA@re2@@H@1@XZ
    ??D?$_Tree_const_iterator@V?$_Tree_val@U?$_Tree_simple_types@U?$pair@$$CBHH@std@@@std@@@std@@@std@@QEBAAEBU?$pair@$$CBHH@1@XZ
    ??D?$_Tree_const_iterator@V?$_Tree_val@U?$_Tree_simple_types@U?$pair@$$CBV?$basic_string@DU?$char_traits@D@std@@V?$allocator@D@2@@std@@PEAVPrefilter@re2@@@std@@@std@@@std@@@std@@QEBAAEBU?$pair@$$CBV?$basic_string@DU?$char_traits@D@std@@V?$allocator@D@2@@std@@PEAVPrefilter@re2@@@1@XZ
    ??D?$_Tree_const_iterator@V?$_Tree_val@U?$_Tree_simple_types@URuneRange@re2@@@std@@@std@@@std@@QEBAAEBURuneRange@re2@@XZ
    ??D?$_Tree_const_iterator@V?$_Tree_val@U?$_Tree_simple_types@V?$basic_string@DU?$char_traits@D@std@@V?$allocator@D@2@@std@@@std@@@std@@@std@@QEBAAEBV?$basic_string@DU?$char_traits@D@std@@V?$allocator@D@2@@1@XZ
    ??D?$_Tree_iterator@V?$_Tree_val@U?$_Tree_simple_types@U?$pair@$$CBHH@std@@@std@@@std@@@std@@QEBAAEAU?$pair@$$CBHH@1@XZ
    ??D?$_Tree_iterator@V?$_Tree_val@U?$_Tree_simple_types@U?$pair@$$CBV?$basic_string@DU?$char_traits@D@std@@V?$allocator@D@2@@std@@PEAVPrefilter@re2@@@std@@@std@@@std@@@std@@QEBAAEAU?$pair@$$CBV?$basic_string@DU?$char_traits@D@std@@V?$allocator@D@2@@std@@PEAVPrefilter@re2@@@1@XZ
    ??E?$_Deque_unchecked_const_iterator@V?$_Deque_val@U?$_Deque_simple_types@UThread@NFA@re2@@@std@@@std@@@std@@QEAAAEAV01@XZ
    ??E?$_Deque_unchecked_iterator@V?$_Deque_val@U?$_Deque_simple_types@UThread@NFA@re2@@@std@@@std@@@std@@QEAAAEAV01@XZ
    ??E?$_List_const_iterator@V?$_List_val@U?$_List_simple_types@PEAUState@DFA@re2@@@std@@@std@@@std@@QEAAAEAV01@XZ
    ??E?$_List_unchecked_const_iterator@V?$_List_val@U?$_List_simple_types@PEAUState@DFA@re2@@@std@@@std@@U_Iterator_base0@2@@std@@QEAAAEAV01@XZ
    ??E?$_List_unchecked_const_iterator@V?$_List_val@U?$_List_simple_types@U?$pair@$$CB_KH@std@@@std@@@std@@U_Iterator_base0@2@@std@@QEAAAEAV01@XZ
    ??E?$_List_unchecked_const_iterator@V?$_List_val@U?$_List_simple_types@U?$pair@QEAUState@DFA@re2@@H@std@@@std@@@std@@U_Iterator_base0@2@@std@@QEAAAEAV01@XZ
    ??E?$_List_unchecked_iterator@V?$_List_val@U?$_List_simple_types@U?$pair@$$CB_KH@std@@@std@@@std@@@std@@QEAAAEAV01@XZ
    ??E?$_List_unchecked_iterator@V?$_List_val@U?$_List_simple_types@U?$pair@QEAUState@DFA@re2@@H@std@@@std@@@std@@@std@@QEAAAEAV01@XZ
    ??E?$_Tree_const_iterator@V?$_Tree_val@U?$_Tree_simple_types@U?$pair@$$CBHH@std@@@std@@@std@@@std@@QEAAAEAV01@XZ
    ??E?$_Tree_const_iterator@V?$_Tree_val@U?$_Tree_simple_types@U?$pair@$$CBV?$basic_string@DU?$char_traits@D@std@@V?$allocator@D@2@@std@@PEAVPrefilter@re2@@@std@@@std@@@std@@@std@@QEAAAEAV01@XZ
    ??E?$_Tree_const_iterator@V?$_Tree_val@U?$_Tree_simple_types@URuneRange@re2@@@std@@@std@@@std@@QEAAAEAV01@XZ
    ??E?$_Tree_const_iterator@V?$_Tree_val@U?$_Tree_simple_types@V?$basic_string@DU?$char_traits@D@std@@V?$allocator@D@2@@std@@@std@@@std@@@std@@QEAAAEAV01@XZ
    ??E?$_Tree_iterator@V?$_Tree_val@U?$_Tree_simple_types@U?$pair@$$CBHH@std@@@std@@@std@@@std@@QEAAAEAV01@XZ
    ??E?$_Tree_unchecked_const_iterator@V?$_Tree_val@U?$_Tree_simple_types@U?$pair@$$CBHH@std@@@std@@@std@@U_Iterator_base0@2@@std@@QEAAAEAV01@XZ
    ??E?$_Tree_unchecked_const_iterator@V?$_Tree_val@U?$_Tree_simple_types@U?$pair@$$CBV?$basic_string@DU?$char_traits@D@std@@V?$allocator@D@2@@std@@PEAVPrefilter@re2@@@std@@@std@@@std@@U_Iterator_base0@2@@std@@QEAAAEAV01@XZ
    ??E?$_Tree_unchecked_const_iterator@V?$_Tree_val@U?$_Tree_simple_types@U?$pair@QEAVRegexp@re2@@H@std@@@std@@@std@@U_Iterator_base0@2@@std@@QEAA?AV01@H@Z
    ??E?$_Tree_unchecked_const_iterator@V?$_Tree_val@U?$_Tree_simple_types@U?$pair@QEAVRegexp@re2@@H@std@@@std@@@std@@U_Iterator_base0@2@@std@@QEAAAEAV01@XZ
    ??E?$_Tree_unchecked_const_iterator@V?$_Tree_val@U?$_Tree_simple_types@URuneRange@re2@@@std@@@std@@U_Iterator_base0@2@@std@@QEAAAEAV01@XZ
    ??E?$_Tree_unchecked_const_iterator@V?$_Tree_val@U?$_Tree_simple_types@V?$basic_string@DU?$char_traits@D@std@@V?$allocator@D@2@@std@@@std@@@std@@U_Iterator_base0@2@@std@@QEAAAEAV01@XZ
    ??E?$_Vector_const_iterator@V?$_Vector_val@U?$_Simple_types@U?$pair@HH@std@@@std@@@std@@@std@@QEAAAEAV01@XZ
    ??E?$_Vector_const_iterator@V?$_Vector_val@U?$_Simple_types@USplice@re2@@@std@@@std@@@std@@QEAAAEAV01@XZ
    ??E?$_Vector_iterator@V?$_Vector_val@U?$_Simple_types@USplice@re2@@@std@@@std@@@std@@QEAAAEAV01@XZ
    ??F?$_List_unchecked_const_iterator@V?$_List_val@U?$_List_simple_types@PEAUState@DFA@re2@@@std@@@std@@U_Iterator_base0@2@@std@@QEAAAEAV01@XZ
    ??F?$_List_unchecked_const_iterator@V?$_List_val@U?$_List_simple_types@U?$pair@$$CB_KH@std@@@std@@@std@@U_Iterator_base0@2@@std@@QEAAAEAV01@XZ
    ??F?$_List_unchecked_const_iterator@V?$_List_val@U?$_List_simple_types@U?$pair@QEAUState@DFA@re2@@H@std@@@std@@@std@@U_Iterator_base0@2@@std@@QEAAAEAV01@XZ
    ??G?$_Deque_unchecked_iterator@V?$_Deque_val@U?$_Deque_simple_types@U?$WalkState@H@re2@@@std@@@std@@@std@@QEBA?AV01@_J@Z
    ??G?$_Deque_unchecked_iterator@V?$_Deque_val@U?$_Deque_simple_types@U?$WalkState@PEAVInfo@Prefilter@re2@@@re2@@@std@@@std@@@std@@QEBA?AV01@_J@Z
    ??G?$_Deque_unchecked_iterator@V?$_Deque_val@U?$_Deque_simple_types@U?$WalkState@PEAVRegexp@re2@@@re2@@@std@@@std@@@std@@QEBA?AV01@_J@Z
    ??G?$_Deque_unchecked_iterator@V?$_Deque_val@U?$_Deque_simple_types@U?$WalkState@UFrag@re2@@@re2@@@std@@@std@@@std@@QEBA?AV01@_J@Z
    ??G?$_Deque_unchecked_iterator@V?$_Deque_val@U?$_Deque_simple_types@U?$WalkState@_N@re2@@@std@@@std@@@std@@QEBA?AV01@_J@Z
    ??G?$_Deque_unchecked_iterator@V?$_Deque_val@U?$_Deque_simple_types@UThread@NFA@re2@@@std@@@std@@@std@@QEBA?AV01@_J@Z
    ??Ire2@@YA?AW4ParseFlags@Regexp@0@W4120@0@Z
    ??R<lambda_16d2cb92461ac9818af78a76c749bd7f>@@QEBAXQEADQEBD_K2212@Z
    ??R<lambda_319d5e083f45f90dcdce5dce53cbb275>@@QEBAXQEADQEBD_KD@Z
    ??R<lambda_65e615be2a453ca0576c979606f46740>@@QEBAXQEADQEBD_K12@Z
    ??R<lambda_66f57f934f28d61049862f64df852ff0>@@QEBAXQEAD_KQEBD@Z
    ??R<lambda_9013ee9e23efe4882b67eff5b0ecf103>@@QEBAXQEADQEBD_K@Z
    ??R<lambda_e1befb086ad3257e3f042a63030725f7>@@QEBAXQEADQEBD_K2D@Z
    ??R?$_Conditionally_enabled_hash@PEAUState@DFA@re2@@$00@std@@QEBA_KAEBQEAUState@DFA@re2@@@Z
    ??R?$_Conditionally_enabled_hash@_K$00@std@@QEBA_KAEB_K@Z
    ??R?$_Func_class@XPEBH_N@std@@QEBAXPEBH_N@Z
    ??R?$default_delete@V?$SparseSetT@X@re2@@@std@@QEBAXPEAV?$SparseSetT@X@re2@@@Z
    ??R?$default_delete@VPrefilterTree@re2@@@std@@QEBAXPEAVPrefilterTree@re2@@@Z
    ??R?$default_delete@VProg@re2@@@std@@QEBAXPEAVProg@re2@@@Z
    ??R?$equal_to@PEAUState@DFA@re2@@@std@@QEBA_NAEBQEAUState@DFA@re2@@0@Z
    ??R?$equal_to@_K@std@@QEBA_NAEB_K0@Z
    ??R?$less@H@std@@QEBA_NAEBH0@Z
    ??R?$less@PEAVRegexp@re2@@@std@@QEBA_NAEBQEAVRegexp@re2@@0@Z
    ??R?$less@V?$basic_string@DU?$char_traits@D@std@@V?$allocator@D@2@@std@@@std@@QEBA_NAEBV?$basic_string@DU?$char_traits@D@std@@V?$allocator@D@2@@1@0@Z
    ??RDeleter@?$PODArray@E@re2@@QEBAXPEAE@Z
    ??RDeleter@?$PODArray@G@re2@@QEBAXPEAG@Z
    ??RDeleter@?$PODArray@H@re2@@QEBAXPEAH@Z
    ??RDeleter@?$PODArray@PEAVRegexp@re2@@@re2@@QEBAXPEAPEAVRegexp@2@@Z
    ??RDeleter@?$PODArray@PEBD@re2@@QEBAXPEAPEBD@Z
    ??RDeleter@?$PODArray@UAddState@NFA@re2@@@re2@@QEBAXPEAUAddState@NFA@2@@Z
    ??RDeleter@?$PODArray@UInstCond@re2@@@re2@@QEBAXPEAUInstCond@2@@Z
    ??RDeleter@?$PODArray@UJob@re2@@@re2@@QEBAXPEAUJob@2@@Z
    ??RDeleter@?$PODArray@VIndexValue@?$SparseArray@H@re2@@@re2@@QEBAXPEAVIndexValue@?$SparseArray@H@2@@Z
    ??RDeleter@?$PODArray@VIndexValue@?$SparseArray@PEAUThread@NFA@re2@@@re2@@@re2@@QEBAXPEAVIndexValue@?$SparseArray@PEAUThread@NFA@re2@@@2@@Z
    ??RDeleter@?$PODArray@VInst@Prog@re2@@@re2@@QEBAXPEAVInst@Prog@2@@Z
    ??RDeleter@?$PODArray@_K@re2@@QEBAXPEA_K@Z
    ??RRuneRangeLess@re2@@QEBA_NAEBURuneRange@1@0@Z
    ??RStateEqual@DFA@re2@@QEBA_NPEBUState@12@0@Z
    ??RStateHash@DFA@re2@@QEBA_KPEBUState@12@@Z
    ??Sre2@@YA?AW4ParseFlags@Regexp@0@W4120@@Z
    ??Tre2@@YA?AW4ParseFlags@Regexp@0@W4120@0@Z
    ??Ure2@@YA?AW4ParseFlags@Regexp@0@W4120@0@Z
    ??Y?$basic_string@DU?$char_traits@D@std@@V?$allocator@D@2@@std@@QEAAAEAV01@AEBV01@@Z
    ??Y?$basic_string@DU?$char_traits@D@std@@V?$allocator@D@2@@std@@QEAAAEAV01@D@Z
    ??Y?$basic_string@DU?$char_traits@D@std@@V?$allocator@D@2@@std@@QEAAAEAV01@QEBD@Z
    ??Z?$_Deque_unchecked_const_iterator@V?$_Deque_val@U?$_Deque_simple_types@U?$WalkState@H@re2@@@std@@@std@@@std@@QEAAAEAV01@_J@Z
    ??Z?$_Deque_unchecked_const_iterator@V?$_Deque_val@U?$_Deque_simple_types@U?$WalkState@PEAVInfo@Prefilter@re2@@@re2@@@std@@@std@@@std@@QEAAAEAV01@_J@Z
    ??Z?$_Deque_unchecked_const_iterator@V?$_Deque_val@U?$_Deque_simple_types@U?$WalkState@PEAVRegexp@re2@@@re2@@@std@@@std@@@std@@QEAAAEAV01@_J@Z
    ??Z?$_Deque_unchecked_const_iterator@V?$_Deque_val@U?$_Deque_simple_types@U?$WalkState@UFrag@re2@@@re2@@@std@@@std@@@std@@QEAAAEAV01@_J@Z
    ??Z?$_Deque_unchecked_const_iterator@V?$_Deque_val@U?$_Deque_simple_types@U?$WalkState@_N@re2@@@std@@@std@@@std@@QEAAAEAV01@_J@Z
    ??Z?$_Deque_unchecked_const_iterator@V?$_Deque_val@U?$_Deque_simple_types@UThread@NFA@re2@@@std@@@std@@@std@@QEAAAEAV01@_J@Z
    ??Z?$_Deque_unchecked_iterator@V?$_Deque_val@U?$_Deque_simple_types@U?$WalkState@H@re2@@@std@@@std@@@std@@QEAAAEAV01@_J@Z
    ??Z?$_Deque_unchecked_iterator@V?$_Deque_val@U?$_Deque_simple_types@U?$WalkState@PEAVInfo@Prefilter@re2@@@re2@@@std@@@std@@@std@@QEAAAEAV01@_J@Z
    ??Z?$_Deque_unchecked_iterator@V?$_Deque_val@U?$_Deque_simple_types@U?$WalkState@PEAVRegexp@re2@@@re2@@@std@@@std@@@std@@QEAAAEAV01@_J@Z
    ??Z?$_Deque_unchecked_iterator@V?$_Deque_val@U?$_Deque_simple_types@U?$WalkState@UFrag@re2@@@re2@@@std@@@std@@@std@@QEAAAEAV01@_J@Z
    ??Z?$_Deque_unchecked_iterator@V?$_Deque_val@U?$_Deque_simple_types@U?$WalkState@_N@re2@@@std@@@std@@@std@@QEAAAEAV01@_J@Z
    ??Z?$_Deque_unchecked_iterator@V?$_Deque_val@U?$_Deque_simple_types@UThread@NFA@re2@@@std@@@std@@@std@@QEAAAEAV01@_J@Z
    ??_7?$Walker@H@Regexp@re2@@6B@
    ??_7?$Walker@PEAVInfo@Prefilter@re2@@@Regexp@re2@@6B@
    ??_7?$Walker@PEAVRegexp@re2@@@Regexp@re2@@6B@
    ??_7?$Walker@UFrag@re2@@@Regexp@re2@@6B@
    ??_7?$Walker@_N@Regexp@re2@@6B@
    ??_7?$basic_ostringstream@DU?$char_traits@D@std@@V?$allocator@D@2@@std@@6B@
    ??_7?$basic_stringbuf@DU?$char_traits@D@std@@V?$allocator@D@2@@std@@6B@
    ??_7CaptureNamesWalker@re2@@6B@
    ??_7CoalesceWalker@re2@@6B@
    ??_7Compiler@re2@@6B@
    ??_7EmptyStringWalker@re2@@6B@
    ??_7NamedCapturesWalker@re2@@6B@
    ??_7NumCapturesWalker@re2@@6B@
    ??_7PCREWalker@re2@@6B@
    ??_7RepetitionWalker@re2@@6B@
    ??_7SimplifyWalker@re2@@6B@
    ??_7ToStringWalker@re2@@6B@
    ??_7Walker@Info@Prefilter@re2@@6B@
    ??_7bad_alloc@std@@6B@
    ??_7bad_array_new_length@std@@6B@
    ??_7exception@std@@6B@
    ??_8?$basic_ostringstream@DU?$char_traits@D@std@@V?$allocator@D@2@@std@@7B@
    ??_C@_01EEMJAFIK@?6@
    ??_C@_01GEODFPGF@?8@
    ??_C@_01JLIPDDHJ@?3@
    ??_C@_02LMMGGCAJ@?3?5@
    ??_C@_09DMDCDPKE@?$EAetx?3?5?$CFs?6@
    ??_C@_09ECNOMKBJ@?$EA?$CFtd?3?5?$CFs?6@
    ??_C@_09ODOIAEFP@?$EAstx?3?5?$CFs?6@
    ??_C@_0BA@FOIKENOD@vector?5too?5long@
    ??_C@_0BA@JFNIOLAK@string?5too?5long@
    ??_C@_0BB@GCADKGJO@map?1set?5too?5long@
    ??_C@_0BC@EOODALEL@Unknown?5exception@
    ??_C@_0BC@GHKEJJIK@match?5?$EA?$CFtd?$CB?5?$FL?$CFs?$FN?6@
    ??_C@_0BC@KBDMBKEH@deque?$DMT?$DO?5too?5long@
    ??_C@_0BC@LNFLDPII@match?5?$EAstx?$CB?5?$FL?$CFs?$FN?6@
    ??_C@_0BC@PLBIDBAA@match?5?$EAetx?$CB?5?$FL?$CFs?$FN?6@
    ??_C@_0BF@KINCDENJ@bad?5array?5new?5length@
    ??_C@_0BI@CFPLBAOH@invalid?5string?5position@
    ??_C@_0BK@KFCDCIIB@Error?5reverse?5compiling?5?8@
    ??_C@_0BK@OGNNAFAB@invalid?5hash?5bucket?5count@
    ??_C@_0BL@GOIGLPKN@unordered_map?1set?5too?5long@
    ??_C@_0BO@KOGPOMHC@PCREWalker?3?3ShortVisit?5called@
    ??_C@_0CF@LCEBKDBG@NumCapturesWalker?3?3ShortVisit?5c@
    ??_C@_0CF@LIHACMBD@EmptyStringWalker?3?3ShortVisit?5c@
    ??_C@_0CG@EBCJHLHC@CaptureNamesWalker?3?3ShortVisit?5@
    ??_C@_0CH@EBGDHELD@NamedCapturesWalker?3?3ShortVisit@
    ??_C@_0CK@JFAPIIC@RunStateOnByteUnlocked?5failed?5a@
    ??_C@_0CO@CCKNPEBP@E?3?2CPPworkspace?2windows?2google?9@
    ??_C@_0CO@NPIEJKFO@E?3?2CPPworkspace?2windows?2google?9@
    ??_C@_0CP@GPMJDDOL@RunStateOnByteUnlocked?5failed?5a@
    ??_C@_0DB@FGGOHAPH@E?3?2CPPworkspace?2windows?2google?9@
    ??_C@_0DG@BKFBAOEE@E?3?2CPPworkspace?2windows?2google?9@
    ??_C@_1BG@CJICHFP@?$AA?$CI?$AAc?$AA?$CJ?$AA?5?$AA?$DO?$AA?$DN?$AA?5?$AA?$CI?$AA0?$AA?$CJ@
    ??_C@_1BG@IEOPKJGI@?$AA?$CI?$AAn?$AA?$CJ?$AA?5?$AA?$CB?$AA?$DN?$AA?5?$AA?$CI?$AA0?$AA?$CJ@
    ??_C@_1BK@FKECMHNP@?$AA?$CI?$AAc?$AA?$CJ?$AA?5?$AA?$DM?$AA?$DN?$AA?5?$AA?$CI?$AA2?$AA5?$AA5?$AA?$CJ@
    ??_C@_1BK@GDFFIBEL@?$AA?$CB?$AAc?$AAo?$AAn?$AAt?$AAa?$AAi?$AAn?$AAs?$AA?$CI?$AAi?$AA?$CJ@
    ??_C@_1BK@HCKCEFAO@?$AAh?$AAa?$AAs?$AA_?$AAi?$AAn?$AAd?$AAe?$AAx?$AA?$CI?$AAi?$AA?$CJ@
    ??_C@_1BM@GKDENCGI@?$AA?$CB?$AAh?$AAa?$AAs?$AA_?$AAi?$AAn?$AAd?$AAe?$AAx?$AA?$CI?$AAi?$AA?$CJ@
    ??_C@_1CA@HAFMPNCA@?$AA?$CI?$AAt?$AA?9?$AA?$DO?$AAr?$AAe?$AAf?$AA?$CJ?$AA?5?$AA?$DN?$AA?$DN?$AA?5?$AA?$CI?$AA0?$AA?$CJ@
    ??_C@_1CM@BIEHEIAF@?$AA?$CI?$AAp?$AAr?$AAe?$AAf?$AAi?$AAx?$AA_?$AAs?$AAi?$AAz?$AAe?$AA_?$AA?$CJ?$AA?5@
    ??_C@_1DA@CFBMNJPE@?$AAo?$AAp?$AA_?$AA?5?$AA?$DN?$AA?$DN?$AA?5?$AAA?$AAN?$AAD?$AA?5?$AA?$HM?$AA?$HM?$AA?5?$AAo@
    ??_C@_1DC@CHBGONBC@?$AAf?$AAa?$AAl?$AAs?$AAe?$AA?5?$AA?$CG?$AA?$CG?$AA?5?$AA?$CC?$AAi?$AAl?$AAl?$AAe?$AAg@
    ??_C@_1DC@EJLADLFH@?$AA?$CI?$AAo?$AAp?$AA_?$AA?$CJ?$AA?5?$AA?$DN?$AA?$DN?$AA?5?$AA?$CI?$AAk?$AAR?$AAe?$AAg?$AAe@
    ??_C@_1DE@ILAGGOFM@?$AA?$CI?$AAo?$AAp?$AA_?$AA?$CJ?$AA?5?$AA?$DN?$AA?$DN?$AA?5?$AA?$CI?$AAk?$AAR?$AAe?$AAg?$AAe@
    ??_C@_1DE@LHJMAHIK@?$AA?$CI?$AAo?$AAp?$AA_?$AA?$CJ?$AA?5?$AA?$DN?$AA?$DN?$AA?5?$AA?$CI?$AAk?$AAR?$AAe?$AAg?$AAe@
    ??_C@_1DG@DPKGLLHG@?$AA?$CI?$AAo?$AAp?$AAc?$AAo?$AAd?$AAe?$AA?$CI?$AA?$CJ?$AA?$CJ?$AA?5?$AA?$DN?$AA?$DN?$AA?5?$AA?$CI@
    ??_C@_1DI@IDAPAPCK@?$AA?$CI?$AAo?$AAp?$AA_?$AA?$CJ?$AA?5?$AA?$DN?$AA?$DN?$AA?5?$AA?$CI?$AAk?$AAR?$AAe?$AAg?$AAe@
    ??_C@_1DI@KOMCCELI@?$AA?$CI?$AAo?$AAp?$AA_?$AA?$CJ?$AA?5?$AA?$DN?$AA?$DN?$AA?5?$AA?$CI?$AAk?$AAR?$AAe?$AAg?$AAe@
    ??_C@_1DK@OOHKNKJH@?$AA?$CI?$AAo?$AAp?$AAc?$AAo?$AAd?$AAe?$AA?$CI?$AA?$CJ?$AA?$CJ?$AA?5?$AA?$DN?$AA?$DN?$AA?5?$AA?$CI@
    ??_C@_1DM@GNIDBBEH@?$AA?$CI?$AAo?$AAp?$AAc?$AAo?$AAd?$AAe?$AA?$CI?$AA?$CJ?$AA?$CJ?$AA?5?$AA?$DN?$AA?$DN?$AA?5?$AA?$CI@
    ??_C@_1DO@IJOCOOMH@?$AA?$CI?$AAo?$AAp?$AAc?$AAo?$AAd?$AAe?$AA?$CI?$AA?$CJ?$AA?$CJ?$AA?5?$AA?$DN?$AA?$DN?$AA?5?$AA?$CI@
    ??_C@_1EA@GEGGDPFE@?$AA?$CI?$AAo?$AAp?$AA_?$AA?$CJ?$AA?5?$AA?$DN?$AA?$DN?$AA?5?$AA?$CI?$AAk?$AAR?$AAe?$AAg?$AAe@
    ??_C@_1EA@KACLONAE@?$AA?$CI?$AAo?$AAp?$AAc?$AAo?$AAd?$AAe?$AA?$CI?$AA?$CJ?$AA?$CJ?$AA?5?$AA?$DN?$AA?$DN?$AA?5?$AA?$CI@
    ??_C@_1FA@OHGHECDI@?$AAn?$AA?5?$AA?$DO?$AA?$DN?$AA?5?$AA0?$AA?5?$AA?$CG?$AA?$CG?$AA?5?$AAs?$AAt?$AAa?$AAt?$AAi@
    ??_C@_1FM@BDGGEKND@?$AAE?$AA?3?$AA?2?$AAC?$AAP?$AAP?$AAw?$AAo?$AAr?$AAk?$AAs?$AAp?$AAa?$AAc?$AAe@
    ??_C@_1FM@LCDIFJB@?$AAE?$AA?3?$AA?2?$AAC?$AAP?$AAP?$AAw?$AAo?$AAr?$AAk?$AAs?$AAp?$AAa?$AAc?$AAe@
    ??_C@_1FM@NJBEFPAK@?$AAE?$AA?3?$AA?2?$AAC?$AAP?$AAP?$AAw?$AAo?$AAr?$AAk?$AAs?$AAp?$AAa?$AAc?$AAe@
    ??_C@_1GA@OHPNNJGE@?$AAE?$AA?3?$AA?2?$AAC?$AAP?$AAP?$AAw?$AAo?$AAr?$AAk?$AAs?$AAp?$AAa?$AAc?$AAe@
    ??_C@_1GE@PEGCAEFK@?$AAo?$AAp?$AAc?$AAo?$AAd?$AAe?$AA?$CI?$AA?$CJ?$AA?5?$AA?$DN?$AA?$DN?$AA?5?$AAk?$AAI?$AAn@
    ??_C@_1GG@PAIHFNAP@?$AAE?$AA?3?$AA?2?$AAC?$AAP?$AAP?$AAw?$AAo?$AAr?$AAk?$AAs?$AAp?$AAa?$AAc?$AAe@
    ??_C@_1GG@PDKEKGHA@?$AAE?$AA?3?$AA?2?$AAC?$AAP?$AAP?$AAw?$AAo?$AAr?$AAk?$AAs?$AAp?$AAa?$AAc?$AAe@
    ??_C@_1GI@ONIHOMOI@?$AAE?$AA?3?$AA?2?$AAC?$AAP?$AAP?$AAw?$AAo?$AAr?$AAk?$AAs?$AAp?$AAa?$AAc?$AAe@
    ??_C@_1GM@IIBLCONJ@?$AAE?$AA?3?$AA?2?$AAC?$AAP?$AAP?$AAw?$AAo?$AAr?$AAk?$AAs?$AAp?$AAa?$AAc?$AAe@
    ??_C@_1O@BCBGMFJB@?$AAb?$AA?5?$AA?$CB?$AA?$DN?$AA?5?$AA0@
    ??_C@_1O@GOHHOAEK@?$AAa?$AA?5?$AA?$CB?$AA?$DN?$AA?5?$AA0@
    ??_C@_1O@IMGGLCEL@?$AAt?$AA?5?$AA?$CB?$AA?$DN?$AA?5?$AA0@
    ??_D?$basic_ostringstream@DU?$char_traits@D@std@@V?$allocator@D@2@@std@@QEAAXXZ
    ??_H@YAXPEAX_K1P6APEAX0@Z@Z
    ??_R0?AV?$Walker@H@Regexp@re2@@@8
    ??_R0?AV?$Walker@PEAVInfo@Prefilter@re2@@@Regexp@re2@@@8
    ??_R0?AV?$Walker@PEAVRegexp@re2@@@Regexp@re2@@@8
    ??_R0?AV?$Walker@UFrag@re2@@@Regexp@re2@@@8
    ??_R0?AV?$Walker@_N@Regexp@re2@@@8
    ??_R0?AV?$_Iosb@H@std@@@8
    ??_R0?AV?$basic_ios@DU?$char_traits@D@std@@@std@@@8
    ??_R0?AV?$basic_ostream@DU?$char_traits@D@std@@@std@@@8
    ??_R0?AV?$basic_ostringstream@DU?$char_traits@D@std@@V?$allocator@D@2@@std@@@8
    ??_R0?AV?$basic_streambuf@DU?$char_traits@D@std@@@std@@@8
    ??_R0?AV?$basic_stringbuf@DU?$char_traits@D@std@@V?$allocator@D@2@@std@@@8
    ??_R0?AVCaptureNamesWalker@re2@@@8
    ??_R0?AVCoalesceWalker@re2@@@8
    ??_R0?AVCompiler@re2@@@8
    ??_R0?AVEmptyStringWalker@re2@@@8
    ??_R0?AVNamedCapturesWalker@re2@@@8
    ??_R0?AVNumCapturesWalker@re2@@@8
    ??_R0?AVPCREWalker@re2@@@8
    ??_R0?AVRepetitionWalker@re2@@@8
    ??_R0?AVSimplifyWalker@re2@@@8
    ??_R0?AVToStringWalker@re2@@@8
    ??_R0?AVWalker@Info@Prefilter@re2@@@8
    ??_R0?AVbad_alloc@std@@@8
    ??_R0?AVbad_array_new_length@std@@@8
    ??_R0?AVexception@std@@@8
    ??_R0?AVios_base@std@@@8
    ??_R17?0A@EA@?$_Iosb@H@std@@8
    ??_R17A@3EA@?$_Iosb@H@std@@8
    ??_R1A@?0A@EA@?$Walker@H@Regexp@re2@@8
    ??_R1A@?0A@EA@?$Walker@PEAVInfo@Prefilter@re2@@@Regexp@re2@@8
    ??_R1A@?0A@EA@?$Walker@PEAVRegexp@re2@@@Regexp@re2@@8
    ??_R1A@?0A@EA@?$Walker@UFrag@re2@@@Regexp@re2@@8
    ??_R1A@?0A@EA@?$Walker@_N@Regexp@re2@@8
    ??_R1A@?0A@EA@?$_Iosb@H@std@@8
    ??_R1A@?0A@EA@?$basic_ios@DU?$char_traits@D@std@@@std@@8
    ??_R1A@?0A@EA@?$basic_ostream@DU?$char_traits@D@std@@@std@@8
    ??_R1A@?0A@EA@?$basic_ostringstream@DU?$char_traits@D@std@@V?$allocator@D@2@@std@@8
    ??_R1A@?0A@EA@?$basic_streambuf@DU?$char_traits@D@std@@@std@@8
    ??_R1A@?0A@EA@?$basic_stringbuf@DU?$char_traits@D@std@@V?$allocator@D@2@@std@@8
    ??_R1A@?0A@EA@CaptureNamesWalker@re2@@8
    ??_R1A@?0A@EA@CoalesceWalker@re2@@8
    ??_R1A@?0A@EA@Compiler@re2@@8
    ??_R1A@?0A@EA@EmptyStringWalker@re2@@8
    ??_R1A@?0A@EA@NamedCapturesWalker@re2@@8
    ??_R1A@?0A@EA@NumCapturesWalker@re2@@8
    ??_R1A@?0A@EA@PCREWalker@re2@@8
    ??_R1A@?0A@EA@RepetitionWalker@re2@@8
    ??_R1A@?0A@EA@SimplifyWalker@re2@@8
    ??_R1A@?0A@EA@ToStringWalker@re2@@8
    ??_R1A@?0A@EA@Walker@Info@Prefilter@re2@@8
    ??_R1A@?0A@EA@bad_alloc@std@@8
    ??_R1A@?0A@EA@bad_array_new_length@std@@8
    ??_R1A@?0A@EA@exception@std@@8
    ??_R1A@?0A@EA@ios_base@std@@8
    ??_R1A@A@3EA@ios_base@std@@8
    ??_R1A@A@3FA@?$basic_ios@DU?$char_traits@D@std@@@std@@8
    ??_R2?$Walker@H@Regexp@re2@@8
    ??_R2?$Walker@PEAVInfo@Prefilter@re2@@@Regexp@re2@@8
    ??_R2?$Walker@PEAVRegexp@re2@@@Regexp@re2@@8
    ??_R2?$Walker@UFrag@re2@@@Regexp@re2@@8
    ??_R2?$Walker@_N@Regexp@re2@@8
    ??_R2?$_Iosb@H@std@@8
    ??_R2?$basic_ios@DU?$char_traits@D@std@@@std@@8
    ??_R2?$basic_ostream@DU?$char_traits@D@std@@@std@@8
    ??_R2?$basic_ostringstream@DU?$char_traits@D@std@@V?$allocator@D@2@@std@@8
    ??_R2?$basic_streambuf@DU?$char_traits@D@std@@@std@@8
    ??_R2?$basic_stringbuf@DU?$char_traits@D@std@@V?$allocator@D@2@@std@@8
    ??_R2CaptureNamesWalker@re2@@8
    ??_R2CoalesceWalker@re2@@8
    ??_R2Compiler@re2@@8
    ??_R2EmptyStringWalker@re2@@8
    ??_R2NamedCapturesWalker@re2@@8
    ??_R2NumCapturesWalker@re2@@8
    ??_R2PCREWalker@re2@@8
    ??_R2RepetitionWalker@re2@@8
    ??_R2SimplifyWalker@re2@@8
    ??_R2ToStringWalker@re2@@8
    ??_R2Walker@Info@Prefilter@re2@@8
    ??_R2bad_alloc@std@@8
    ??_R2bad_array_new_length@std@@8
    ??_R2exception@std@@8
    ??_R2ios_base@std@@8
    ??_R3?$Walker@H@Regexp@re2@@8
    ??_R3?$Walker@PEAVInfo@Prefilter@re2@@@Regexp@re2@@8
    ??_R3?$Walker@PEAVRegexp@re2@@@Regexp@re2@@8
    ??_R3?$Walker@UFrag@re2@@@Regexp@re2@@8
    ??_R3?$Walker@_N@Regexp@re2@@8
    ??_R3?$_Iosb@H@std@@8
    ??_R3?$basic_ios@DU?$char_traits@D@std@@@std@@8
    ??_R3?$basic_ostream@DU?$char_traits@D@std@@@std@@8
    ??_R3?$basic_ostringstream@DU?$char_traits@D@std@@V?$allocator@D@2@@std@@8
    ??_R3?$basic_streambuf@DU?$char_traits@D@std@@@std@@8
    ??_R3?$basic_stringbuf@DU?$char_traits@D@std@@V?$allocator@D@2@@std@@8
    ??_R3CaptureNamesWalker@re2@@8
    ??_R3CoalesceWalker@re2@@8
    ??_R3Compiler@re2@@8
    ??_R3EmptyStringWalker@re2@@8
    ??_R3NamedCapturesWalker@re2@@8
    ??_R3NumCapturesWalker@re2@@8
    ??_R3PCREWalker@re2@@8
    ??_R3RepetitionWalker@re2@@8
    ??_R3SimplifyWalker@re2@@8
    ??_R3ToStringWalker@re2@@8
    ??_R3Walker@Info@Prefilter@re2@@8
    ??_R3bad_alloc@std@@8
    ??_R3bad_array_new_length@std@@8
    ??_R3exception@std@@8
    ??_R3ios_base@std@@8
    ??_R4?$Walker@H@Regexp@re2@@6B@
    ??_R4?$Walker@PEAVInfo@Prefilter@re2@@@Regexp@re2@@6B@
    ??_R4?$Walker@PEAVRegexp@re2@@@Regexp@re2@@6B@
    ??_R4?$Walker@UFrag@re2@@@Regexp@re2@@6B@
    ??_R4?$Walker@_N@Regexp@re2@@6B@
    ??_R4?$basic_ostringstream@DU?$char_traits@D@std@@V?$allocator@D@2@@std@@6B@
    ??_R4?$basic_stringbuf@DU?$char_traits@D@std@@V?$allocator@D@2@@std@@6B@
    ??_R4CaptureNamesWalker@re2@@6B@
    ??_R4CoalesceWalker@re2@@6B@
    ??_R4Compiler@re2@@6B@
    ??_R4EmptyStringWalker@re2@@6B@
    ??_R4NamedCapturesWalker@re2@@6B@
    ??_R4NumCapturesWalker@re2@@6B@
    ??_R4PCREWalker@re2@@6B@
    ??_R4RepetitionWalker@re2@@6B@
    ??_R4SimplifyWalker@re2@@6B@
    ??_R4ToStringWalker@re2@@6B@
    ??_R4Walker@Info@Prefilter@re2@@6B@
    ??_R4bad_alloc@std@@6B@
    ??_R4bad_array_new_length@std@@6B@
    ??_R4exception@std@@6B@
    ??_U@YAPEAX_KPEAX@Z
    ?Add@FilteredRE2@re2@@QEAA?AW4ErrorCode@RE2@2@AEBVStringPiece@2@AEBVOptions@42@PEAH@Z
    ?Add@PrefilterTree@re2@@QEAAXPEAVPrefilter@2@@Z
    ?Add@Set@RE2@re2@@QEAAHAEBVStringPiece@3@PEAV?$basic_string@DU?$char_traits@D@std@@V?$allocator@D@2@@std@@@Z
    ?AddCharClass@CharClassBuilder@re2@@QEAAXPEAV12@@Z
    ?AddRange@CharClassBuilder@re2@@QEAA_NHH@Z
    ?AddRangeFlags@CharClassBuilder@re2@@QEAAXHHW4ParseFlags@Regexp@2@@Z
    ?AddRuneRange@Compiler@re2@@QEAAXHH_N@Z
    ?AddRuneRangeLatin1@Compiler@re2@@QEAAXHH_N@Z
    ?AddRuneRangeUTF8@Compiler@re2@@QEAAXHH_N@Z
    ?AddRuneToString@Regexp@re2@@AEAAXH@Z
    ?AddSuffix@Compiler@re2@@QEAAXH@Z
    ?AddSuffixRecursive@Compiler@re2@@QEAAHHH@Z
    ?AddToQueue@DFA@re2@@AEAAXPEAVWorkq@12@HI@Z
    ?AddToThreadq@NFA@re2@@AEAAXPEAV?$SparseArray@PEAUThread@NFA@re2@@@2@HHAEBVStringPiece@2@PEBDPEAUThread@12@@Z
    ?Add_80_10ffff@Compiler@re2@@QEAAXXZ
    ?AllMatches@FilteredRE2@re2@@QEBA_NAEBVStringPiece@2@AEBV?$vector@HV?$allocator@H@std@@@std@@PEAV45@@Z
    ?AllPotentials@FilteredRE2@re2@@QEBAXAEBV?$vector@HV?$allocator@H@std@@@std@@PEAV34@@Z
    ?AllocInst@Compiler@re2@@QEAAHH@Z
    ?AllocSub@Regexp@re2@@AEAAXH@Z
    ?AllocThread@NFA@re2@@AEAAPEAUThread@12@XZ
    ?Alt@Compiler@re2@@QEAA?AUFrag@2@U32@0@Z
    ?Alt@Info@Prefilter@re2@@SAPEAV123@PEAV123@0@Z
    ?Alternate@Regexp@re2@@SAPEAV12@PEAPEAV12@HW4ParseFlags@12@@Z
    ?AlternateNoFactor@Regexp@re2@@SAPEAV12@PEAPEAV12@HW4ParseFlags@12@@Z
    ?AnalyzeSearch@DFA@re2@@AEAA_NPEAUSearchParams@12@@Z
    ?AnalyzeSearchHelper@DFA@re2@@AEAA_NPEAUSearchParams@12@PEAUStartInfo@12@I@Z
    ?And@Info@Prefilter@re2@@SAPEAV123@PEAV123@0@Z
    ?And@Prefilter@re2@@CAPEAV12@PEAV12@0@Z
    ?AndOr@Prefilter@re2@@CAPEAV12@W4Op@12@PEAV12@1@Z
    ?AnyCharOrAnyByte@Info@Prefilter@re2@@SAPEAV123@XZ
    ?AnyMatch@Info@Prefilter@re2@@SAPEAV123@XZ
    ?Append@PatchList@re2@@SA?AU12@PEAVInst@Prog@2@U12@1@Z
    ?ApplyFold@re2@@YAHPEBUCaseFold@1@H@Z
    ?AssignUniqueIds@PrefilterTree@re2@@AEAAXPEAV?$map@V?$basic_string@DU?$char_traits@D@std@@V?$allocator@D@2@@std@@PEAVPrefilter@re2@@U?$less@V?$basic_string@DU?$char_traits@D@std@@V?$allocator@D@2@@std@@@2@V?$allocator@U?$pair@$$CBV?$basic_string@DU?$char_traits@D@std@@V?$allocator@D@2@@std@@PEAVPrefilter@re2@@@std@@@2@@std@@PEAV?$vector@V?$basic_string@DU?$char_traits@D@std@@V?$allocator@D@2@@std@@V?$allocator@V?$basic_string@DU?$char_traits@D@std@@V?$allocator@D@2@@std@@@2@@4@@Z
    ?BeginRange@Compiler@re2@@QEAAXXZ
    ?Build@ByteMapBuilder@re2@@QEAAXPEAEPEAH@Z
    ?BuildAllStates@DFA@re2@@QEAAHAEBV?$function@$$A6AXPEBH_N@Z@std@@@Z
    ?BuildEntireDFA@Prog@re2@@QEAAHW4MatchKind@12@AEBV?$function@$$A6AXPEBH_N@Z@std@@@Z
    ?BuildInfo@Prefilter@re2@@CAPEAVInfo@12@PEAVRegexp@2@@Z
    ?ByteMap@DFA@re2@@AEAAHH@Z
    ?ByteRange@Compiler@re2@@QEAA?AUFrag@2@HH_N@Z
    ?ByteRangeEqual@Compiler@re2@@QEAA_NHH@Z
    ?CClass@Info@Prefilter@re2@@SAPEAV123@PEAVCharClass@3@_N@Z
    ?CEscape@re2@@YA?AV?$basic_string@DU?$char_traits@D@std@@V?$allocator@D@2@@std@@AEBVStringPiece@1@@Z
    ?CachedRuneByteSuffix@Compiler@re2@@QEAAHEE_NH@Z
    ?CachedState@DFA@re2@@AEAAPEAUState@12@PEAHHI@Z
    ?CanBitState@Prog@re2@@QEAA_NXZ
    ?CanCoalesce@CoalesceWalker@re2@@CA_NPEAVRegexp@2@0@Z
    ?CanonicalNode@PrefilterTree@re2@@AEAAPEAVPrefilter@2@PEAV?$map@V?$basic_string@DU?$char_traits@D@std@@V?$allocator@D@2@@std@@PEAVPrefilter@re2@@U?$less@V?$basic_string@DU?$char_traits@D@std@@V?$allocator@D@2@@std@@@2@V?$allocator@U?$pair@$$CBV?$basic_string@DU?$char_traits@D@std@@V?$allocator@D@2@@std@@PEAVPrefilter@re2@@@std@@@2@@std@@PEAV32@@Z
    ?Capture@Compiler@re2@@QEAA?AUFrag@2@U32@H@Z
    ?Capture@Regexp@re2@@SAPEAV12@PEAV12@W4ParseFlags@12@H@Z
    ?CaptureNames@Regexp@re2@@QEAAPEAV?$map@HV?$basic_string@DU?$char_traits@D@std@@V?$allocator@D@2@@std@@U?$less@H@2@V?$allocator@U?$pair@$$CBHV?$basic_string@DU?$char_traits@D@std@@V?$allocator@D@2@@std@@@std@@@2@@std@@XZ
    ?CapturingGroupNames@RE2@re2@@QEBAAEBV?$map@HV?$basic_string@DU?$char_traits@D@std@@V?$allocator@D@2@@std@@U?$less@H@2@V?$allocator@U?$pair@$$CBHV?$basic_string@DU?$char_traits@D@std@@V?$allocator@D@2@@std@@@std@@@2@@std@@XZ
    ?Cat@Compiler@re2@@QEAA?AUFrag@2@U32@0@Z
    ?CheckRewriteString@RE2@re2@@QEBA_NAEBVStringPiece@2@PEAV?$basic_string@DU?$char_traits@D@std@@V?$allocator@D@2@@std@@@Z
    ?Clear@Bitmap256@re2@@QEAAXXZ
    ?ClearCache@DFA@re2@@AEAAXXZ
    ?CodeText@RegexpStatus@re2@@SA?AV?$basic_string@DU?$char_traits@D@std@@V?$allocator@D@2@@std@@W4RegexpStatusCode@2@@Z
    ?Compile@Compiler@re2@@SAPEAVProg@2@PEAVRegexp@2@_N_J@Z
    ?Compile@FilteredRE2@re2@@QEAAXPEAV?$vector@V?$basic_string@DU?$char_traits@D@std@@V?$allocator@D@2@@std@@V?$allocator@V?$basic_string@DU?$char_traits@D@std@@V?$allocator@D@2@@std@@@2@@std@@@Z
    ?Compile@PrefilterTree@re2@@QEAAXPEAV?$vector@V?$basic_string@DU?$char_traits@D@std@@V?$allocator@D@2@@std@@V?$allocator@V?$basic_string@DU?$char_traits@D@std@@V?$allocator@D@2@@std@@@2@@std@@@Z
    ?Compile@Set@RE2@re2@@QEAA_NXZ
    ?CompileSet@Compiler@re2@@SAPEAVProg@2@PEAVRegexp@2@W4Anchor@RE2@2@_J@Z
    ?CompileSet@Prog@re2@@SAPEAV12@PEAVRegexp@2@W4Anchor@RE2@2@_J@Z
    ?CompileToProg@Regexp@re2@@QEAAPEAVProg@2@_J@Z
    ?CompileToReverseProg@Regexp@re2@@QEAAPEAVProg@2@_J@Z
    ?ComputeByteMap@Prog@re2@@QEAAXXZ
    ?ComputeHints@Prog@re2@@QEAAXPEAV?$vector@VInst@Prog@re2@@V?$allocator@VInst@Prog@re2@@@std@@@std@@HH@Z
    ?ComputeSimple@Regexp@re2@@AEAA_NXZ
    ?Concat2@SimplifyWalker@re2@@CAPEAVRegexp@2@PEAV32@0W4ParseFlags@32@@Z
    ?Concat@Info@Prefilter@re2@@SAPEAV123@PEAV123@0@Z
    ?Concat@Regexp@re2@@SAPEAV12@PEAPEAV12@HW4ParseFlags@12@@Z
    ?ConcatOrAlternate@Regexp@re2@@CAPEAV12@W4RegexpOp@2@PEAPEAV12@HW4ParseFlags@12@_N@Z
    ?ConsumeN@RE2@re2@@SA_NPEAVStringPiece@2@AEBV12@QEBQEBVArg@12@H@Z
    ?Contains@CharClass@re2@@QEAA_NH@Z
    ?Contains@CharClassBuilder@re2@@QEAA_NH@Z
    ?ConvertLatin1ToUTF8@re2@@YAXAEBVStringPiece@1@PEAV?$basic_string@DU?$char_traits@D@std@@V?$allocator@D@2@@std@@@Z
    ?ConvertRunesToBytes@re2@@YAX_NPEAHHPEAV?$basic_string@DU?$char_traits@D@std@@V?$allocator@D@2@@std@@@Z
    ?Copy@?$Walker@H@Regexp@re2@@UEAAHH@Z
    ?Copy@?$Walker@PEAVInfo@Prefilter@re2@@@Regexp@re2@@UEAAPEAVInfo@Prefilter@3@PEAV453@@Z
    ?Copy@?$Walker@PEAVRegexp@re2@@@Regexp@re2@@UEAAPEAV23@PEAV23@@Z
    ?Copy@?$Walker@UFrag@re2@@@Regexp@re2@@UEAA?AUFrag@3@U43@@Z
    ?Copy@?$Walker@_N@Regexp@re2@@UEAA_N_N@Z
    ?Copy@CharClassBuilder@re2@@QEAAPEAV12@XZ
    ?Copy@CoalesceWalker@re2@@UEAAPEAVRegexp@2@PEAV32@@Z
    ?Copy@Compiler@re2@@UEAA?AUFrag@2@U32@@Z
    ?Copy@Options@RE2@re2@@QEAAXAEBV123@@Z
    ?Copy@RegexpStatus@re2@@QEAAXAEBV12@@Z
    ?Copy@SimplifyWalker@re2@@UEAAPEAVRegexp@2@PEAV32@@Z
    ?CopyCapture@NFA@re2@@AEAAXPEAPEBD0@Z
    ?CycleFoldRune@re2@@YAHH@Z
    ?DebugCheckInvariants@?$SparseArray@H@re2@@AEBAXXZ
    ?DebugCheckInvariants@?$SparseArray@PEAUThread@NFA@re2@@@re2@@AEBAXXZ
    ?DebugCheckInvariants@?$SparseSetT@X@re2@@AEBAXXZ
    ?DebugNodeString@PrefilterTree@re2@@AEBA?AV?$basic_string@DU?$char_traits@D@std@@V?$allocator@D@2@@std@@PEAVPrefilter@2@@Z
    ?DebugString@Prefilter@re2@@QEBA?AV?$basic_string@DU?$char_traits@D@std@@V?$allocator@D@2@@std@@XZ
    ?Decref@NFA@re2@@AEAAXPEAUThread@12@@Z
    ?Decref@Regexp@re2@@QEAAXXZ
    ?Delete@CharClass@re2@@QEAAXXZ
    ?DeleteDFA@Prog@re2@@AEAAXPEAVDFA@2@@Z
    ?Destroy@Regexp@re2@@AEAAXXZ
    ?DoAlternation@ParseState@Regexp@re2@@QEAAXXZ
    ?DoCoalesce@CoalesceWalker@re2@@CAXPEAPEAVRegexp@2@0@Z
    ?DoCollapse@ParseState@Regexp@re2@@QEAAXW4RegexpOp@3@@Z
    ?DoConcatenation@ParseState@Regexp@re2@@QEAAXXZ
    ?DoFinish@ParseState@Regexp@re2@@QEAAPEAV23@XZ
    ?DoLeftParen@ParseState@Regexp@re2@@QEAA_NAEBVStringPiece@3@@Z
    ?DoLeftParenNoCapture@ParseState@Regexp@re2@@QEAA_NXZ
    ?DoMatch@RE2@re2@@AEBA_NAEBVStringPiece@2@W4Anchor@12@PEA_KQEBQEBVArg@12@H@Z
    ?DoRightParen@ParseState@Regexp@re2@@QEAA_NXZ
    ?DoVerticalBar@ParseState@Regexp@re2@@QEAA_NXZ
    ?DotStar@Compiler@re2@@QEAA?AUFrag@2@XZ
    ?Dump@Inst@Prog@re2@@QEAA?AV?$basic_string@DU?$char_traits@D@std@@V?$allocator@D@2@@std@@XZ
    ?Dump@Prog@re2@@QEAA?AV?$basic_string@DU?$char_traits@D@std@@V?$allocator@D@2@@std@@XZ
    ?DumpByteMap@Prog@re2@@QEAA?AV?$basic_string@DU?$char_traits@D@std@@V?$allocator@D@2@@std@@XZ
    ?DumpState@DFA@re2@@CA?AV?$basic_string@DU?$char_traits@D@std@@V?$allocator@D@2@@std@@PEAUState@12@@Z
    ?DumpUnanchored@Prog@re2@@QEAA?AV?$basic_string@DU?$char_traits@D@std@@V?$allocator@D@2@@std@@XZ
    ?DumpWorkq@DFA@re2@@CA?AV?$basic_string@DU?$char_traits@D@std@@V?$allocator@D@2@@std@@PEAVWorkq@12@@Z
    ?EmitList@Prog@re2@@QEAAXHPEAV?$SparseArray@H@2@PEAV?$vector@VInst@Prog@re2@@V?$allocator@VInst@Prog@re2@@@std@@@std@@PEAV?$SparseSetT@X@2@PEAV?$vector@HV?$allocator@H@std@@@5@@Z
    ?EmptyFlags@Prog@re2@@SAIAEBVStringPiece@2@PEBD@Z
    ?EmptyString@Info@Prefilter@re2@@SAPEAV123@XZ
    ?EmptyWidth@Compiler@re2@@QEAA?AUFrag@2@W4EmptyOp@2@@Z
    ?EndRange@Compiler@re2@@QEAA?AUFrag@2@XZ
    ?Equal@Regexp@re2@@CA_NPEAV12@0@Z
    ?Extract@RE2@re2@@SA_NAEBVStringPiece@2@AEBV12@0PEAV?$basic_string@DU?$char_traits@D@std@@V?$allocator@D@2@@std@@@Z
    ?FactorAlternation@Regexp@re2@@CAHPEAPEAV12@HW4ParseFlags@12@@Z
    ?Fanout@Prog@re2@@QEAAXPEAV?$SparseArray@H@2@@Z
    ?FastSearchLoop@DFA@re2@@AEAA_NPEAUSearchParams@12@@Z
    ?FindAndConsumeN@RE2@re2@@SA_NPEAVStringPiece@2@AEBV12@QEBQEBVArg@12@H@Z
    ?FindByteRange@Compiler@re2@@QEAA?AUFrag@2@HH@Z
    ?FindLSBSet@Bitmap256@re2@@CAH_K@Z
    ?FindNextSetBit@Bitmap256@re2@@QEBAHH@Z
    ?Finish@Compiler@re2@@QEAAPEAVProg@2@PEAVRegexp@2@@Z
    ?FinishRegexp@ParseState@Regexp@re2@@QEAAPEAV23@PEAV23@@Z
    ?FirstMatch@FilteredRE2@re2@@QEBAHAEBVStringPiece@2@AEBV?$vector@HV?$allocator@H@std@@@std@@@Z
    ?Flatten@Prog@re2@@QEAAXXZ
    ?Flush@LogMessage@@QEAAXXZ
    ?FoldsASCII@CharClass@re2@@QEAA_NXZ
    ?FoldsASCII@CharClassBuilder@re2@@QEAA_NXZ
    ?FormatCapture@NFA@re2@@AEAA?AV?$basic_string@DU?$char_traits@D@std@@V?$allocator@D@2@@std@@PEAPEBD@Z
    ?FromRE2@Prefilter@re2@@SAPEAV12@PEBVRE2@2@@Z
    ?FromRegexp@Prefilter@re2@@CAPEAV12@PEAVRegexp@2@@Z
    ?FromString@Prefilter@re2@@CAPEAV12@AEBV?$basic_string@DU?$char_traits@D@std@@V?$allocator@D@2@@std@@@Z
    ?FullMatchN@RE2@re2@@SA_NAEBVStringPiece@2@AEBV12@QEBQEBVArg@12@H@Z
    ?GetCharClass@CharClassBuilder@re2@@QEAAPEAVCharClass@2@XZ
    ?GetDFA@Prog@re2@@AEAAPEAVDFA@2@W4MatchKind@12@@Z
    ?GetDFASearchFailureHook@hooks@re2@@YAP6AXAEBUDFASearchFailure@12@@ZXZ
    ?GetDFAStateCacheResetHook@hooks@re2@@YAP6AXAEBUDFAStateCacheReset@12@@ZXZ
    ?GlobalReplace@RE2@re2@@SAHPEAV?$basic_string@DU?$char_traits@D@std@@V?$allocator@D@2@@std@@AEBV12@AEBVStringPiece@2@@Z
    ?GrowStack@BitState@re2@@AEAAXXZ
    ?HaveMatch@Regexp@re2@@SAPEAV12@HW4ParseFlags@12@@Z
    ?Incref@NFA@re2@@AEAAPEAUThread@12@PEAU312@@Z
    ?Incref@Regexp@re2@@QEAAPEAV12@XZ
    ?Init@RE2@re2@@AEAAXAEBVStringPiece@2@AEBVOptions@12@@Z
    ?InitAlt@Inst@Prog@re2@@QEAAXII@Z
    ?InitByteRange@Inst@Prog@re2@@QEAAXHHHI@Z
    ?InitCapture@Inst@Prog@re2@@QEAAXHI@Z
    ?InitEmptyWidth@Inst@Prog@re2@@QEAAXW4EmptyOp@3@I@Z
    ?InitFail@Inst@Prog@re2@@QEAAXXZ
    ?InitMatch@Inst@Prog@re2@@QEAAXH@Z
    ?InitNop@Inst@Prog@re2@@QEAAXI@Z
    ?InsertInternal@?$SparseSetT@X@re2@@AEAAPEAH_NH@Z
    ?IsCachedRuneByteSuffix@Compiler@re2@@QEAA_NH@Z
    ?IsMarker@ParseState@Regexp@re2@@QEAA_NW4RegexpOp@3@@Z
    ?IsMatch@State@DFA@re2@@QEBA_NXZ
    ?IsOnePass@Prog@re2@@QEAA_NXZ
    ?IsWordChar@Prog@re2@@SA_NE@Z
    ?KeepNode@PrefilterTree@re2@@AEBA_NPEAVPrefilter@2@@Z
    ?LeadingRegexp@Regexp@re2@@CAPEAV12@PEAV12@@Z
    ?LeadingString@Regexp@re2@@CAPEAHPEAV12@PEAHPEAW4ParseFlags@12@@Z
    ?Literal@Compiler@re2@@QEAA?AUFrag@2@H_N@Z
    ?Literal@Info@Prefilter@re2@@SAPEAV123@H@Z
    ?LiteralLatin1@Info@Prefilter@re2@@SAPEAV123@H@Z
    ?LiteralString@Regexp@re2@@SAPEAV12@PEAHHW4ParseFlags@12@@Z
    ?Load@?$Hook@$$A6AXAEBUDFASearchFailure@hooks@re2@@@Z@hooks@re2@@QEBAP6AXAEBUDFASearchFailure@23@@ZXZ
    ?Load@?$Hook@$$A6AXAEBUDFAStateCacheReset@hooks@re2@@@Z@hooks@re2@@QEBAP6AXAEBUDFAStateCacheReset@23@@ZXZ
    ?Lock@Mutex@re2@@QEAAXXZ
    ?LockForWriting@RWLocker@DFA@re2@@QEAAXXZ
    ?LookupCaseFold@re2@@YAPEBUCaseFold@1@PEBU21@HH@Z
    ?Mark@ByteMapBuilder@re2@@QEAAXHH@Z
    ?MarkDominator@Prog@re2@@QEAAXHPEAV?$SparseArray@H@2@0PEAV?$vector@V?$vector@HV?$allocator@H@std@@@std@@V?$allocator@V?$vector@HV?$allocator@H@std@@@std@@@2@@std@@PEAV?$SparseSetT@X@2@PEAV?$vector@HV?$allocator@H@std@@@5@@Z
    ?MarkSuccessors@Prog@re2@@QEAAXPEAV?$SparseArray@H@2@0PEAV?$vector@V?$vector@HV?$allocator@H@std@@@std@@V?$allocator@V?$vector@HV?$allocator@H@std@@@std@@@2@@std@@PEAV?$SparseSetT@X@2@PEAV?$vector@HV?$allocator@H@std@@@5@@Z
    ?Match@Compiler@re2@@QEAA?AUFrag@2@H@Z
    ?Match@RE2@re2@@QEBA_NAEBVStringPiece@2@_K1W4Anchor@12@PEAV32@H@Z
    ?Match@Set@RE2@re2@@QEBA_NAEBVStringPiece@3@PEAV?$vector@HV?$allocator@H@std@@@std@@@Z
    ?Match@Set@RE2@re2@@QEBA_NAEBVStringPiece@3@PEAV?$vector@HV?$allocator@H@std@@@std@@PEAUErrorInfo@123@@Z
    ?Matches@Inst@Prog@re2@@QEAA_NH@Z
    ?MaxSubmatch@RE2@re2@@SAHAEBVStringPiece@2@@Z
    ?MaybeConcatString@ParseState@Regexp@re2@@QEAA_NHW4ParseFlags@23@@Z
    ?MaybeInitializeMemory@?$SparseArray@H@re2@@AEAAXHH@Z
    ?MaybeInitializeMemory@?$SparseArray@PEAUThread@NFA@re2@@@re2@@AEAAXHH@Z
    ?MaybeInitializeMemory@?$SparseSetT@X@re2@@AEAAXHH@Z
    ?MaybeParsePerlCCEscape@re2@@YAPEBUUGroup@1@PEAVStringPiece@1@W4ParseFlags@Regexp@1@@Z
    ?Merge@ByteMapBuilder@re2@@QEAAXXZ
    ?MimicsPCRE@Regexp@re2@@QEAA_NXZ
    ?Mix@HashMix@re2@@QEAAX_K@Z
    ?Mk@PatchList@re2@@SA?AU12@I@Z
    ?NamedCaptures@Regexp@re2@@QEAAPEAV?$map@V?$basic_string@DU?$char_traits@D@std@@V?$allocator@D@2@@std@@HU?$less@V?$basic_string@DU?$char_traits@D@std@@V?$allocator@D@2@@std@@@2@V?$allocator@U?$pair@$$CBV?$basic_string@DU?$char_traits@D@std@@V?$allocator@D@2@@std@@H@std@@@2@@std@@XZ
    ?NamedCapturingGroups@RE2@re2@@QEBAAEBV?$map@V?$basic_string@DU?$char_traits@D@std@@V?$allocator@D@2@@std@@HU?$less@V?$basic_string@DU?$char_traits@D@std@@V?$allocator@D@2@@std@@@2@V?$allocator@U?$pair@$$CBV?$basic_string@DU?$char_traits@D@std@@V?$allocator@D@2@@std@@H@std@@@2@@std@@XZ
    ?Negate@CharClass@re2@@QEAAPEAV12@XZ
    ?Negate@CharClassBuilder@re2@@QEAAXXZ
    ?New@CharClass@re2@@CAPEAV12@_K@Z
    ?NewCharClass@Regexp@re2@@SAPEAV12@PEAVCharClass@2@W4ParseFlags@12@@Z
    ?NewLiteral@Regexp@re2@@SAPEAV12@HW4ParseFlags@12@@Z
    ?NoMatch@Compiler@re2@@QEAA?AUFrag@2@XZ
    ?NoMatch@Info@Prefilter@re2@@SAPEAV123@XZ
    ?NodeString@PrefilterTree@re2@@AEBA?AV?$basic_string@DU?$char_traits@D@std@@V?$allocator@D@2@@std@@PEAVPrefilter@2@@Z
    ?Nop@Compiler@re2@@QEAA?AUFrag@2@XZ
    ?NumCaptures@Regexp@re2@@QEAAHXZ
    ?NumberOfCapturingGroups@RE2@re2@@QEBAHXZ
    ?OnePass_Checks@re2@@YAXXZ
    ?Optimize@Prog@re2@@QEAAXXZ
    ?Or@Prefilter@re2@@CAPEAV12@PEAV12@0@Z
    ?OrStrings@Prefilter@re2@@CAPEAV12@PEAV?$set@V?$basic_string@DU?$char_traits@D@std@@V?$allocator@D@2@@std@@U?$less@V?$basic_string@DU?$char_traits@D@std@@V?$allocator@D@2@@std@@@2@V?$allocator@V?$basic_string@DU?$char_traits@D@std@@V?$allocator@D@2@@std@@@2@@std@@@Z
    ?Parse@Arg@RE2@re2@@QEBA_NPEBD_K@Z
    ?Parse@Regexp@re2@@SAPEAV12@AEBVStringPiece@2@W4ParseFlags@12@PEAVRegexpStatus@2@@Z
    ?ParseCCCharacter@ParseState@Regexp@re2@@QEAA_NPEAVStringPiece@3@PEAHAEBV43@PEAVRegexpStatus@3@@Z
    ?ParseCCRange@ParseState@Regexp@re2@@QEAA_NPEAVStringPiece@3@PEAURuneRange@3@AEBV43@PEAVRegexpStatus@3@@Z
    ?ParseCharClass@ParseState@Regexp@re2@@QEAA_NPEAVStringPiece@3@PEAPEAV23@PEAVRegexpStatus@3@@Z
    ?ParseFlags@Options@RE2@re2@@QEBAHXZ
    ?ParsePerlFlags@ParseState@Regexp@re2@@QEAA_NPEAVStringPiece@3@@Z
    ?ParseUnicodeGroup@re2@@YA?AW4ParseStatus@1@PEAVStringPiece@1@W4ParseFlags@Regexp@1@PEAVCharClassBuilder@1@PEAVRegexpStatus@1@@Z
    ?PartialMatchN@RE2@re2@@SA_NAEBVStringPiece@2@AEBV12@QEBQEBVArg@12@H@Z
    ?Patch@PatchList@re2@@SAXPEAVInst@Prog@2@U12@I@Z
    ?Plus@Compiler@re2@@QEAA?AUFrag@2@U32@_N@Z
    ?Plus@Info@Prefilter@re2@@SAPEAV123@PEAV123@@Z
    ?Plus@Regexp@re2@@SAPEAV12@PEAV12@W4ParseFlags@12@@Z
    ?PossibleMatchRange@DFA@re2@@QEAA_NPEAV?$basic_string@DU?$char_traits@D@std@@V?$allocator@D@2@@std@@0H@Z
    ?PossibleMatchRange@Prog@re2@@QEAA_NPEAV?$basic_string@DU?$char_traits@D@std@@V?$allocator@D@2@@std@@0H@Z
    ?PossibleMatchRange@RE2@re2@@QEBA_NPEAV?$basic_string@DU?$char_traits@D@std@@V?$allocator@D@2@@std@@0H@Z
    ?PostVisit@?$Walker@H@Regexp@re2@@UEAAHPEAV23@HHPEAHH@Z
    ?PostVisit@?$Walker@PEAVInfo@Prefilter@re2@@@Regexp@re2@@UEAAPEAVInfo@Prefilter@3@PEAV23@PEAV453@1PEAPEAV453@H@Z
    ?PostVisit@?$Walker@PEAVRegexp@re2@@@Regexp@re2@@UEAAPEAV23@PEAV23@00PEAPEAV23@H@Z
    ?PostVisit@?$Walker@UFrag@re2@@@Regexp@re2@@UEAA?AUFrag@3@PEAV23@U43@1PEAU43@H@Z
    ?PostVisit@?$Walker@_N@Regexp@re2@@UEAA_NPEAV23@_N1PEA_NH@Z
    ?PostVisit@CoalesceWalker@re2@@UEAAPEAVRegexp@2@PEAV32@00PEAPEAV32@H@Z
    ?PostVisit@Compiler@re2@@UEAA?AUFrag@2@PEAVRegexp@2@U32@1PEAU32@H@Z
    ?PostVisit@EmptyStringWalker@re2@@UEAA_NPEAVRegexp@2@_N1PEA_NH@Z
    ?PostVisit@PCREWalker@re2@@UEAA_NPEAVRegexp@2@_N1PEA_NH@Z
    ?PostVisit@RepetitionWalker@re2@@UEAAHPEAVRegexp@2@HHPEAHH@Z
    ?PostVisit@SimplifyWalker@re2@@UEAAPEAVRegexp@2@PEAV32@00PEAPEAV32@H@Z
    ?PostVisit@ToStringWalker@re2@@UEAAHPEAVRegexp@2@HHPEAHH@Z
    ?PostVisit@Walker@Info@Prefilter@re2@@UEAAPEAV234@PEAVRegexp@4@PEAV234@1PEAPEAV234@H@Z
    ?PreVisit@?$Walker@H@Regexp@re2@@UEAAHPEAV23@HPEA_N@Z
    ?PreVisit@?$Walker@PEAVInfo@Prefilter@re2@@@Regexp@re2@@UEAAPEAVInfo@Prefilter@3@PEAV23@PEAV453@PEA_N@Z
    ?PreVisit@?$Walker@PEAVRegexp@re2@@@Regexp@re2@@UEAAPEAV23@PEAV23@0PEA_N@Z
    ?PreVisit@?$Walker@UFrag@re2@@@Regexp@re2@@UEAA?AUFrag@3@PEAV23@U43@PEA_N@Z
    ?PreVisit@?$Walker@_N@Regexp@re2@@UEAA_NPEAV23@_NPEA_N@Z
    ?PreVisit@CaptureNamesWalker@re2@@UEAAHPEAVRegexp@2@HPEA_N@Z
    ?PreVisit@Compiler@re2@@UEAA?AUFrag@2@PEAVRegexp@2@U32@PEA_N@Z
    ?PreVisit@NamedCapturesWalker@re2@@UEAAHPEAVRegexp@2@HPEA_N@Z
    ?PreVisit@NumCapturesWalker@re2@@UEAAHPEAVRegexp@2@HPEA_N@Z
    ?PreVisit@RepetitionWalker@re2@@UEAAHPEAVRegexp@2@HPEA_N@Z
    ?PreVisit@SimplifyWalker@re2@@UEAAPEAVRegexp@2@PEAV32@0PEA_N@Z
    ?PreVisit@ToStringWalker@re2@@UEAAHPEAVRegexp@2@HPEA_N@Z
    ?PrefixAccel@Prog@re2@@QEAAPEBXPEBX_K@Z
    ?PrefixAccel_FrontAndBack@Prog@re2@@QEAAPEBXPEBX_K@Z
    ?PrefixSuccessor@re2@@YAXPEAV?$basic_string@DU?$char_traits@D@std@@V?$allocator@D@2@@std@@@Z
    ?PrintDebugInfo@PrefilterTree@re2@@AEAAXPEAV?$map@V?$basic_string@DU?$char_traits@D@std@@V?$allocator@D@2@@std@@PEAVPrefilter@re2@@U?$less@V?$basic_string@DU?$char_traits@D@std@@V?$allocator@D@2@@std@@@2@V?$allocator@U?$pair@$$CBV?$basic_string@DU?$char_traits@D@std@@V?$allocator@D@2@@std@@PEAVPrefilter@re2@@@std@@@2@@std@@@Z
    ?PrintPrefilter@FilteredRE2@re2@@AEAAXH@Z
    ?PrintPrefilter@PrefilterTree@re2@@QEAAXH@Z
    ?ProgramFanout@RE2@re2@@QEBAHPEAV?$vector@HV?$allocator@H@std@@@std@@@Z
    ?ProgramSize@RE2@re2@@QEBAHXZ
    ?PropagateMatch@PrefilterTree@re2@@AEBAXAEBV?$vector@HV?$allocator@H@std@@@std@@PEAV?$SparseArray@H@2@@Z
    ?Push@BitState@re2@@AEAAXHPEBD@Z
    ?PushCaret@ParseState@Regexp@re2@@QEAA_NXZ
    ?PushDollar@ParseState@Regexp@re2@@QEAA_NXZ
    ?PushDot@ParseState@Regexp@re2@@QEAA_NXZ
    ?PushLiteral@ParseState@Regexp@re2@@QEAA_NH@Z
    ?PushRegexp@ParseState@Regexp@re2@@QEAA_NPEAV23@@Z
    ?PushRepeatOp@ParseState@Regexp@re2@@QEAA_NW4RegexpOp@3@AEBVStringPiece@3@_N@Z
    ?PushRepetition@ParseState@Regexp@re2@@QEAA_NHHAEBVStringPiece@3@_N@Z
    ?PushSimpleOp@ParseState@Regexp@re2@@QEAA_NW4RegexpOp@3@@Z
    ?PushWordBoundary@ParseState@Regexp@re2@@QEAA_N_N@Z
    ?Quest@Compiler@re2@@QEAA?AUFrag@2@U32@_N@Z
    ?Quest@Info@Prefilter@re2@@SAPEAV123@PEAV123@@Z
    ?Quest@Regexp@re2@@SAPEAV12@PEAV12@W4ParseFlags@12@@Z
    ?QuickDestroy@Regexp@re2@@AEAA_NXZ
    ?QuoteMeta@RE2@re2@@SA?AV?$basic_string@DU?$char_traits@D@std@@V?$allocator@D@2@@std@@AEBVStringPiece@2@@Z
    ?ReaderLock@Mutex@re2@@QEAAXXZ
    ?ReaderUnlock@Mutex@re2@@QEAAXXZ
    ?Recolor@ByteMapBuilder@re2@@AEAAHH@Z
    ?Ref@Regexp@re2@@QEAAHXZ
    ?Regexp@RE2@re2@@QEBAPEAV02@XZ
    ?RegexpsGivenStrings@FilteredRE2@re2@@AEAAXAEBV?$vector@HV?$allocator@H@std@@@std@@PEAV34@@Z
    ?RegexpsGivenStrings@PrefilterTree@re2@@QEBAXAEBV?$vector@HV?$allocator@H@std@@@std@@PEAV34@@Z
    ?RemoveAbove@CharClassBuilder@re2@@QEAAXH@Z
    ?RemoveLeadingRegexp@Regexp@re2@@CAPEAV12@PEAV12@@Z
    ?RemoveLeadingString@Regexp@re2@@CAXPEAV12@H@Z
    ?Repeat@Regexp@re2@@SAPEAV12@PEAV12@W4ParseFlags@12@HH@Z
    ?Replace@RE2@re2@@SA_NPEAV?$basic_string@DU?$char_traits@D@std@@V?$allocator@D@2@@std@@AEBV12@AEBVStringPiece@2@@Z
    ?RequiredPrefix@Regexp@re2@@QEAA_NPEAV?$basic_string@DU?$char_traits@D@std@@V?$allocator@D@2@@std@@PEA_NPEAPEAV12@@Z
    ?RequiredPrefixForAccel@Regexp@re2@@QEAA_NPEAV?$basic_string@DU?$char_traits@D@std@@V?$allocator@D@2@@std@@PEA_N@Z
    ?Reset@?$Walker@H@Regexp@re2@@QEAAXXZ
    ?Reset@?$Walker@PEAVInfo@Prefilter@re2@@@Regexp@re2@@QEAAXXZ
    ?Reset@?$Walker@PEAVRegexp@re2@@@Regexp@re2@@QEAAXXZ
    ?Reset@?$Walker@UFrag@re2@@@Regexp@re2@@QEAAXXZ
    ?Reset@?$Walker@_N@Regexp@re2@@QEAAXXZ
    ?ResetCache@DFA@re2@@AEAAXPEAVRWLocker@12@@Z
    ?Restore@StateSaver@DFA@re2@@QEAAPEAUState@23@XZ
    ?ReverseProg@RE2@re2@@AEBAPEAVProg@2@XZ
    ?ReverseProgramFanout@RE2@re2@@QEBAHPEAV?$vector@HV?$allocator@H@std@@@std@@@Z
    ?ReverseProgramSize@RE2@re2@@QEBAHXZ
    ?Rewrite@RE2@re2@@QEBA_NPEAV?$basic_string@DU?$char_traits@D@std@@V?$allocator@D@2@@std@@AEBVStringPiece@2@PEBV52@H@Z
    ?Round1@FactorAlternationImpl@re2@@SAXPEAPEAVRegexp@2@HW4ParseFlags@32@PEAV?$vector@USplice@re2@@V?$allocator@USplice@re2@@@std@@@std@@@Z
    ?Round2@FactorAlternationImpl@re2@@SAXPEAPEAVRegexp@2@HW4ParseFlags@32@PEAV?$vector@USplice@re2@@V?$allocator@USplice@re2@@@std@@@std@@@Z
    ?Round3@FactorAlternationImpl@re2@@SAXPEAPEAVRegexp@2@HW4ParseFlags@32@PEAV?$vector@USplice@re2@@V?$allocator@USplice@re2@@@std@@@std@@@Z
    ?RunStateOnByte@DFA@re2@@AEAAPEAUState@12@PEAU312@H@Z
    ?RunStateOnByteUnlocked@DFA@re2@@AEAAPEAUState@12@PEAU312@H@Z
    ?RunWorkqOnByte@DFA@re2@@AEAAXPEAVWorkq@12@0HIPEA_N@Z
    ?RunWorkqOnEmptyString@DFA@re2@@AEAAXPEAVWorkq@12@0I@Z
    ?Search@BitState@re2@@QEAA_NAEBVStringPiece@2@0_N1PEAV32@H@Z
    ?Search@DFA@re2@@QEAA_NAEBVStringPiece@2@0_N11PEA_NPEAPEBDPEAV?$SparseSetT@X@2@@Z
    ?Search@NFA@re2@@QEAA_NAEBVStringPiece@2@0_N1PEAV32@H@Z
    ?SearchBitState@Prog@re2@@QEAA_NAEBVStringPiece@2@0W4Anchor@12@W4MatchKind@12@PEAV32@H@Z
    ?SearchDFA@Prog@re2@@QEAA_NAEBVStringPiece@2@0W4Anchor@12@W4MatchKind@12@PEAV32@PEA_NPEAV?$SparseSetT@X@2@@Z
    ?SearchFFF@DFA@re2@@AEAA_NPEAUSearchParams@12@@Z
    ?SearchFFT@DFA@re2@@AEAA_NPEAUSearchParams@12@@Z
    ?SearchFTF@DFA@re2@@AEAA_NPEAUSearchParams@12@@Z
    ?SearchFTT@DFA@re2@@AEAA_NPEAUSearchParams@12@@Z
    ?SearchNFA@Prog@re2@@QEAA_NAEBVStringPiece@2@0W4Anchor@12@W4MatchKind@12@PEAV32@H@Z
    ?SearchOnePass@Prog@re2@@QEAA_NAEBVStringPiece@2@0W4Anchor@12@W4MatchKind@12@PEAV32@H@Z
    ?SearchTFF@DFA@re2@@AEAA_NPEAUSearchParams@12@@Z
    ?SearchTFT@DFA@re2@@AEAA_NPEAUSearchParams@12@@Z
    ?SearchTTF@DFA@re2@@AEAA_NPEAUSearchParams@12@@Z
    ?SearchTTT@DFA@re2@@AEAA_NPEAUSearchParams@12@@Z
    ?Set@Bitmap256@re2@@QEAAXH@Z
    ?SetDFASearchFailureHook@hooks@re2@@YAXP6AXAEBUDFASearchFailure@12@@Z@Z
    ?SetDFAStateCacheResetHook@hooks@re2@@YAXP6AXAEBUDFAStateCacheReset@12@@Z@Z
    ?SetExistingInternal@?$SparseArray@H@re2@@AEAAPEAVIndexValue@12@HAEBH@Z
    ?SetExistingInternal@?$SparseArray@PEAUThread@NFA@re2@@@re2@@AEAAPEAVIndexValue@12@HAEBQEAUThread@NFA@2@@Z
    ?SetInternal@?$SparseArray@H@re2@@AEAAPEAVIndexValue@12@_NHAEBH@Z
    ?SetInternal@?$SparseArray@PEAUThread@NFA@re2@@@re2@@AEAAPEAVIndexValue@12@_NHAEBQEAUThread@NFA@2@@Z
    ?Setup@Compiler@re2@@QEAAXW4ParseFlags@Regexp@2@_JW4Anchor@RE2@2@@Z
    ?ShortVisit@CaptureNamesWalker@re2@@UEAAHPEAVRegexp@2@H@Z
    ?ShortVisit@CoalesceWalker@re2@@UEAAPEAVRegexp@2@PEAV32@0@Z
    ?ShortVisit@Compiler@re2@@UEAA?AUFrag@2@PEAVRegexp@2@U32@@Z
    ?ShortVisit@EmptyStringWalker@re2@@UEAA_NPEAVRegexp@2@_N@Z
    ?ShortVisit@NamedCapturesWalker@re2@@UEAAHPEAVRegexp@2@H@Z
    ?ShortVisit@NumCapturesWalker@re2@@UEAAHPEAVRegexp@2@H@Z
    ?ShortVisit@PCREWalker@re2@@UEAA_NPEAVRegexp@2@_N@Z
    ?ShortVisit@RepetitionWalker@re2@@UEAAHPEAVRegexp@2@H@Z
    ?ShortVisit@SimplifyWalker@re2@@UEAAPEAVRegexp@2@PEAV32@0@Z
    ?ShortVisit@ToStringWalker@re2@@UEAAHPEAVRegexp@2@H@Z
    ?ShortVisit@Walker@Info@Prefilter@re2@@UEAAPEAV234@PEAVRegexp@4@PEAV234@@Z
    ?ShouldVisit@BitState@re2@@AEAA_NHPEBD@Z
    ?Simplify@Prefilter@re2@@AEAAPEAV12@XZ
    ?Simplify@Regexp@re2@@QEAAPEAV12@XZ
    ?SimplifyCharClass@SimplifyWalker@re2@@CAPEAVRegexp@2@PEAV32@@Z
    ?SimplifyRegexp@Regexp@re2@@SA_NAEBVStringPiece@2@W4ParseFlags@12@PEAV?$basic_string@DU?$char_traits@D@std@@V?$allocator@D@2@@std@@PEAVRegexpStatus@2@@Z
    ?SimplifyRepeat@SimplifyWalker@re2@@CAPEAVRegexp@2@PEAV32@HHW4ParseFlags@32@@Z
    ?SlowFirstMatch@FilteredRE2@re2@@QEBAHAEBVStringPiece@2@@Z
    ?Star@Compiler@re2@@QEAA?AUFrag@2@U32@_N@Z
    ?Star@Info@Prefilter@re2@@SAPEAV123@PEAV123@@Z
    ?Star@Regexp@re2@@SAPEAV12@PEAV12@W4ParseFlags@12@@Z
    ?StarPlusOrQuest@Regexp@re2@@CAPEAV12@W4RegexpOp@2@PEAV12@W4ParseFlags@12@@Z
    ?StateToWorkq@DFA@re2@@AEAAXPEAUState@12@PEAVWorkq@12@@Z
    ?Step@NFA@re2@@AEAAHPEAV?$SparseArray@PEAUThread@NFA@re2@@@2@0HAEBVStringPiece@2@PEBD@Z
    ?Store@?$Hook@$$A6AXAEBUDFASearchFailure@hooks@re2@@@Z@hooks@re2@@QEAAXP6AXAEBUDFASearchFailure@23@@Z@Z
    ?Store@?$Hook@$$A6AXAEBUDFAStateCacheReset@hooks@re2@@@Z@hooks@re2@@QEAAXP6AXAEBUDFAStateCacheReset@23@@Z@Z
    ?StringPrintf@re2@@YA?AV?$basic_string@DU?$char_traits@D@std@@V?$allocator@D@2@@std@@PEBDZZ
    ?Swap@Regexp@re2@@AEAAXPEAV12@@Z
    ?TEST_dfa_should_bail_when_slow@Prog@re2@@SAX_N@Z
    ?TakeMap@CaptureNamesWalker@re2@@QEAAPEAV?$map@HV?$basic_string@DU?$char_traits@D@std@@V?$allocator@D@2@@std@@U?$less@H@2@V?$allocator@U?$pair@$$CBHV?$basic_string@DU?$char_traits@D@std@@V?$allocator@D@2@@std@@@std@@@2@@std@@XZ
    ?TakeMap@NamedCapturesWalker@re2@@QEAAPEAV?$map@V?$basic_string@DU?$char_traits@D@std@@V?$allocator@D@2@@std@@HU?$less@V?$basic_string@DU?$char_traits@D@std@@V?$allocator@D@2@@std@@@2@V?$allocator@U?$pair@$$CBV?$basic_string@DU?$char_traits@D@std@@V?$allocator@D@2@@std@@H@std@@@2@@std@@XZ
    ?TakeMatch@Info@Prefilter@re2@@QEAAPEAV23@XZ
    ?Test@Bitmap256@re2@@QEBA_NH@Z
    ?Text@RegexpStatus@re2@@QEBA?AV?$basic_string@DU?$char_traits@D@std@@V?$allocator@D@2@@std@@XZ
    ?ToString@Info@Prefilter@re2@@QEAA?AV?$basic_string@DU?$char_traits@D@std@@V?$allocator@D@2@@std@@XZ
    ?ToString@Regexp@re2@@QEAA?AV?$basic_string@DU?$char_traits@D@std@@V?$allocator@D@2@@std@@XZ
    ?TrySearch@BitState@re2@@AEAA_NHPEBD@Z
    ?UncachedRuneByteSuffix@Compiler@re2@@QEAAHEE_NH@Z
    ?Unlock@Mutex@re2@@QEAAXXZ
    ?Walk@?$Walker@H@Regexp@re2@@QEAAHPEAV23@H@Z
    ?Walk@?$Walker@PEAVRegexp@re2@@@Regexp@re2@@QEAAPEAV23@PEAV23@0@Z
    ?Walk@?$Walker@_N@Regexp@re2@@QEAA_NPEAV23@_N@Z
    ?WalkExponential@?$Walker@H@Regexp@re2@@QEAAHPEAV23@HH@Z
    ?WalkExponential@?$Walker@PEAVInfo@Prefilter@re2@@@Regexp@re2@@QEAAPEAVInfo@Prefilter@3@PEAV23@PEAV453@H@Z
    ?WalkExponential@?$Walker@UFrag@re2@@@Regexp@re2@@QEAA?AUFrag@3@PEAV23@U43@H@Z
    ?WalkInternal@?$Walker@H@Regexp@re2@@AEAAHPEAV23@H_N@Z
    ?WalkInternal@?$Walker@PEAVInfo@Prefilter@re2@@@Regexp@re2@@AEAAPEAVInfo@Prefilter@3@PEAV23@PEAV453@_N@Z
    ?WalkInternal@?$Walker@PEAVRegexp@re2@@@Regexp@re2@@AEAAPEAV23@PEAV23@0_N@Z
    ?WalkInternal@?$Walker@UFrag@re2@@@Regexp@re2@@AEAA?AUFrag@3@PEAV23@U43@_N@Z
    ?WalkInternal@?$Walker@_N@Regexp@re2@@AEAA_NPEAV23@_N1@Z
    ?WorkqToCachedState@DFA@re2@@AEAAPEAUState@12@PEAVWorkq@12@0I@Z
    ?WriterLock@Mutex@re2@@QEAAXXZ
    ?WriterUnlock@Mutex@re2@@QEAAXXZ
    ?_Adjust_manually_vector_aligned@std@@YAXAEAPEAXAEA_K@Z
    ?_Adopt@_Iterator_base0@std@@QEAAXPEBX@Z
    ?_Alloc_proxy@_Container_base0@std@@QEAAXAEBU_Fake_allocator@2@@Z
    ?_Alloc_sentinel_and_proxy@?$_Tree@V?$_Tmap_traits@HHU?$less@H@std@@V?$allocator@U?$pair@$$CBHH@std@@@2@$0A@@std@@@std@@IEAAXXZ
    ?_Alloc_sentinel_and_proxy@?$_Tree@V?$_Tmap_traits@HV?$basic_string@DU?$char_traits@D@std@@V?$allocator@D@2@@std@@U?$less@H@2@V?$allocator@U?$pair@$$CBHV?$basic_string@DU?$char_traits@D@std@@V?$allocator@D@2@@std@@@std@@@2@$0A@@std@@@std@@IEAAXXZ
    ?_Alloc_sentinel_and_proxy@?$_Tree@V?$_Tmap_traits@PEAVRegexp@re2@@HU?$less@PEAVRegexp@re2@@@std@@V?$allocator@U?$pair@QEAVRegexp@re2@@H@std@@@4@$0A@@std@@@std@@IEAAXXZ
    ?_Alloc_sentinel_and_proxy@?$_Tree@V?$_Tmap_traits@V?$basic_string@DU?$char_traits@D@std@@V?$allocator@D@2@@std@@HU?$less@V?$basic_string@DU?$char_traits@D@std@@V?$allocator@D@2@@std@@@2@V?$allocator@U?$pair@$$CBV?$basic_string@DU?$char_traits@D@std@@V?$allocator@D@2@@std@@H@std@@@2@$0A@@std@@@std@@IEAAXXZ
    ?_Alloc_sentinel_and_proxy@?$_Tree@V?$_Tmap_traits@V?$basic_string@DU?$char_traits@D@std@@V?$allocator@D@2@@std@@PEAVPrefilter@re2@@U?$less@V?$basic_string@DU?$char_traits@D@std@@V?$allocator@D@2@@std@@@2@V?$allocator@U?$pair@$$CBV?$basic_string@DU?$char_traits@D@std@@V?$allocator@D@2@@std@@PEAVPrefilter@re2@@@std@@@2@$0A@@std@@@std@@IEAAXXZ
    ?_Alloc_sentinel_and_proxy@?$_Tree@V?$_Tset_traits@HU?$less@H@std@@V?$allocator@H@2@$0A@@std@@@std@@IEAAXXZ
    ?_Alloc_sentinel_and_proxy@?$_Tree@V?$_Tset_traits@URuneRange@re2@@URuneRangeLess@2@V?$allocator@URuneRange@re2@@@std@@$0A@@std@@@std@@IEAAXXZ
    ?_Alloc_sentinel_and_proxy@?$_Tree@V?$_Tset_traits@V?$basic_string@DU?$char_traits@D@std@@V?$allocator@D@2@@std@@U?$less@V?$basic_string@DU?$char_traits@D@std@@V?$allocator@D@2@@std@@@2@V?$allocator@V?$basic_string@DU?$char_traits@D@std@@V?$allocator@D@2@@std@@@2@$0A@@std@@@std@@IEAAXXZ
    ?_Alloc_sentinel_and_proxy@?$list@PEAUState@DFA@re2@@V?$allocator@PEAUState@DFA@re2@@@std@@@std@@AEAAXXZ
    ?_Alloc_sentinel_and_proxy@?$list@U?$pair@$$CB_KH@std@@V?$allocator@U?$pair@$$CB_KH@std@@@2@@std@@AEAAXXZ
    ?_Alloc_sentinel_and_proxy@?$list@U?$pair@QEAUState@DFA@re2@@H@std@@V?$allocator@U?$pair@QEAUState@DFA@re2@@H@std@@@2@@std@@AEAAXXZ
    ?_Allocate@?$_Alloc_construct_ptr@V?$allocator@U?$_List_node@PEAUState@DFA@re2@@PEAX@std@@@std@@@std@@QEAAXXZ
    ?_Allocate@?$_Alloc_construct_ptr@V?$allocator@U?$_List_node@U?$pair@$$CB_KH@std@@PEAX@std@@@std@@@std@@QEAAXXZ
    ?_Allocate@?$_Alloc_construct_ptr@V?$allocator@U?$_List_node@U?$pair@QEAUState@DFA@re2@@H@std@@PEAX@std@@@std@@@std@@QEAAXXZ
    ?_Allocate@?$_Alloc_construct_ptr@V?$allocator@U?$_Tree_node@HPEAX@std@@@std@@@std@@QEAAXXZ
    ?_Allocate@?$_Alloc_construct_ptr@V?$allocator@U?$_Tree_node@U?$pair@$$CBHH@std@@PEAX@std@@@std@@@std@@QEAAXXZ
    ?_Allocate@?$_Alloc_construct_ptr@V?$allocator@U?$_Tree_node@U?$pair@$$CBHV?$basic_string@DU?$char_traits@D@std@@V?$allocator@D@2@@std@@@std@@PEAX@std@@@std@@@std@@QEAAXXZ
    ?_Allocate@?$_Alloc_construct_ptr@V?$allocator@U?$_Tree_node@U?$pair@$$CBV?$basic_string@DU?$char_traits@D@std@@V?$allocator@D@2@@std@@H@std@@PEAX@std@@@std@@@std@@QEAAXXZ
    ?_Allocate@?$_Alloc_construct_ptr@V?$allocator@U?$_Tree_node@U?$pair@$$CBV?$basic_string@DU?$char_traits@D@std@@V?$allocator@D@2@@std@@PEAVPrefilter@re2@@@std@@PEAX@std@@@std@@@std@@QEAAXXZ
    ?_Allocate@?$_Alloc_construct_ptr@V?$allocator@U?$_Tree_node@U?$pair@QEAVRegexp@re2@@H@std@@PEAX@std@@@std@@@std@@QEAAXXZ
    ?_Allocate@?$_Alloc_construct_ptr@V?$allocator@U?$_Tree_node@URuneRange@re2@@PEAX@std@@@std@@@std@@QEAAXXZ
    ?_Allocate@?$_Alloc_construct_ptr@V?$allocator@U?$_Tree_node@V?$basic_string@DU?$char_traits@D@std@@V?$allocator@D@2@@std@@PEAX@std@@@std@@@std@@QEAAXXZ
    ?_Allocate@_Default_allocate_traits@std@@SAPEAX_K@Z
    ?_Assign_grow@?$_Hash_vec@V?$allocator@V?$_List_unchecked_const_iterator@V?$_List_val@U?$_List_simple_types@PEAUState@DFA@re2@@@std@@@std@@U_Iterator_base0@2@@std@@@std@@@std@@QEAAX_KV?$_List_unchecked_const_iterator@V?$_List_val@U?$_List_simple_types@PEAUState@DFA@re2@@@std@@@std@@U_Iterator_base0@2@@2@@Z
    ?_Assign_grow@?$_Hash_vec@V?$allocator@V?$_List_unchecked_iterator@V?$_List_val@U?$_List_simple_types@U?$pair@$$CB_KH@std@@@std@@@std@@@std@@@std@@@std@@QEAAX_KV?$_List_unchecked_iterator@V?$_List_val@U?$_List_simple_types@U?$pair@$$CB_KH@std@@@std@@@std@@@2@@Z
    ?_Assign_grow@?$_Hash_vec@V?$allocator@V?$_List_unchecked_iterator@V?$_List_val@U?$_List_simple_types@U?$pair@QEAUState@DFA@re2@@H@std@@@std@@@std@@@std@@@std@@@std@@QEAAX_KV?$_List_unchecked_iterator@V?$_List_val@U?$_List_simple_types@U?$pair@QEAUState@DFA@re2@@H@std@@@std@@@std@@@2@@Z
    ?_Become_small@?$basic_string@DU?$char_traits@D@std@@V?$allocator@D@2@@std@@AEAAXXZ
    ?_Bump_erased@_Range_eraser@?$_Hash@V?$_Umap_traits@PEAUState@DFA@re2@@HV?$_Uhash_compare@PEAUState@DFA@re2@@U?$hash@PEAUState@DFA@re2@@@std@@U?$equal_to@PEAUState@DFA@re2@@@5@@std@@V?$allocator@U?$pair@QEAUState@DFA@re2@@H@std@@@5@$0A@@std@@@std@@QEAAXXZ
    ?_Bump_erased@_Range_eraser@?$_Hash@V?$_Umap_traits@_KHV?$_Uhash_compare@_KU?$hash@_K@std@@U?$equal_to@_K@2@@std@@V?$allocator@U?$pair@$$CB_KH@std@@@2@$0A@@std@@@std@@QEAAXXZ
    ?_Buy_nonzero@?$vector@HV?$allocator@H@std@@@std@@AEAAX_K@Z
    ?_Buy_raw@?$vector@HV?$allocator@H@std@@@std@@AEAAX_K@Z
    ?_Calculate_growth@?$basic_string@DU?$char_traits@D@std@@V?$allocator@D@2@@std@@AEBA_K_K@Z
    ?_Calculate_growth@?$basic_string@DU?$char_traits@D@std@@V?$allocator@D@2@@std@@CA_K_K00@Z
    ?_Calculate_growth@?$vector@EV?$allocator@E@std@@@std@@AEBA_K_K@Z
    ?_Calculate_growth@?$vector@HV?$allocator@H@std@@@std@@AEBA_K_K@Z
    ?_Calculate_growth@?$vector@PEAVPrefilter@re2@@V?$allocator@PEAVPrefilter@re2@@@std@@@std@@AEBA_K_K@Z
    ?_Calculate_growth@?$vector@PEAVRE2@re2@@V?$allocator@PEAVRE2@re2@@@std@@@std@@AEBA_K_K@Z
    ?_Calculate_growth@?$vector@PEAVRegexp@re2@@V?$allocator@PEAVRegexp@re2@@@std@@@std@@AEBA_K_K@Z
    ?_Calculate_growth@?$vector@U?$pair@HH@std@@V?$allocator@U?$pair@HH@std@@@2@@std@@AEBA_K_K@Z
    ?_Calculate_growth@?$vector@U?$pair@V?$basic_string@DU?$char_traits@D@std@@V?$allocator@D@2@@std@@PEAVRegexp@re2@@@std@@V?$allocator@U?$pair@V?$basic_string@DU?$char_traits@D@std@@V?$allocator@D@2@@std@@PEAVRegexp@re2@@@std@@@2@@std@@AEBA_K_K@Z
    ?_Calculate_growth@?$vector@UEntry@PrefilterTree@re2@@V?$allocator@UEntry@PrefilterTree@re2@@@std@@@std@@AEBA_K_K@Z
    ?_Calculate_growth@?$vector@UFrame@re2@@V?$allocator@UFrame@re2@@@std@@@std@@AEBA_K_K@Z
    ?_Calculate_growth@?$vector@URuneRange@re2@@V?$allocator@URuneRange@re2@@@std@@@std@@AEBA_K_K@Z
    ?_Calculate_growth@?$vector@USplice@re2@@V?$allocator@USplice@re2@@@std@@@std@@AEBA_K_K@Z
    ?_Calculate_growth@?$vector@V?$basic_string@DU?$char_traits@D@std@@V?$allocator@D@2@@std@@V?$allocator@V?$basic_string@DU?$char_traits@D@std@@V?$allocator@D@2@@std@@@2@@std@@AEBA_K_K@Z
    ?_Calculate_growth@?$vector@V?$vector@HV?$allocator@H@std@@@std@@V?$allocator@V?$vector@HV?$allocator@H@std@@@std@@@2@@std@@AEBA_K_K@Z
    ?_Calculate_growth@?$vector@VInst@Prog@re2@@V?$allocator@VInst@Prog@re2@@@std@@@std@@AEBA_K_K@Z
    ?_Ceiling_of_log_2@std@@YAK_K@Z
    ?_Change_array@?$vector@EV?$allocator@E@std@@@std@@AEAAXQEAE_K1@Z
    ?_Change_array@?$vector@HV?$allocator@H@std@@@std@@AEAAXQEAH_K1@Z
    ?_Change_array@?$vector@PEAVPrefilter@re2@@V?$allocator@PEAVPrefilter@re2@@@std@@@std@@AEAAXQEAPEAVPrefilter@re2@@_K1@Z
    ?_Change_array@?$vector@PEAVRE2@re2@@V?$allocator@PEAVRE2@re2@@@std@@@std@@AEAAXQEAPEAVRE2@re2@@_K1@Z
    ?_Change_array@?$vector@PEAVRegexp@re2@@V?$allocator@PEAVRegexp@re2@@@std@@@std@@AEAAXQEAPEAVRegexp@re2@@_K1@Z
    ?_Change_array@?$vector@U?$pair@HH@std@@V?$allocator@U?$pair@HH@std@@@2@@std@@AEAAXQEAU?$pair@HH@2@_K1@Z
    ?_Change_array@?$vector@U?$pair@V?$basic_string@DU?$char_traits@D@std@@V?$allocator@D@2@@std@@PEAVRegexp@re2@@@std@@V?$allocator@U?$pair@V?$basic_string@DU?$char_traits@D@std@@V?$allocator@D@2@@std@@PEAVRegexp@re2@@@std@@@2@@std@@AEAAXQEAU?$pair@V?$basic_string@DU?$char_traits@D@std@@V?$allocator@D@2@@std@@PEAVRegexp@re2@@@2@_K1@Z
    ?_Change_array@?$vector@UEntry@PrefilterTree@re2@@V?$allocator@UEntry@PrefilterTree@re2@@@std@@@std@@AEAAXQEAUEntry@PrefilterTree@re2@@_K1@Z
    ?_Change_array@?$vector@UFrame@re2@@V?$allocator@UFrame@re2@@@std@@@std@@AEAAXQEAUFrame@re2@@_K1@Z
    ?_Change_array@?$vector@URuneRange@re2@@V?$allocator@URuneRange@re2@@@std@@@std@@AEAAXQEAURuneRange@re2@@_K1@Z
    ?_Change_array@?$vector@USplice@re2@@V?$allocator@USplice@re2@@@std@@@std@@AEAAXQEAUSplice@re2@@_K1@Z
    ?_Change_array@?$vector@V?$basic_string@DU?$char_traits@D@std@@V?$allocator@D@2@@std@@V?$allocator@V?$basic_string@DU?$char_traits@D@std@@V?$allocator@D@2@@std@@@2@@std@@AEAAXQEAV?$basic_string@DU?$char_traits@D@std@@V?$allocator@D@2@@2@_K1@Z
    ?_Change_array@?$vector@V?$vector@HV?$allocator@H@std@@@std@@V?$allocator@V?$vector@HV?$allocator@H@std@@@std@@@2@@std@@AEAAXQEAV?$vector@HV?$allocator@H@std@@@2@_K1@Z
    ?_Change_array@?$vector@VInst@Prog@re2@@V?$allocator@VInst@Prog@re2@@@std@@@std@@AEAAXQEAVInst@Prog@re2@@_K1@Z
    ?_Check_grow_by_1@?$_Tree@V?$_Tmap_traits@HHU?$less@H@std@@V?$allocator@U?$pair@$$CBHH@std@@@2@$0A@@std@@@std@@IEAAXXZ
    ?_Check_grow_by_1@?$_Tree@V?$_Tmap_traits@HV?$basic_string@DU?$char_traits@D@std@@V?$allocator@D@2@@std@@U?$less@H@2@V?$allocator@U?$pair@$$CBHV?$basic_string@DU?$char_traits@D@std@@V?$allocator@D@2@@std@@@std@@@2@$0A@@std@@@std@@IEAAXXZ
    ?_Check_grow_by_1@?$_Tree@V?$_Tmap_traits@PEAVRegexp@re2@@HU?$less@PEAVRegexp@re2@@@std@@V?$allocator@U?$pair@QEAVRegexp@re2@@H@std@@@4@$0A@@std@@@std@@IEAAXXZ
    ?_Check_grow_by_1@?$_Tree@V?$_Tmap_traits@V?$basic_string@DU?$char_traits@D@std@@V?$allocator@D@2@@std@@HU?$less@V?$basic_string@DU?$char_traits@D@std@@V?$allocator@D@2@@std@@@2@V?$allocator@U?$pair@$$CBV?$basic_string@DU?$char_traits@D@std@@V?$allocator@D@2@@std@@H@std@@@2@$0A@@std@@@std@@IEAAXXZ
    ?_Check_grow_by_1@?$_Tree@V?$_Tmap_traits@V?$basic_string@DU?$char_traits@D@std@@V?$allocator@D@2@@std@@PEAVPrefilter@re2@@U?$less@V?$basic_string@DU?$char_traits@D@std@@V?$allocator@D@2@@std@@@2@V?$allocator@U?$pair@$$CBV?$basic_string@DU?$char_traits@D@std@@V?$allocator@D@2@@std@@PEAVPrefilter@re2@@@std@@@2@$0A@@std@@@std@@IEAAXXZ
    ?_Check_grow_by_1@?$_Tree@V?$_Tset_traits@HU?$less@H@std@@V?$allocator@H@2@$0A@@std@@@std@@IEAAXXZ
    ?_Check_grow_by_1@?$_Tree@V?$_Tset_traits@URuneRange@re2@@URuneRangeLess@2@V?$allocator@URuneRange@re2@@@std@@$0A@@std@@@std@@IEAAXXZ
    ?_Check_grow_by_1@?$_Tree@V?$_Tset_traits@V?$basic_string@DU?$char_traits@D@std@@V?$allocator@D@2@@std@@U?$less@V?$basic_string@DU?$char_traits@D@std@@V?$allocator@D@2@@std@@@2@V?$allocator@V?$basic_string@DU?$char_traits@D@std@@V?$allocator@D@2@@std@@@2@$0A@@std@@@std@@IEAAXXZ
    ?_Check_max_size@?$_Hash@V?$_Umap_traits@PEAUState@DFA@re2@@HV?$_Uhash_compare@PEAUState@DFA@re2@@U?$hash@PEAUState@DFA@re2@@@std@@U?$equal_to@PEAUState@DFA@re2@@@5@@std@@V?$allocator@U?$pair@QEAUState@DFA@re2@@H@std@@@5@$0A@@std@@@std@@IEBAXXZ
    ?_Check_max_size@?$_Hash@V?$_Umap_traits@_KHV?$_Uhash_compare@_KU?$hash@_K@std@@U?$equal_to@_K@2@@std@@V?$allocator@U?$pair@$$CB_KH@std@@@2@$0A@@std@@@std@@IEBAXXZ
    ?_Check_max_size@?$_Hash@V?$_Uset_traits@PEAUState@DFA@re2@@V?$_Uhash_compare@PEAUState@DFA@re2@@UStateHash@23@UStateEqual@23@@std@@V?$allocator@PEAUState@DFA@re2@@@5@$0A@@std@@@std@@IEBAXXZ
    ?_Check_offset@?$_String_val@U?$_Simple_types@D@std@@@std@@QEBAX_K@Z
    ?_Check_rehash_required_1@?$_Hash@V?$_Umap_traits@PEAUState@DFA@re2@@HV?$_Uhash_compare@PEAUState@DFA@re2@@U?$hash@PEAUState@DFA@re2@@@std@@U?$equal_to@PEAUState@DFA@re2@@@5@@std@@V?$allocator@U?$pair@QEAUState@DFA@re2@@H@std@@@5@$0A@@std@@@std@@IEBA_NXZ
    ?_Check_rehash_required_1@?$_Hash@V?$_Umap_traits@_KHV?$_Uhash_compare@_KU?$hash@_K@std@@U?$equal_to@_K@2@@std@@V?$allocator@U?$pair@$$CB_KH@std@@@2@$0A@@std@@@std@@IEBA_NXZ
    ?_Check_rehash_required_1@?$_Hash@V?$_Uset_traits@PEAUState@DFA@re2@@V?$_Uhash_compare@PEAUState@DFA@re2@@UStateHash@23@UStateEqual@23@@std@@V?$allocator@PEAUState@DFA@re2@@@5@$0A@@std@@@std@@IEBA_NXZ
    ?_Clamp_suffix_size@?$_String_val@U?$_Simple_types@D@std@@@std@@QEBA_K_K0@Z
    ?_Clear_and_reserve_geometric@?$vector@HV?$allocator@H@std@@@std@@AEAAX_K@Z
    ?_Compat@?$_Vector_const_iterator@V?$_Vector_val@U?$_Simple_types@U?$pair@HH@std@@@std@@@std@@@std@@QEBAXAEBV12@@Z
    ?_Compat@?$_Vector_const_iterator@V?$_Vector_val@U?$_Simple_types@USplice@re2@@@std@@@std@@@std@@QEBAXAEBV12@@Z
    ?_Construct_lv_contents@?$basic_string@DU?$char_traits@D@std@@V?$allocator@D@2@@std@@AEAAXAEBV12@@Z
    ?_Copy_assign@?$basic_string@DU?$char_traits@D@std@@V?$allocator@D@2@@std@@AEAAXAEBV12@U?$integral_constant@_N$0A@@2@@Z
    ?_Desired_grow_bucket_count@?$_Hash@V?$_Umap_traits@PEAUState@DFA@re2@@HV?$_Uhash_compare@PEAUState@DFA@re2@@U?$hash@PEAUState@DFA@re2@@@std@@U?$equal_to@PEAUState@DFA@re2@@@5@@std@@V?$allocator@U?$pair@QEAUState@DFA@re2@@H@std@@@5@$0A@@std@@@std@@IEBA_K_K@Z
    ?_Desired_grow_bucket_count@?$_Hash@V?$_Umap_traits@_KHV?$_Uhash_compare@_KU?$hash@_K@std@@U?$equal_to@_K@2@@std@@V?$allocator@U?$pair@$$CB_KH@std@@@2@$0A@@std@@@std@@IEBA_K_K@Z
    ?_Desired_grow_bucket_count@?$_Hash@V?$_Uset_traits@PEAUState@DFA@re2@@V?$_Uhash_compare@PEAUState@DFA@re2@@UStateHash@23@UStateEqual@23@@std@@V?$allocator@PEAUState@DFA@re2@@@5@$0A@@std@@@std@@IEBA_K_K@Z
    ?_Destroy@?$vector@EV?$allocator@E@std@@@std@@AEAAXPEAE0@Z
    ?_Destroy@?$vector@HV?$allocator@H@std@@@std@@AEAAXPEAH0@Z
    ?_Destroy@?$vector@PEAVPrefilter@re2@@V?$allocator@PEAVPrefilter@re2@@@std@@@std@@AEAAXPEAPEAVPrefilter@re2@@0@Z
    ?_Destroy@?$vector@PEAVRE2@re2@@V?$allocator@PEAVRE2@re2@@@std@@@std@@AEAAXPEAPEAVRE2@re2@@0@Z
    ?_Destroy@?$vector@PEAVRegexp@re2@@V?$allocator@PEAVRegexp@re2@@@std@@@std@@AEAAXPEAPEAVRegexp@re2@@0@Z
    ?_Destroy@?$vector@U?$pair@HH@std@@V?$allocator@U?$pair@HH@std@@@2@@std@@AEAAXPEAU?$pair@HH@2@0@Z
    ?_Destroy@?$vector@U?$pair@V?$basic_string@DU?$char_traits@D@std@@V?$allocator@D@2@@std@@PEAVRegexp@re2@@@std@@V?$allocator@U?$pair@V?$basic_string@DU?$char_traits@D@std@@V?$allocator@D@2@@std@@PEAVRegexp@re2@@@std@@@2@@std@@AEAAXPEAU?$pair@V?$basic_string@DU?$char_traits@D@std@@V?$allocator@D@2@@std@@PEAVRegexp@re2@@@2@0@Z
    ?_Destroy@?$vector@UEntry@PrefilterTree@re2@@V?$allocator@UEntry@PrefilterTree@re2@@@std@@@std@@AEAAXPEAUEntry@PrefilterTree@re2@@0@Z
    ?_Destroy@?$vector@UFrame@re2@@V?$allocator@UFrame@re2@@@std@@@std@@AEAAXPEAUFrame@re2@@0@Z
    ?_Destroy@?$vector@URuneRange@re2@@V?$allocator@URuneRange@re2@@@std@@@std@@AEAAXPEAURuneRange@re2@@0@Z
    ?_Destroy@?$vector@USplice@re2@@V?$allocator@USplice@re2@@@std@@@std@@AEAAXPEAUSplice@re2@@0@Z
    ?_Destroy@?$vector@V?$basic_string@DU?$char_traits@D@std@@V?$allocator@D@2@@std@@V?$allocator@V?$basic_string@DU?$char_traits@D@std@@V?$allocator@D@2@@std@@@2@@std@@AEAAXPEAV?$basic_string@DU?$char_traits@D@std@@V?$allocator@D@2@@2@0@Z
    ?_Destroy@?$vector@V?$vector@HV?$allocator@H@std@@@std@@V?$allocator@V?$vector@HV?$allocator@H@std@@@std@@@2@@std@@AEAAXPEAV?$vector@HV?$allocator@H@std@@@2@0@Z
    ?_Destroy@?$vector@VInst@Prog@re2@@V?$allocator@VInst@Prog@re2@@@std@@@std@@AEAAXPEAVInst@Prog@re2@@0@Z
    ?_Do_hash@?$hash@PEAUState@DFA@re2@@@std@@SA_KAEBQEAUState@DFA@re2@@@Z
    ?_Do_hash@?$hash@_K@std@@SA_KAEB_K@Z
    ?_Empty@?$_Func_class@XPEBH_N@std@@IEBA_NXZ
    ?_Eos@?$basic_string@DU?$char_traits@D@std@@V?$allocator@D@2@@std@@AEAAX_K@Z
    ?_Erase_unchecked@?$_Tree@V?$_Tmap_traits@PEAVRegexp@re2@@HU?$less@PEAVRegexp@re2@@@std@@V?$allocator@U?$pair@QEAVRegexp@re2@@H@std@@@4@$0A@@std@@@std@@AEAAPEAU?$_Tree_node@U?$pair@QEAVRegexp@re2@@H@std@@PEAX@2@V?$_Tree_unchecked_const_iterator@V?$_Tree_val@U?$_Tree_simple_types@U?$pair@QEAVRegexp@re2@@H@std@@@std@@@std@@U_Iterator_base0@2@@2@0@Z
    ?_Erase_unchecked@?$_Tree@V?$_Tmap_traits@PEAVRegexp@re2@@HU?$less@PEAVRegexp@re2@@@std@@V?$allocator@U?$pair@QEAVRegexp@re2@@H@std@@@4@$0A@@std@@@std@@AEAAPEAU?$_Tree_node@U?$pair@QEAVRegexp@re2@@H@std@@PEAX@2@V?$_Tree_unchecked_const_iterator@V?$_Tree_val@U?$_Tree_simple_types@U?$pair@QEAVRegexp@re2@@H@std@@@std@@@std@@U_Iterator_base0@2@@2@@Z
    ?_Erase_unchecked@?$_Tree@V?$_Tset_traits@URuneRange@re2@@URuneRangeLess@2@V?$allocator@URuneRange@re2@@@std@@$0A@@std@@@std@@AEAAPEAU?$_Tree_node@URuneRange@re2@@PEAX@2@V?$_Tree_unchecked_const_iterator@V?$_Tree_val@U?$_Tree_simple_types@URuneRange@re2@@@std@@@std@@U_Iterator_base0@2@@2@@Z
    ?_Erase_unchecked@?$_Tree@V?$_Tset_traits@V?$basic_string@DU?$char_traits@D@std@@V?$allocator@D@2@@std@@U?$less@V?$basic_string@DU?$char_traits@D@std@@V?$allocator@D@2@@std@@@2@V?$allocator@V?$basic_string@DU?$char_traits@D@std@@V?$allocator@D@2@@std@@@2@$0A@@std@@@std@@AEAAPEAU?$_Tree_node@V?$basic_string@DU?$char_traits@D@std@@V?$allocator@D@2@@std@@PEAX@2@V?$_Tree_unchecked_const_iterator@V?$_Tree_val@U?$_Tree_simple_types@V?$basic_string@DU?$char_traits@D@std@@V?$allocator@D@2@@std@@@std@@@std@@U_Iterator_base0@2@@2@@Z
    ?_Extract@?$_In_place_key_extract_map@PEAUState@DFA@re2@@PEAU123@H@std@@SAAEBQEAUState@DFA@re2@@AEBQEAU345@AEBH@Z
    ?_Extract@?$_In_place_key_extract_map@V?$basic_string@DU?$char_traits@D@std@@V?$allocator@D@2@@std@@V12@PEAVPrefilter@re2@@@std@@SAAEBV?$basic_string@DU?$char_traits@D@std@@V?$allocator@D@2@@2@AEBV32@AEBQEAVPrefilter@re2@@@Z
    ?_Extract@?$_In_place_key_extract_set@HH@std@@SAAEBHAEBH@Z
    ?_Extract@?$_In_place_key_extract_set@PEAUState@DFA@re2@@PEAU123@@std@@SAAEBQEAUState@DFA@re2@@AEBQEAU345@@Z
    ?_Extract@?$_In_place_key_extract_set@URuneRange@re2@@U12@@std@@SAAEBURuneRange@re2@@AEBU34@@Z
    ?_Extract@?$_In_place_key_extract_set@V?$basic_string@DU?$char_traits@D@std@@V?$allocator@D@2@@std@@V12@@std@@SAAEBV?$basic_string@DU?$char_traits@D@std@@V?$allocator@D@2@@2@AEBV32@@Z
    ?_Extract@?$_Tree_val@U?$_Tree_simple_types@U?$pair@QEAVRegexp@re2@@H@std@@@std@@@std@@QEAAPEAU?$_Tree_node@U?$pair@QEAVRegexp@re2@@H@std@@PEAX@2@V?$_Tree_unchecked_const_iterator@V?$_Tree_val@U?$_Tree_simple_types@U?$pair@QEAVRegexp@re2@@H@std@@@std@@@std@@U_Iterator_base0@2@@2@@Z
    ?_Extract@?$_Tree_val@U?$_Tree_simple_types@URuneRange@re2@@@std@@@std@@QEAAPEAU?$_Tree_node@URuneRange@re2@@PEAX@2@V?$_Tree_unchecked_const_iterator@V?$_Tree_val@U?$_Tree_simple_types@URuneRange@re2@@@std@@@std@@U_Iterator_base0@2@@2@@Z
    ?_Extract@?$_Tree_val@U?$_Tree_simple_types@V?$basic_string@DU?$char_traits@D@std@@V?$allocator@D@2@@std@@@std@@@std@@QEAAPEAU?$_Tree_node@V?$basic_string@DU?$char_traits@D@std@@V?$allocator@D@2@@std@@PEAX@2@V?$_Tree_unchecked_const_iterator@V?$_Tree_val@U?$_Tree_simple_types@V?$basic_string@DU?$char_traits@D@std@@V?$allocator@D@2@@std@@@std@@@std@@U_Iterator_base0@2@@2@@Z
    ?_Floor_of_log_2@std@@YAK_K@Z
    ?_Fnv1a_append_bytes@std@@YA_K_KQEBE_K@Z
    ?_Forced_rehash@?$_Hash@V?$_Umap_traits@PEAUState@DFA@re2@@HV?$_Uhash_compare@PEAUState@DFA@re2@@U?$hash@PEAUState@DFA@re2@@@std@@U?$equal_to@PEAUState@DFA@re2@@@5@@std@@V?$allocator@U?$pair@QEAUState@DFA@re2@@H@std@@@5@$0A@@std@@@std@@IEAAX_K@Z
    ?_Forced_rehash@?$_Hash@V?$_Umap_traits@_KHV?$_Uhash_compare@_KU?$hash@_K@std@@U?$equal_to@_K@2@@std@@V?$allocator@U?$pair@$$CB_KH@std@@@2@$0A@@std@@@std@@IEAAX_K@Z
    ?_Forced_rehash@?$_Hash@V?$_Uset_traits@PEAUState@DFA@re2@@V?$_Uhash_compare@PEAUState@DFA@re2@@UStateHash@23@UStateEqual@23@@std@@V?$allocator@PEAUState@DFA@re2@@@5@$0A@@std@@@std@@IEAAX_K@Z
    ?_Get_data@?$deque@PEAUState@DFA@re2@@V?$allocator@PEAUState@DFA@re2@@@std@@@std@@AEAAAEAV?$_Deque_val@U?$_Deque_simple_types@PEAUState@DFA@re2@@@std@@@2@XZ
    ?_Get_data@?$deque@PEAUState@DFA@re2@@V?$allocator@PEAUState@DFA@re2@@@std@@@std@@AEBAAEBV?$_Deque_val@U?$_Deque_simple_types@PEAUState@DFA@re2@@@std@@@2@XZ
    ?_Get_data@?$deque@U?$WalkState@H@re2@@V?$allocator@U?$WalkState@H@re2@@@std@@@std@@AEAAAEAV?$_Deque_val@U?$_Deque_simple_types@U?$WalkState@H@re2@@@std@@@2@XZ
    ?_Get_data@?$deque@U?$WalkState@H@re2@@V?$allocator@U?$WalkState@H@re2@@@std@@@std@@AEBAAEBV?$_Deque_val@U?$_Deque_simple_types@U?$WalkState@H@re2@@@std@@@2@XZ
    ?_Get_data@?$deque@U?$WalkState@PEAVInfo@Prefilter@re2@@@re2@@V?$allocator@U?$WalkState@PEAVInfo@Prefilter@re2@@@re2@@@std@@@std@@AEAAAEAV?$_Deque_val@U?$_Deque_simple_types@U?$WalkState@PEAVInfo@Prefilter@re2@@@re2@@@std@@@2@XZ
    ?_Get_data@?$deque@U?$WalkState@PEAVInfo@Prefilter@re2@@@re2@@V?$allocator@U?$WalkState@PEAVInfo@Prefilter@re2@@@re2@@@std@@@std@@AEBAAEBV?$_Deque_val@U?$_Deque_simple_types@U?$WalkState@PEAVInfo@Prefilter@re2@@@re2@@@std@@@2@XZ
    ?_Get_data@?$deque@U?$WalkState@PEAVRegexp@re2@@@re2@@V?$allocator@U?$WalkState@PEAVRegexp@re2@@@re2@@@std@@@std@@AEAAAEAV?$_Deque_val@U?$_Deque_simple_types@U?$WalkState@PEAVRegexp@re2@@@re2@@@std@@@2@XZ
    ?_Get_data@?$deque@U?$WalkState@PEAVRegexp@re2@@@re2@@V?$allocator@U?$WalkState@PEAVRegexp@re2@@@re2@@@std@@@std@@AEBAAEBV?$_Deque_val@U?$_Deque_simple_types@U?$WalkState@PEAVRegexp@re2@@@re2@@@std@@@2@XZ
    ?_Get_data@?$deque@U?$WalkState@UFrag@re2@@@re2@@V?$allocator@U?$WalkState@UFrag@re2@@@re2@@@std@@@std@@AEAAAEAV?$_Deque_val@U?$_Deque_simple_types@U?$WalkState@UFrag@re2@@@re2@@@std@@@2@XZ
    ?_Get_data@?$deque@U?$WalkState@UFrag@re2@@@re2@@V?$allocator@U?$WalkState@UFrag@re2@@@re2@@@std@@@std@@AEBAAEBV?$_Deque_val@U?$_Deque_simple_types@U?$WalkState@UFrag@re2@@@re2@@@std@@@2@XZ
    ?_Get_data@?$deque@U?$WalkState@_N@re2@@V?$allocator@U?$WalkState@_N@re2@@@std@@@std@@AEAAAEAV?$_Deque_val@U?$_Deque_simple_types@U?$WalkState@_N@re2@@@std@@@2@XZ
    ?_Get_data@?$deque@U?$WalkState@_N@re2@@V?$allocator@U?$WalkState@_N@re2@@@std@@@std@@AEBAAEBV?$_Deque_val@U?$_Deque_simple_types@U?$WalkState@_N@re2@@@std@@@2@XZ
    ?_Get_data@?$deque@UThread@NFA@re2@@V?$allocator@UThread@NFA@re2@@@std@@@std@@AEAAAEAV?$_Deque_val@U?$_Deque_simple_types@UThread@NFA@re2@@@std@@@2@XZ
    ?_Get_data@?$deque@UThread@NFA@re2@@V?$allocator@UThread@NFA@re2@@@std@@@std@@AEBAAEBV?$_Deque_val@U?$_Deque_simple_types@UThread@NFA@re2@@@std@@@2@XZ
    ?_Get_first@?$_Compressed_pair@U?$default_delete@V?$SparseSetT@X@re2@@@std@@PEAV?$SparseSetT@X@re2@@$00@std@@QEAAAEAU?$default_delete@V?$SparseSetT@X@re2@@@2@XZ
    ?_Get_first@?$_Compressed_pair@U?$default_delete@VPrefilterTree@re2@@@std@@PEAVPrefilterTree@re2@@$00@std@@QEAAAEAU?$default_delete@VPrefilterTree@re2@@@2@XZ
    ?_Get_first@?$_Compressed_pair@U?$default_delete@VProg@re2@@@std@@PEAVProg@re2@@$00@std@@QEAAAEAU?$default_delete@VProg@re2@@@2@XZ
    ?_Get_first@?$_Compressed_pair@U?$equal_to@PEAUState@DFA@re2@@@std@@M$00@std@@QEBAAEBU?$equal_to@PEAUState@DFA@re2@@@2@XZ
    ?_Get_first@?$_Compressed_pair@U?$equal_to@_K@std@@M$00@std@@QEBAAEBU?$equal_to@_K@2@XZ
    ?_Get_first@?$_Compressed_pair@U?$hash@PEAUState@DFA@re2@@@std@@V?$_Compressed_pair@U?$equal_to@PEAUState@DFA@re2@@@std@@M$00@2@$00@std@@QEBAAEBU?$hash@PEAUState@DFA@re2@@@2@XZ
    ?_Get_first@?$_Compressed_pair@U?$hash@_K@std@@V?$_Compressed_pair@U?$equal_to@_K@std@@M$00@2@$00@std@@QEBAAEBU?$hash@_K@2@XZ
    ?_Get_first@?$_Compressed_pair@U?$less@H@std@@V?$_Compressed_pair@V?$allocator@U?$_Tree_node@HPEAX@std@@@std@@V?$_Tree_val@U?$_Tree_simple_types@H@std@@@2@$00@2@$00@std@@QEBAAEBU?$less@H@2@XZ
    ?_Get_first@?$_Compressed_pair@U?$less@H@std@@V?$_Compressed_pair@V?$allocator@U?$_Tree_node@U?$pair@$$CBHH@std@@PEAX@std@@@std@@V?$_Tree_val@U?$_Tree_simple_types@U?$pair@$$CBHH@std@@@std@@@2@$00@2@$00@std@@QEBAAEBU?$less@H@2@XZ
    ?_Get_first@?$_Compressed_pair@U?$less@H@std@@V?$_Compressed_pair@V?$allocator@U?$_Tree_node@U?$pair@$$CBHV?$basic_string@DU?$char_traits@D@std@@V?$allocator@D@2@@std@@@std@@PEAX@std@@@std@@V?$_Tree_val@U?$_Tree_simple_types@U?$pair@$$CBHV?$basic_string@DU?$char_traits@D@std@@V?$allocator@D@2@@std@@@std@@@std@@@2@$00@2@$00@std@@QEBAAEBU?$less@H@2@XZ
    ?_Get_first@?$_Compressed_pair@U?$less@PEAVRegexp@re2@@@std@@V?$_Compressed_pair@V?$allocator@U?$_Tree_node@U?$pair@QEAVRegexp@re2@@H@std@@PEAX@std@@@std@@V?$_Tree_val@U?$_Tree_simple_types@U?$pair@QEAVRegexp@re2@@H@std@@@std@@@2@$00@2@$00@std@@QEBAAEBU?$less@PEAVRegexp@re2@@@2@XZ
    ?_Get_first@?$_Compressed_pair@U?$less@V?$basic_string@DU?$char_traits@D@std@@V?$allocator@D@2@@std@@@std@@V?$_Compressed_pair@V?$allocator@U?$_Tree_node@U?$pair@$$CBV?$basic_string@DU?$char_traits@D@std@@V?$allocator@D@2@@std@@H@std@@PEAX@std@@@std@@V?$_Tree_val@U?$_Tree_simple_types@U?$pair@$$CBV?$basic_string@DU?$char_traits@D@std@@V?$allocator@D@2@@std@@H@std@@@std@@@2@$00@2@$00@std@@QEBAAEBU?$less@V?$basic_string@DU?$char_traits@D@std@@V?$allocator@D@2@@std@@@2@XZ
    ?_Get_first@?$_Compressed_pair@U?$less@V?$basic_string@DU?$char_traits@D@std@@V?$allocator@D@2@@std@@@std@@V?$_Compressed_pair@V?$allocator@U?$_Tree_node@U?$pair@$$CBV?$basic_string@DU?$char_traits@D@std@@V?$allocator@D@2@@std@@PEAVPrefilter@re2@@@std@@PEAX@std@@@std@@V?$_Tree_val@U?$_Tree_simple_types@U?$pair@$$CBV?$basic_string@DU?$char_traits@D@std@@V?$allocator@D@2@@std@@PEAVPrefilter@re2@@@std@@@std@@@2@$00@2@$00@std@@QEBAAEBU?$less@V?$basic_string@DU?$char_traits@D@std@@V?$allocator@D@2@@std@@@2@XZ
    ?_Get_first@?$_Compressed_pair@U?$less@V?$basic_string@DU?$char_traits@D@std@@V?$allocator@D@2@@std@@@std@@V?$_Compressed_pair@V?$allocator@U?$_Tree_node@V?$basic_string@DU?$char_traits@D@std@@V?$allocator@D@2@@std@@PEAX@std@@@std@@V?$_Tree_val@U?$_Tree_simple_types@V?$basic_string@DU?$char_traits@D@std@@V?$allocator@D@2@@std@@@std@@@2@$00@2@$00@std@@QEBAAEBU?$less@V?$basic_string@DU?$char_traits@D@std@@V?$allocator@D@2@@std@@@2@XZ
    ?_Get_first@?$_Compressed_pair@UDeleter@?$PODArray@E@re2@@PEAE$0A@@std@@QEAAAEAUDeleter@?$PODArray@E@re2@@XZ
    ?_Get_first@?$_Compressed_pair@UDeleter@?$PODArray@G@re2@@PEAG$0A@@std@@QEAAAEAUDeleter@?$PODArray@G@re2@@XZ
    ?_Get_first@?$_Compressed_pair@UDeleter@?$PODArray@H@re2@@PEAH$0A@@std@@QEAAAEAUDeleter@?$PODArray@H@re2@@XZ
    ?_Get_first@?$_Compressed_pair@UDeleter@?$PODArray@H@re2@@PEAH$0A@@std@@QEBAAEBUDeleter@?$PODArray@H@re2@@XZ
    ?_Get_first@?$_Compressed_pair@UDeleter@?$PODArray@PEAVRegexp@re2@@@re2@@PEAPEAVRegexp@3@$0A@@std@@QEAAAEAUDeleter@?$PODArray@PEAVRegexp@re2@@@re2@@XZ
    ?_Get_first@?$_Compressed_pair@UDeleter@?$PODArray@PEBD@re2@@PEAPEBD$0A@@std@@QEAAAEAUDeleter@?$PODArray@PEBD@re2@@XZ
    ?_Get_first@?$_Compressed_pair@UDeleter@?$PODArray@PEBD@re2@@PEAPEBD$0A@@std@@QEBAAEBUDeleter@?$PODArray@PEBD@re2@@XZ
    ?_Get_first@?$_Compressed_pair@UDeleter@?$PODArray@UAddState@NFA@re2@@@re2@@PEAUAddState@NFA@3@$0A@@std@@QEAAAEAUDeleter@?$PODArray@UAddState@NFA@re2@@@re2@@XZ
    ?_Get_first@?$_Compressed_pair@UDeleter@?$PODArray@UAddState@NFA@re2@@@re2@@PEAUAddState@NFA@3@$0A@@std@@QEBAAEBUDeleter@?$PODArray@UAddState@NFA@re2@@@re2@@XZ
    ?_Get_first@?$_Compressed_pair@UDeleter@?$PODArray@UInstCond@re2@@@re2@@PEAUInstCond@3@$0A@@std@@QEAAAEAUDeleter@?$PODArray@UInstCond@re2@@@re2@@XZ
    ?_Get_first@?$_Compressed_pair@UDeleter@?$PODArray@UJob@re2@@@re2@@PEAUJob@3@$0A@@std@@QEAAAEAUDeleter@?$PODArray@UJob@re2@@@re2@@XZ
    ?_Get_first@?$_Compressed_pair@UDeleter@?$PODArray@UJob@re2@@@re2@@PEAUJob@3@$0A@@std@@QEBAAEBUDeleter@?$PODArray@UJob@re2@@@re2@@XZ
    ?_Get_first@?$_Compressed_pair@UDeleter@?$PODArray@VIndexValue@?$SparseArray@H@re2@@@re2@@PEAVIndexValue@?$SparseArray@H@3@$0A@@std@@QEAAAEAUDeleter@?$PODArray@VIndexValue@?$SparseArray@H@re2@@@re2@@XZ
    ?_Get_first@?$_Compressed_pair@UDeleter@?$PODArray@VIndexValue@?$SparseArray@H@re2@@@re2@@PEAVIndexValue@?$SparseArray@H@3@$0A@@std@@QEBAAEBUDeleter@?$PODArray@VIndexValue@?$SparseArray@H@re2@@@re2@@XZ
    ?_Get_first@?$_Compressed_pair@UDeleter@?$PODArray@VIndexValue@?$SparseArray@PEAUThread@NFA@re2@@@re2@@@re2@@PEAVIndexValue@?$SparseArray@PEAUThread@NFA@re2@@@3@$0A@@std@@QEAAAEAUDeleter@?$PODArray@VIndexValue@?$SparseArray@PEAUThread@NFA@re2@@@re2@@@re2@@XZ
    ?_Get_first@?$_Compressed_pair@UDeleter@?$PODArray@VIndexValue@?$SparseArray@PEAUThread@NFA@re2@@@re2@@@re2@@PEAVIndexValue@?$SparseArray@PEAUThread@NFA@re2@@@3@$0A@@std@@QEBAAEBUDeleter@?$PODArray@VIndexValue@?$SparseArray@PEAUThread@NFA@re2@@@re2@@@re2@@XZ
    ?_Get_first@?$_Compressed_pair@UDeleter@?$PODArray@VInst@Prog@re2@@@re2@@PEAVInst@Prog@3@$0A@@std@@QEAAAEAUDeleter@?$PODArray@VInst@Prog@re2@@@re2@@XZ
    ?_Get_first@?$_Compressed_pair@UDeleter@?$PODArray@VInst@Prog@re2@@@re2@@PEAVInst@Prog@3@$0A@@std@@QEBAAEBUDeleter@?$PODArray@VInst@Prog@re2@@@re2@@XZ
    ?_Get_first@?$_Compressed_pair@UDeleter@?$PODArray@_K@re2@@PEA_K$0A@@std@@QEAAAEAUDeleter@?$PODArray@_K@re2@@XZ
    ?_Get_first@?$_Compressed_pair@URuneRangeLess@re2@@V?$_Compressed_pair@V?$allocator@U?$_Tree_node@URuneRange@re2@@PEAX@std@@@std@@V?$_Tree_val@U?$_Tree_simple_types@URuneRange@re2@@@std@@@2@$00@std@@$00@std@@QEBAAEBURuneRangeLess@re2@@XZ
    ?_Get_first@?$_Compressed_pair@UStateEqual@DFA@re2@@M$00@std@@QEBAAEBUStateEqual@DFA@re2@@XZ
    ?_Get_first@?$_Compressed_pair@UStateHash@DFA@re2@@V?$_Compressed_pair@UStateEqual@DFA@re2@@M$00@std@@$00@std@@QEBAAEBUStateHash@DFA@re2@@XZ
    ?_Get_first@?$_Compressed_pair@V?$allocator@D@std@@V?$_String_val@U?$_Simple_types@D@std@@@2@$00@std@@QEAAAEAV?$allocator@D@2@XZ
    ?_Get_first@?$_Compressed_pair@V?$allocator@D@std@@V?$_String_val@U?$_Simple_types@D@std@@@2@$00@std@@QEBAAEBV?$allocator@D@2@XZ
    ?_Get_first@?$_Compressed_pair@V?$allocator@E@std@@V?$_Vector_val@U?$_Simple_types@E@std@@@2@$00@std@@QEAAAEAV?$allocator@E@2@XZ
    ?_Get_first@?$_Compressed_pair@V?$allocator@E@std@@V?$_Vector_val@U?$_Simple_types@E@std@@@2@$00@std@@QEBAAEBV?$allocator@E@2@XZ
    ?_Get_first@?$_Compressed_pair@V?$allocator@H@std@@V?$_Vector_val@U?$_Simple_types@H@std@@@2@$00@std@@QEAAAEAV?$allocator@H@2@XZ
    ?_Get_first@?$_Compressed_pair@V?$allocator@H@std@@V?$_Vector_val@U?$_Simple_types@H@std@@@2@$00@std@@QEBAAEBV?$allocator@H@2@XZ
    ?_Get_first@?$_Compressed_pair@V?$allocator@PEAUState@DFA@re2@@@std@@V?$_Deque_val@U?$_Deque_simple_types@PEAUState@DFA@re2@@@std@@@2@$00@std@@QEAAAEAV?$allocator@PEAUState@DFA@re2@@@2@XZ
    ?_Get_first@?$_Compressed_pair@V?$allocator@PEAUState@DFA@re2@@@std@@V?$_Deque_val@U?$_Deque_simple_types@PEAUState@DFA@re2@@@std@@@2@$00@std@@QEBAAEBV?$allocator@PEAUState@DFA@re2@@@2@XZ
    ?_Get_first@?$_Compressed_pair@V?$allocator@PEAVPrefilter@re2@@@std@@V?$_Vector_val@U?$_Simple_types@PEAVPrefilter@re2@@@std@@@2@$00@std@@QEAAAEAV?$allocator@PEAVPrefilter@re2@@@2@XZ
    ?_Get_first@?$_Compressed_pair@V?$allocator@PEAVPrefilter@re2@@@std@@V?$_Vector_val@U?$_Simple_types@PEAVPrefilter@re2@@@std@@@2@$00@std@@QEBAAEBV?$allocator@PEAVPrefilter@re2@@@2@XZ
    ?_Get_first@?$_Compressed_pair@V?$allocator@PEAVRE2@re2@@@std@@V?$_Vector_val@U?$_Simple_types@PEAVRE2@re2@@@std@@@2@$00@std@@QEAAAEAV?$allocator@PEAVRE2@re2@@@2@XZ
    ?_Get_first@?$_Compressed_pair@V?$allocator@PEAVRE2@re2@@@std@@V?$_Vector_val@U?$_Simple_types@PEAVRE2@re2@@@std@@@2@$00@std@@QEBAAEBV?$allocator@PEAVRE2@re2@@@2@XZ
    ?_Get_first@?$_Compressed_pair@V?$allocator@PEAVRegexp@re2@@@std@@V?$_Vector_val@U?$_Simple_types@PEAVRegexp@re2@@@std@@@2@$00@std@@QEAAAEAV?$allocator@PEAVRegexp@re2@@@2@XZ
    ?_Get_first@?$_Compressed_pair@V?$allocator@PEAVRegexp@re2@@@std@@V?$_Vector_val@U?$_Simple_types@PEAVRegexp@re2@@@std@@@2@$00@std@@QEBAAEBV?$allocator@PEAVRegexp@re2@@@2@XZ
    ?_Get_first@?$_Compressed_pair@V?$allocator@U?$WalkState@H@re2@@@std@@V?$_Deque_val@U?$_Deque_simple_types@U?$WalkState@H@re2@@@std@@@2@$00@std@@QEAAAEAV?$allocator@U?$WalkState@H@re2@@@2@XZ
    ?_Get_first@?$_Compressed_pair@V?$allocator@U?$WalkState@H@re2@@@std@@V?$_Deque_val@U?$_Deque_simple_types@U?$WalkState@H@re2@@@std@@@2@$00@std@@QEBAAEBV?$allocator@U?$WalkState@H@re2@@@2@XZ
    ?_Get_first@?$_Compressed_pair@V?$allocator@U?$WalkState@PEAVInfo@Prefilter@re2@@@re2@@@std@@V?$_Deque_val@U?$_Deque_simple_types@U?$WalkState@PEAVInfo@Prefilter@re2@@@re2@@@std@@@2@$00@std@@QEAAAEAV?$allocator@U?$WalkState@PEAVInfo@Prefilter@re2@@@re2@@@2@XZ
    ?_Get_first@?$_Compressed_pair@V?$allocator@U?$WalkState@PEAVInfo@Prefilter@re2@@@re2@@@std@@V?$_Deque_val@U?$_Deque_simple_types@U?$WalkState@PEAVInfo@Prefilter@re2@@@re2@@@std@@@2@$00@std@@QEBAAEBV?$allocator@U?$WalkState@PEAVInfo@Prefilter@re2@@@re2@@@2@XZ
    ?_Get_first@?$_Compressed_pair@V?$allocator@U?$WalkState@PEAVRegexp@re2@@@re2@@@std@@V?$_Deque_val@U?$_Deque_simple_types@U?$WalkState@PEAVRegexp@re2@@@re2@@@std@@@2@$00@std@@QEAAAEAV?$allocator@U?$WalkState@PEAVRegexp@re2@@@re2@@@2@XZ
    ?_Get_first@?$_Compressed_pair@V?$allocator@U?$WalkState@PEAVRegexp@re2@@@re2@@@std@@V?$_Deque_val@U?$_Deque_simple_types@U?$WalkState@PEAVRegexp@re2@@@re2@@@std@@@2@$00@std@@QEBAAEBV?$allocator@U?$WalkState@PEAVRegexp@re2@@@re2@@@2@XZ
    ?_Get_first@?$_Compressed_pair@V?$allocator@U?$WalkState@UFrag@re2@@@re2@@@std@@V?$_Deque_val@U?$_Deque_simple_types@U?$WalkState@UFrag@re2@@@re2@@@std@@@2@$00@std@@QEAAAEAV?$allocator@U?$WalkState@UFrag@re2@@@re2@@@2@XZ
    ?_Get_first@?$_Compressed_pair@V?$allocator@U?$WalkState@UFrag@re2@@@re2@@@std@@V?$_Deque_val@U?$_Deque_simple_types@U?$WalkState@UFrag@re2@@@re2@@@std@@@2@$00@std@@QEBAAEBV?$allocator@U?$WalkState@UFrag@re2@@@re2@@@2@XZ
    ?_Get_first@?$_Compressed_pair@V?$allocator@U?$WalkState@_N@re2@@@std@@V?$_Deque_val@U?$_Deque_simple_types@U?$WalkState@_N@re2@@@std@@@2@$00@std@@QEAAAEAV?$allocator@U?$WalkState@_N@re2@@@2@XZ
    ?_Get_first@?$_Compressed_pair@V?$allocator@U?$WalkState@_N@re2@@@std@@V?$_Deque_val@U?$_Deque_simple_types@U?$WalkState@_N@re2@@@std@@@2@$00@std@@QEBAAEBV?$allocator@U?$WalkState@_N@re2@@@2@XZ
    ?_Get_first@?$_Compressed_pair@V?$allocator@U?$_List_node@PEAUState@DFA@re2@@PEAX@std@@@std@@V?$_List_val@U?$_List_simple_types@PEAUState@DFA@re2@@@std@@@2@$00@std@@QEAAAEAV?$allocator@U?$_List_node@PEAUState@DFA@re2@@PEAX@std@@@2@XZ
    ?_Get_first@?$_Compressed_pair@V?$allocator@U?$_List_node@PEAUState@DFA@re2@@PEAX@std@@@std@@V?$_List_val@U?$_List_simple_types@PEAUState@DFA@re2@@@std@@@2@$00@std@@QEBAAEBV?$allocator@U?$_List_node@PEAUState@DFA@re2@@PEAX@std@@@2@XZ
    ?_Get_first@?$_Compressed_pair@V?$allocator@U?$_List_node@U?$pair@$$CB_KH@std@@PEAX@std@@@std@@V?$_List_val@U?$_List_simple_types@U?$pair@$$CB_KH@std@@@std@@@2@$00@std@@QEAAAEAV?$allocator@U?$_List_node@U?$pair@$$CB_KH@std@@PEAX@std@@@2@XZ
    ?_Get_first@?$_Compressed_pair@V?$allocator@U?$_List_node@U?$pair@$$CB_KH@std@@PEAX@std@@@std@@V?$_List_val@U?$_List_simple_types@U?$pair@$$CB_KH@std@@@std@@@2@$00@std@@QEBAAEBV?$allocator@U?$_List_node@U?$pair@$$CB_KH@std@@PEAX@std@@@2@XZ
    ?_Get_first@?$_Compressed_pair@V?$allocator@U?$_List_node@U?$pair@QEAUState@DFA@re2@@H@std@@PEAX@std@@@std@@V?$_List_val@U?$_List_simple_types@U?$pair@QEAUState@DFA@re2@@H@std@@@std@@@2@$00@std@@QEAAAEAV?$allocator@U?$_List_node@U?$pair@QEAUState@DFA@re2@@H@std@@PEAX@std@@@2@XZ
    ?_Get_first@?$_Compressed_pair@V?$allocator@U?$_List_node@U?$pair@QEAUState@DFA@re2@@H@std@@PEAX@std@@@std@@V?$_List_val@U?$_List_simple_types@U?$pair@QEAUState@DFA@re2@@H@std@@@std@@@2@$00@std@@QEBAAEBV?$allocator@U?$_List_node@U?$pair@QEAUState@DFA@re2@@H@std@@PEAX@std@@@2@XZ
    ?_Get_first@?$_Compressed_pair@V?$allocator@U?$_Tree_node@HPEAX@std@@@std@@V?$_Tree_val@U?$_Tree_simple_types@H@std@@@2@$00@std@@QEAAAEAV?$allocator@U?$_Tree_node@HPEAX@std@@@2@XZ
    ?_Get_first@?$_Compressed_pair@V?$allocator@U?$_Tree_node@HPEAX@std@@@std@@V?$_Tree_val@U?$_Tree_simple_types@H@std@@@2@$00@std@@QEBAAEBV?$allocator@U?$_Tree_node@HPEAX@std@@@2@XZ
    ?_Get_first@?$_Compressed_pair@V?$allocator@U?$_Tree_node@U?$pair@$$CBHH@std@@PEAX@std@@@std@@V?$_Tree_val@U?$_Tree_simple_types@U?$pair@$$CBHH@std@@@std@@@2@$00@std@@QEAAAEAV?$allocator@U?$_Tree_node@U?$pair@$$CBHH@std@@PEAX@std@@@2@XZ
    ?_Get_first@?$_Compressed_pair@V?$allocator@U?$_Tree_node@U?$pair@$$CBHH@std@@PEAX@std@@@std@@V?$_Tree_val@U?$_Tree_simple_types@U?$pair@$$CBHH@std@@@std@@@2@$00@std@@QEBAAEBV?$allocator@U?$_Tree_node@U?$pair@$$CBHH@std@@PEAX@std@@@2@XZ
    ?_Get_first@?$_Compressed_pair@V?$allocator@U?$_Tree_node@U?$pair@$$CBHV?$basic_string@DU?$char_traits@D@std@@V?$allocator@D@2@@std@@@std@@PEAX@std@@@std@@V?$_Tree_val@U?$_Tree_simple_types@U?$pair@$$CBHV?$basic_string@DU?$char_traits@D@std@@V?$allocator@D@2@@std@@@std@@@std@@@2@$00@std@@QEAAAEAV?$allocator@U?$_Tree_node@U?$pair@$$CBHV?$basic_string@DU?$char_traits@D@std@@V?$allocator@D@2@@std@@@std@@PEAX@std@@@2@XZ
    ?_Get_first@?$_Compressed_pair@V?$allocator@U?$_Tree_node@U?$pair@$$CBHV?$basic_string@DU?$char_traits@D@std@@V?$allocator@D@2@@std@@@std@@PEAX@std@@@std@@V?$_Tree_val@U?$_Tree_simple_types@U?$pair@$$CBHV?$basic_string@DU?$char_traits@D@std@@V?$allocator@D@2@@std@@@std@@@std@@@2@$00@std@@QEBAAEBV?$allocator@U?$_Tree_node@U?$pair@$$CBHV?$basic_string@DU?$char_traits@D@std@@V?$allocator@D@2@@std@@@std@@PEAX@std@@@2@XZ
    ?_Get_first@?$_Compressed_pair@V?$allocator@U?$_Tree_node@U?$pair@$$CBV?$basic_string@DU?$char_traits@D@std@@V?$allocator@D@2@@std@@H@std@@PEAX@std@@@std@@V?$_Tree_val@U?$_Tree_simple_types@U?$pair@$$CBV?$basic_string@DU?$char_traits@D@std@@V?$allocator@D@2@@std@@H@std@@@std@@@2@$00@std@@QEAAAEAV?$allocator@U?$_Tree_node@U?$pair@$$CBV?$basic_string@DU?$char_traits@D@std@@V?$allocator@D@2@@std@@H@std@@PEAX@std@@@2@XZ
    ?_Get_first@?$_Compressed_pair@V?$allocator@U?$_Tree_node@U?$pair@$$CBV?$basic_string@DU?$char_traits@D@std@@V?$allocator@D@2@@std@@H@std@@PEAX@std@@@std@@V?$_Tree_val@U?$_Tree_simple_types@U?$pair@$$CBV?$basic_string@DU?$char_traits@D@std@@V?$allocator@D@2@@std@@H@std@@@std@@@2@$00@std@@QEBAAEBV?$allocator@U?$_Tree_node@U?$pair@$$CBV?$basic_string@DU?$char_traits@D@std@@V?$allocator@D@2@@std@@H@std@@PEAX@std@@@2@XZ
    ?_Get_first@?$_Compressed_pair@V?$allocator@U?$_Tree_node@U?$pair@$$CBV?$basic_string@DU?$char_traits@D@std@@V?$allocator@D@2@@std@@PEAVPrefilter@re2@@@std@@PEAX@std@@@std@@V?$_Tree_val@U?$_Tree_simple_types@U?$pair@$$CBV?$basic_string@DU?$char_traits@D@std@@V?$allocator@D@2@@std@@PEAVPrefilter@re2@@@std@@@std@@@2@$00@std@@QEAAAEAV?$allocator@U?$_Tree_node@U?$pair@$$CBV?$basic_string@DU?$char_traits@D@std@@V?$allocator@D@2@@std@@PEAVPrefilter@re2@@@std@@PEAX@std@@@2@XZ
    ?_Get_first@?$_Compressed_pair@V?$allocator@U?$_Tree_node@U?$pair@$$CBV?$basic_string@DU?$char_traits@D@std@@V?$allocator@D@2@@std@@PEAVPrefilter@re2@@@std@@PEAX@std@@@std@@V?$_Tree_val@U?$_Tree_simple_types@U?$pair@$$CBV?$basic_string@DU?$char_traits@D@std@@V?$allocator@D@2@@std@@PEAVPrefilter@re2@@@std@@@std@@@2@$00@std@@QEBAAEBV?$allocator@U?$_Tree_node@U?$pair@$$CBV?$basic_string@DU?$char_traits@D@std@@V?$allocator@D@2@@std@@PEAVPrefilter@re2@@@std@@PEAX@std@@@2@XZ
    ?_Get_first@?$_Compressed_pair@V?$allocator@U?$_Tree_node@U?$pair@QEAVRegexp@re2@@H@std@@PEAX@std@@@std@@V?$_Tree_val@U?$_Tree_simple_types@U?$pair@QEAVRegexp@re2@@H@std@@@std@@@2@$00@std@@QEAAAEAV?$allocator@U?$_Tree_node@U?$pair@QEAVRegexp@re2@@H@std@@PEAX@std@@@2@XZ
    ?_Get_first@?$_Compressed_pair@V?$allocator@U?$_Tree_node@U?$pair@QEAVRegexp@re2@@H@std@@PEAX@std@@@std@@V?$_Tree_val@U?$_Tree_simple_types@U?$pair@QEAVRegexp@re2@@H@std@@@std@@@2@$00@std@@QEBAAEBV?$allocator@U?$_Tree_node@U?$pair@QEAVRegexp@re2@@H@std@@PEAX@std@@@2@XZ
    ?_Get_first@?$_Compressed_pair@V?$allocator@U?$_Tree_node@URuneRange@re2@@PEAX@std@@@std@@V?$_Tree_val@U?$_Tree_simple_types@URuneRange@re2@@@std@@@2@$00@std@@QEAAAEAV?$allocator@U?$_Tree_node@URuneRange@re2@@PEAX@std@@@2@XZ
    ?_Get_first@?$_Compressed_pair@V?$allocator@U?$_Tree_node@URuneRange@re2@@PEAX@std@@@std@@V?$_Tree_val@U?$_Tree_simple_types@URuneRange@re2@@@std@@@2@$00@std@@QEBAAEBV?$allocator@U?$_Tree_node@URuneRange@re2@@PEAX@std@@@2@XZ
    ?_Get_first@?$_Compressed_pair@V?$allocator@U?$_Tree_node@V?$basic_string@DU?$char_traits@D@std@@V?$allocator@D@2@@std@@PEAX@std@@@std@@V?$_Tree_val@U?$_Tree_simple_types@V?$basic_string@DU?$char_traits@D@std@@V?$allocator@D@2@@std@@@std@@@2@$00@std@@QEAAAEAV?$allocator@U?$_Tree_node@V?$basic_string@DU?$char_traits@D@std@@V?$allocator@D@2@@std@@PEAX@std@@@2@XZ
    ?_Get_first@?$_Compressed_pair@V?$allocator@U?$_Tree_node@V?$basic_string@DU?$char_traits@D@std@@V?$allocator@D@2@@std@@PEAX@std@@@std@@V?$_Tree_val@U?$_Tree_simple_types@V?$basic_string@DU?$char_traits@D@std@@V?$allocator@D@2@@std@@@std@@@2@$00@std@@QEBAAEBV?$allocator@U?$_Tree_node@V?$basic_string@DU?$char_traits@D@std@@V?$allocator@D@2@@std@@PEAX@std@@@2@XZ
    ?_Get_first@?$_Compressed_pair@V?$allocator@U?$pair@HH@std@@@std@@V?$_Vector_val@U?$_Simple_types@U?$pair@HH@std@@@std@@@2@$00@std@@QEAAAEAV?$allocator@U?$pair@HH@std@@@2@XZ
    ?_Get_first@?$_Compressed_pair@V?$allocator@U?$pair@HH@std@@@std@@V?$_Vector_val@U?$_Simple_types@U?$pair@HH@std@@@std@@@2@$00@std@@QEBAAEBV?$allocator@U?$pair@HH@std@@@2@XZ
    ?_Get_first@?$_Compressed_pair@V?$allocator@U?$pair@V?$basic_string@DU?$char_traits@D@std@@V?$allocator@D@2@@std@@PEAVRegexp@re2@@@std@@@std@@V?$_Vector_val@U?$_Simple_types@U?$pair@V?$basic_string@DU?$char_traits@D@std@@V?$allocator@D@2@@std@@PEAVRegexp@re2@@@std@@@std@@@2@$00@std@@QEAAAEAV?$allocator@U?$pair@V?$basic_string@DU?$char_traits@D@std@@V?$allocator@D@2@@std@@PEAVRegexp@re2@@@std@@@2@XZ
    ?_Get_first@?$_Compressed_pair@V?$allocator@U?$pair@V?$basic_string@DU?$char_traits@D@std@@V?$allocator@D@2@@std@@PEAVRegexp@re2@@@std@@@std@@V?$_Vector_val@U?$_Simple_types@U?$pair@V?$basic_string@DU?$char_traits@D@std@@V?$allocator@D@2@@std@@PEAVRegexp@re2@@@std@@@std@@@2@$00@std@@QEBAAEBV?$allocator@U?$pair@V?$basic_string@DU?$char_traits@D@std@@V?$allocator@D@2@@std@@PEAVRegexp@re2@@@std@@@2@XZ
    ?_Get_first@?$_Compressed_pair@V?$allocator@UEntry@PrefilterTree@re2@@@std@@V?$_Vector_val@U?$_Simple_types@UEntry@PrefilterTree@re2@@@std@@@2@$00@std@@QEAAAEAV?$allocator@UEntry@PrefilterTree@re2@@@2@XZ
    ?_Get_first@?$_Compressed_pair@V?$allocator@UEntry@PrefilterTree@re2@@@std@@V?$_Vector_val@U?$_Simple_types@UEntry@PrefilterTree@re2@@@std@@@2@$00@std@@QEBAAEBV?$allocator@UEntry@PrefilterTree@re2@@@2@XZ
    ?_Get_first@?$_Compressed_pair@V?$allocator@UFrame@re2@@@std@@V?$_Vector_val@U?$_Simple_types@UFrame@re2@@@std@@@2@$00@std@@QEAAAEAV?$allocator@UFrame@re2@@@2@XZ
    ?_Get_first@?$_Compressed_pair@V?$allocator@UFrame@re2@@@std@@V?$_Vector_val@U?$_Simple_types@UFrame@re2@@@std@@@2@$00@std@@QEBAAEBV?$allocator@UFrame@re2@@@2@XZ
    ?_Get_first@?$_Compressed_pair@V?$allocator@URuneRange@re2@@@std@@V?$_Vector_val@U?$_Simple_types@URuneRange@re2@@@std@@@2@$00@std@@QEAAAEAV?$allocator@URuneRange@re2@@@2@XZ
    ?_Get_first@?$_Compressed_pair@V?$allocator@URuneRange@re2@@@std@@V?$_Vector_val@U?$_Simple_types@URuneRange@re2@@@std@@@2@$00@std@@QEBAAEBV?$allocator@URuneRange@re2@@@2@XZ
    ?_Get_first@?$_Compressed_pair@V?$allocator@USplice@re2@@@std@@V?$_Vector_val@U?$_Simple_types@USplice@re2@@@std@@@2@$00@std@@QEAAAEAV?$allocator@USplice@re2@@@2@XZ
    ?_Get_first@?$_Compressed_pair@V?$allocator@USplice@re2@@@std@@V?$_Vector_val@U?$_Simple_types@USplice@re2@@@std@@@2@$00@std@@QEBAAEBV?$allocator@USplice@re2@@@2@XZ
    ?_Get_first@?$_Compressed_pair@V?$allocator@UThread@NFA@re2@@@std@@V?$_Deque_val@U?$_Deque_simple_types@UThread@NFA@re2@@@std@@@2@$00@std@@QEAAAEAV?$allocator@UThread@NFA@re2@@@2@XZ
    ?_Get_first@?$_Compressed_pair@V?$allocator@UThread@NFA@re2@@@std@@V?$_Deque_val@U?$_Deque_simple_types@UThread@NFA@re2@@@std@@@2@$00@std@@QEBAAEBV?$allocator@UThread@NFA@re2@@@2@XZ
    ?_Get_first@?$_Compressed_pair@V?$allocator@V?$_List_unchecked_const_iterator@V?$_List_val@U?$_List_simple_types@PEAUState@DFA@re2@@@std@@@std@@U_Iterator_base0@2@@std@@@std@@V?$_Vector_val@U?$_Simple_types@V?$_List_unchecked_const_iterator@V?$_List_val@U?$_List_simple_types@PEAUState@DFA@re2@@@std@@@std@@U_Iterator_base0@2@@std@@@std@@@2@$00@std@@QEAAAEAV?$allocator@V?$_List_unchecked_const_iterator@V?$_List_val@U?$_List_simple_types@PEAUState@DFA@re2@@@std@@@std@@U_Iterator_base0@2@@std@@@2@XZ
    ?_Get_first@?$_Compressed_pair@V?$allocator@V?$_List_unchecked_const_iterator@V?$_List_val@U?$_List_simple_types@PEAUState@DFA@re2@@@std@@@std@@U_Iterator_base0@2@@std@@@std@@V?$_Vector_val@U?$_Simple_types@V?$_List_unchecked_const_iterator@V?$_List_val@U?$_List_simple_types@PEAUState@DFA@re2@@@std@@@std@@U_Iterator_base0@2@@std@@@std@@@2@$00@std@@QEBAAEBV?$allocator@V?$_List_unchecked_const_iterator@V?$_List_val@U?$_List_simple_types@PEAUState@DFA@re2@@@std@@@std@@U_Iterator_base0@2@@std@@@2@XZ
    ?_Get_first@?$_Compressed_pair@V?$allocator@V?$_List_unchecked_iterator@V?$_List_val@U?$_List_simple_types@U?$pair@$$CB_KH@std@@@std@@@std@@@std@@@std@@V?$_Vector_val@U?$_Simple_types@V?$_List_unchecked_iterator@V?$_List_val@U?$_List_simple_types@U?$pair@$$CB_KH@std@@@std@@@std@@@std@@@std@@@2@$00@std@@QEAAAEAV?$allocator@V?$_List_unchecked_iterator@V?$_List_val@U?$_List_simple_types@U?$pair@$$CB_KH@std@@@std@@@std@@@std@@@2@XZ
    ?_Get_first@?$_Compressed_pair@V?$allocator@V?$_List_unchecked_iterator@V?$_List_val@U?$_List_simple_types@U?$pair@$$CB_KH@std@@@std@@@std@@@std@@@std@@V?$_Vector_val@U?$_Simple_types@V?$_List_unchecked_iterator@V?$_List_val@U?$_List_simple_types@U?$pair@$$CB_KH@std@@@std@@@std@@@std@@@std@@@2@$00@std@@QEBAAEBV?$allocator@V?$_List_unchecked_iterator@V?$_List_val@U?$_List_simple_types@U?$pair@$$CB_KH@std@@@std@@@std@@@std@@@2@XZ
    ?_Get_first@?$_Compressed_pair@V?$allocator@V?$_List_unchecked_iterator@V?$_List_val@U?$_List_simple_types@U?$pair@QEAUState@DFA@re2@@H@std@@@std@@@std@@@std@@@std@@V?$_Vector_val@U?$_Simple_types@V?$_List_unchecked_iterator@V?$_List_val@U?$_List_simple_types@U?$pair@QEAUState@DFA@re2@@H@std@@@std@@@std@@@std@@@std@@@2@$00@std@@QEAAAEAV?$allocator@V?$_List_unchecked_iterator@V?$_List_val@U?$_List_simple_types@U?$pair@QEAUState@DFA@re2@@H@std@@@std@@@std@@@std@@@2@XZ
    ?_Get_first@?$_Compressed_pair@V?$allocator@V?$_List_unchecked_iterator@V?$_List_val@U?$_List_simple_types@U?$pair@QEAUState@DFA@re2@@H@std@@@std@@@std@@@std@@@std@@V?$_Vector_val@U?$_Simple_types@V?$_List_unchecked_iterator@V?$_List_val@U?$_List_simple_types@U?$pair@QEAUState@DFA@re2@@H@std@@@std@@@std@@@std@@@std@@@2@$00@std@@QEBAAEBV?$allocator@V?$_List_unchecked_iterator@V?$_List_val@U?$_List_simple_types@U?$pair@QEAUState@DFA@re2@@H@std@@@std@@@std@@@std@@@2@XZ
    ?_Get_first@?$_Compressed_pair@V?$allocator@V?$basic_string@DU?$char_traits@D@std@@V?$allocator@D@2@@std@@@std@@V?$_Vector_val@U?$_Simple_types@V?$basic_string@DU?$char_traits@D@std@@V?$allocator@D@2@@std@@@std@@@2@$00@std@@QEAAAEAV?$allocator@V?$basic_string@DU?$char_traits@D@std@@V?$allocator@D@2@@std@@@2@XZ
    ?_Get_first@?$_Compressed_pair@V?$allocator@V?$basic_string@DU?$char_traits@D@std@@V?$allocator@D@2@@std@@@std@@V?$_Vector_val@U?$_Simple_types@V?$basic_string@DU?$char_traits@D@std@@V?$allocator@D@2@@std@@@std@@@2@$00@std@@QEBAAEBV?$allocator@V?$basic_string@DU?$char_traits@D@std@@V?$allocator@D@2@@std@@@2@XZ
    ?_Get_first@?$_Compressed_pair@V?$allocator@V?$vector@HV?$allocator@H@std@@@std@@@std@@V?$_Vector_val@U?$_Simple_types@V?$vector@HV?$allocator@H@std@@@std@@@std@@@2@$00@std@@QEAAAEAV?$allocator@V?$vector@HV?$allocator@H@std@@@std@@@2@XZ
    ?_Get_first@?$_Compressed_pair@V?$allocator@V?$vector@HV?$allocator@H@std@@@std@@@std@@V?$_Vector_val@U?$_Simple_types@V?$vector@HV?$allocator@H@std@@@std@@@std@@@2@$00@std@@QEBAAEBV?$allocator@V?$vector@HV?$allocator@H@std@@@std@@@2@XZ
    ?_Get_first@?$_Compressed_pair@V?$allocator@VInst@Prog@re2@@@std@@V?$_Vector_val@U?$_Simple_types@VInst@Prog@re2@@@std@@@2@$00@std@@QEAAAEAV?$allocator@VInst@Prog@re2@@@2@XZ
    ?_Get_first@?$_Compressed_pair@V?$allocator@VInst@Prog@re2@@@std@@V?$_Vector_val@U?$_Simple_types@VInst@Prog@re2@@@std@@@2@$00@std@@QEBAAEBV?$allocator@VInst@Prog@re2@@@2@XZ
    ?_Get_max_bucket_size@?$_Uhash_compare@PEAUState@DFA@re2@@U?$hash@PEAUState@DFA@re2@@@std@@U?$equal_to@PEAUState@DFA@re2@@@5@@std@@QEAAAEAMXZ
    ?_Get_max_bucket_size@?$_Uhash_compare@PEAUState@DFA@re2@@U?$hash@PEAUState@DFA@re2@@@std@@U?$equal_to@PEAUState@DFA@re2@@@5@@std@@QEBAAEBMXZ
    ?_Get_max_bucket_size@?$_Uhash_compare@PEAUState@DFA@re2@@UStateHash@23@UStateEqual@23@@std@@QEAAAEAMXZ
    ?_Get_max_bucket_size@?$_Uhash_compare@PEAUState@DFA@re2@@UStateHash@23@UStateEqual@23@@std@@QEBAAEBMXZ
    ?_Get_max_bucket_size@?$_Uhash_compare@_KU?$hash@_K@std@@U?$equal_to@_K@2@@std@@QEAAAEAMXZ
    ?_Get_max_bucket_size@?$_Uhash_compare@_KU?$hash@_K@std@@U?$equal_to@_K@2@@std@@QEBAAEBMXZ
    ?_Get_scary@?$_Tree@V?$_Tmap_traits@HHU?$less@H@std@@V?$allocator@U?$pair@$$CBHH@std@@@2@$0A@@std@@@std@@IEAAPEAV?$_Tree_val@U?$_Tree_simple_types@U?$pair@$$CBHH@std@@@std@@@2@XZ
    ?_Get_scary@?$_Tree@V?$_Tmap_traits@HHU?$less@H@std@@V?$allocator@U?$pair@$$CBHH@std@@@2@$0A@@std@@@std@@IEBAPEBV?$_Tree_val@U?$_Tree_simple_types@U?$pair@$$CBHH@std@@@std@@@2@XZ
    ?_Get_scary@?$_Tree@V?$_Tmap_traits@HV?$basic_string@DU?$char_traits@D@std@@V?$allocator@D@2@@std@@U?$less@H@2@V?$allocator@U?$pair@$$CBHV?$basic_string@DU?$char_traits@D@std@@V?$allocator@D@2@@std@@@std@@@2@$0A@@std@@@std@@IEAAPEAV?$_Tree_val@U?$_Tree_simple_types@U?$pair@$$CBHV?$basic_string@DU?$char_traits@D@std@@V?$allocator@D@2@@std@@@std@@@std@@@2@XZ
    ?_Get_scary@?$_Tree@V?$_Tmap_traits@HV?$basic_string@DU?$char_traits@D@std@@V?$allocator@D@2@@std@@U?$less@H@2@V?$allocator@U?$pair@$$CBHV?$basic_string@DU?$char_traits@D@std@@V?$allocator@D@2@@std@@@std@@@2@$0A@@std@@@std@@IEBAPEBV?$_Tree_val@U?$_Tree_simple_types@U?$pair@$$CBHV?$basic_string@DU?$char_traits@D@std@@V?$allocator@D@2@@std@@@std@@@std@@@2@XZ
    ?_Get_scary@?$_Tree@V?$_Tmap_traits@PEAVRegexp@re2@@HU?$less@PEAVRegexp@re2@@@std@@V?$allocator@U?$pair@QEAVRegexp@re2@@H@std@@@4@$0A@@std@@@std@@IEAAPEAV?$_Tree_val@U?$_Tree_simple_types@U?$pair@QEAVRegexp@re2@@H@std@@@std@@@2@XZ
    ?_Get_scary@?$_Tree@V?$_Tmap_traits@PEAVRegexp@re2@@HU?$less@PEAVRegexp@re2@@@std@@V?$allocator@U?$pair@QEAVRegexp@re2@@H@std@@@4@$0A@@std@@@std@@IEBAPEBV?$_Tree_val@U?$_Tree_simple_types@U?$pair@QEAVRegexp@re2@@H@std@@@std@@@2@XZ
    ?_Get_scary@?$_Tree@V?$_Tmap_traits@V?$basic_string@DU?$char_traits@D@std@@V?$allocator@D@2@@std@@HU?$less@V?$basic_string@DU?$char_traits@D@std@@V?$allocator@D@2@@std@@@2@V?$allocator@U?$pair@$$CBV?$basic_string@DU?$char_traits@D@std@@V?$allocator@D@2@@std@@H@std@@@2@$0A@@std@@@std@@IEAAPEAV?$_Tree_val@U?$_Tree_simple_types@U?$pair@$$CBV?$basic_string@DU?$char_traits@D@std@@V?$allocator@D@2@@std@@H@std@@@std@@@2@XZ
    ?_Get_scary@?$_Tree@V?$_Tmap_traits@V?$basic_string@DU?$char_traits@D@std@@V?$allocator@D@2@@std@@HU?$less@V?$basic_string@DU?$char_traits@D@std@@V?$allocator@D@2@@std@@@2@V?$allocator@U?$pair@$$CBV?$basic_string@DU?$char_traits@D@std@@V?$allocator@D@2@@std@@H@std@@@2@$0A@@std@@@std@@IEBAPEBV?$_Tree_val@U?$_Tree_simple_types@U?$pair@$$CBV?$basic_string@DU?$char_traits@D@std@@V?$allocator@D@2@@std@@H@std@@@std@@@2@XZ
    ?_Get_scary@?$_Tree@V?$_Tmap_traits@V?$basic_string@DU?$char_traits@D@std@@V?$allocator@D@2@@std@@PEAVPrefilter@re2@@U?$less@V?$basic_string@DU?$char_traits@D@std@@V?$allocator@D@2@@std@@@2@V?$allocator@U?$pair@$$CBV?$basic_string@DU?$char_traits@D@std@@V?$allocator@D@2@@std@@PEAVPrefilter@re2@@@std@@@2@$0A@@std@@@std@@IEAAPEAV?$_Tree_val@U?$_Tree_simple_types@U?$pair@$$CBV?$basic_string@DU?$char_traits@D@std@@V?$allocator@D@2@@std@@PEAVPrefilter@re2@@@std@@@std@@@2@XZ
    ?_Get_scary@?$_Tree@V?$_Tmap_traits@V?$basic_string@DU?$char_traits@D@std@@V?$allocator@D@2@@std@@PEAVPrefilter@re2@@U?$less@V?$basic_string@DU?$char_traits@D@std@@V?$allocator@D@2@@std@@@2@V?$allocator@U?$pair@$$CBV?$basic_string@DU?$char_traits@D@std@@V?$allocator@D@2@@std@@PEAVPrefilter@re2@@@std@@@2@$0A@@std@@@std@@IEBAPEBV?$_Tree_val@U?$_Tree_simple_types@U?$pair@$$CBV?$basic_string@DU?$char_traits@D@std@@V?$allocator@D@2@@std@@PEAVPrefilter@re2@@@std@@@std@@@2@XZ
    ?_Get_scary@?$_Tree@V?$_Tset_traits@HU?$less@H@std@@V?$allocator@H@2@$0A@@std@@@std@@IEAAPEAV?$_Tree_val@U?$_Tree_simple_types@H@std@@@2@XZ
    ?_Get_scary@?$_Tree@V?$_Tset_traits@HU?$less@H@std@@V?$allocator@H@2@$0A@@std@@@std@@IEBAPEBV?$_Tree_val@U?$_Tree_simple_types@H@std@@@2@XZ
    ?_Get_scary@?$_Tree@V?$_Tset_traits@URuneRange@re2@@URuneRangeLess@2@V?$allocator@URuneRange@re2@@@std@@$0A@@std@@@std@@IEAAPEAV?$_Tree_val@U?$_Tree_simple_types@URuneRange@re2@@@std@@@2@XZ
    ?_Get_scary@?$_Tree@V?$_Tset_traits@URuneRange@re2@@URuneRangeLess@2@V?$allocator@URuneRange@re2@@@std@@$0A@@std@@@std@@IEBAPEBV?$_Tree_val@U?$_Tree_simple_types@URuneRange@re2@@@std@@@2@XZ
    ?_Get_scary@?$_Tree@V?$_Tset_traits@V?$basic_string@DU?$char_traits@D@std@@V?$allocator@D@2@@std@@U?$less@V?$basic_string@DU?$char_traits@D@std@@V?$allocator@D@2@@std@@@2@V?$allocator@V?$basic_string@DU?$char_traits@D@std@@V?$allocator@D@2@@std@@@2@$0A@@std@@@std@@IEAAPEAV?$_Tree_val@U?$_Tree_simple_types@V?$basic_string@DU?$char_traits@D@std@@V?$allocator@D@2@@std@@@std@@@2@XZ
    ?_Get_scary@?$_Tree@V?$_Tset_traits@V?$basic_string@DU?$char_traits@D@std@@V?$allocator@D@2@@std@@U?$less@V?$basic_string@DU?$char_traits@D@std@@V?$allocator@D@2@@std@@@2@V?$allocator@V?$basic_string@DU?$char_traits@D@std@@V?$allocator@D@2@@std@@@2@$0A@@std@@@std@@IEBAPEBV?$_Tree_val@U?$_Tree_simple_types@V?$basic_string@DU?$char_traits@D@std@@V?$allocator@D@2@@std@@@std@@@2@XZ
    ?_Getal@?$_Tree@V?$_Tmap_traits@HHU?$less@H@std@@V?$allocator@U?$pair@$$CBHH@std@@@2@$0A@@std@@@std@@IEAAAEAV?$allocator@U?$_Tree_node@U?$pair@$$CBHH@std@@PEAX@std@@@2@XZ
    ?_Getal@?$_Tree@V?$_Tmap_traits@HHU?$less@H@std@@V?$allocator@U?$pair@$$CBHH@std@@@2@$0A@@std@@@std@@IEBAAEBV?$allocator@U?$_Tree_node@U?$pair@$$CBHH@std@@PEAX@std@@@2@XZ
    ?_Getal@?$_Tree@V?$_Tmap_traits@HV?$basic_string@DU?$char_traits@D@std@@V?$allocator@D@2@@std@@U?$less@H@2@V?$allocator@U?$pair@$$CBHV?$basic_string@DU?$char_traits@D@std@@V?$allocator@D@2@@std@@@std@@@2@$0A@@std@@@std@@IEAAAEAV?$allocator@U?$_Tree_node@U?$pair@$$CBHV?$basic_string@DU?$char_traits@D@std@@V?$allocator@D@2@@std@@@std@@PEAX@std@@@2@XZ
    ?_Getal@?$_Tree@V?$_Tmap_traits@HV?$basic_string@DU?$char_traits@D@std@@V?$allocator@D@2@@std@@U?$less@H@2@V?$allocator@U?$pair@$$CBHV?$basic_string@DU?$char_traits@D@std@@V?$allocator@D@2@@std@@@std@@@2@$0A@@std@@@std@@IEBAAEBV?$allocator@U?$_Tree_node@U?$pair@$$CBHV?$basic_string@DU?$char_traits@D@std@@V?$allocator@D@2@@std@@@std@@PEAX@std@@@2@XZ
    ?_Getal@?$_Tree@V?$_Tmap_traits@PEAVRegexp@re2@@HU?$less@PEAVRegexp@re2@@@std@@V?$allocator@U?$pair@QEAVRegexp@re2@@H@std@@@4@$0A@@std@@@std@@IEAAAEAV?$allocator@U?$_Tree_node@U?$pair@QEAVRegexp@re2@@H@std@@PEAX@std@@@2@XZ
    ?_Getal@?$_Tree@V?$_Tmap_traits@PEAVRegexp@re2@@HU?$less@PEAVRegexp@re2@@@std@@V?$allocator@U?$pair@QEAVRegexp@re2@@H@std@@@4@$0A@@std@@@std@@IEBAAEBV?$allocator@U?$_Tree_node@U?$pair@QEAVRegexp@re2@@H@std@@PEAX@std@@@2@XZ
    ?_Getal@?$_Tree@V?$_Tmap_traits@V?$basic_string@DU?$char_traits@D@std@@V?$allocator@D@2@@std@@HU?$less@V?$basic_string@DU?$char_traits@D@std@@V?$allocator@D@2@@std@@@2@V?$allocator@U?$pair@$$CBV?$basic_string@DU?$char_traits@D@std@@V?$allocator@D@2@@std@@H@std@@@2@$0A@@std@@@std@@IEAAAEAV?$allocator@U?$_Tree_node@U?$pair@$$CBV?$basic_string@DU?$char_traits@D@std@@V?$allocator@D@2@@std@@H@std@@PEAX@std@@@2@XZ
    ?_Getal@?$_Tree@V?$_Tmap_traits@V?$basic_string@DU?$char_traits@D@std@@V?$allocator@D@2@@std@@HU?$less@V?$basic_string@DU?$char_traits@D@std@@V?$allocator@D@2@@std@@@2@V?$allocator@U?$pair@$$CBV?$basic_string@DU?$char_traits@D@std@@V?$allocator@D@2@@std@@H@std@@@2@$0A@@std@@@std@@IEBAAEBV?$allocator@U?$_Tree_node@U?$pair@$$CBV?$basic_string@DU?$char_traits@D@std@@V?$allocator@D@2@@std@@H@std@@PEAX@std@@@2@XZ
    ?_Getal@?$_Tree@V?$_Tmap_traits@V?$basic_string@DU?$char_traits@D@std@@V?$allocator@D@2@@std@@PEAVPrefilter@re2@@U?$less@V?$basic_string@DU?$char_traits@D@std@@V?$allocator@D@2@@std@@@2@V?$allocator@U?$pair@$$CBV?$basic_string@DU?$char_traits@D@std@@V?$allocator@D@2@@std@@PEAVPrefilter@re2@@@std@@@2@$0A@@std@@@std@@IEAAAEAV?$allocator@U?$_Tree_node@U?$pair@$$CBV?$basic_string@DU?$char_traits@D@std@@V?$allocator@D@2@@std@@PEAVPrefilter@re2@@@std@@PEAX@std@@@2@XZ
    ?_Getal@?$_Tree@V?$_Tmap_traits@V?$basic_string@DU?$char_traits@D@std@@V?$allocator@D@2@@std@@PEAVPrefilter@re2@@U?$less@V?$basic_string@DU?$char_traits@D@std@@V?$allocator@D@2@@std@@@2@V?$allocator@U?$pair@$$CBV?$basic_string@DU?$char_traits@D@std@@V?$allocator@D@2@@std@@PEAVPrefilter@re2@@@std@@@2@$0A@@std@@@std@@IEBAAEBV?$allocator@U?$_Tree_node@U?$pair@$$CBV?$basic_string@DU?$char_traits@D@std@@V?$allocator@D@2@@std@@PEAVPrefilter@re2@@@std@@PEAX@std@@@2@XZ
    ?_Getal@?$_Tree@V?$_Tset_traits@HU?$less@H@std@@V?$allocator@H@2@$0A@@std@@@std@@IEAAAEAV?$allocator@U?$_Tree_node@HPEAX@std@@@2@XZ
    ?_Getal@?$_Tree@V?$_Tset_traits@HU?$less@H@std@@V?$allocator@H@2@$0A@@std@@@std@@IEBAAEBV?$allocator@U?$_Tree_node@HPEAX@std@@@2@XZ
    ?_Getal@?$_Tree@V?$_Tset_traits@URuneRange@re2@@URuneRangeLess@2@V?$allocator@URuneRange@re2@@@std@@$0A@@std@@@std@@IEAAAEAV?$allocator@U?$_Tree_node@URuneRange@re2@@PEAX@std@@@2@XZ
    ?_Getal@?$_Tree@V?$_Tset_traits@URuneRange@re2@@URuneRangeLess@2@V?$allocator@URuneRange@re2@@@std@@$0A@@std@@@std@@IEBAAEBV?$allocator@U?$_Tree_node@URuneRange@re2@@PEAX@std@@@2@XZ
    ?_Getal@?$_Tree@V?$_Tset_traits@V?$basic_string@DU?$char_traits@D@std@@V?$allocator@D@2@@std@@U?$less@V?$basic_string@DU?$char_traits@D@std@@V?$allocator@D@2@@std@@@2@V?$allocator@V?$basic_string@DU?$char_traits@D@std@@V?$allocator@D@2@@std@@@2@$0A@@std@@@std@@IEAAAEAV?$allocator@U?$_Tree_node@V?$basic_string@DU?$char_traits@D@std@@V?$allocator@D@2@@std@@PEAX@std@@@2@XZ
    ?_Getal@?$_Tree@V?$_Tset_traits@V?$basic_string@DU?$char_traits@D@std@@V?$allocator@D@2@@std@@U?$less@V?$basic_string@DU?$char_traits@D@std@@V?$allocator@D@2@@std@@@2@V?$allocator@V?$basic_string@DU?$char_traits@D@std@@V?$allocator@D@2@@std@@@2@$0A@@std@@@std@@IEBAAEBV?$allocator@U?$_Tree_node@V?$basic_string@DU?$char_traits@D@std@@V?$allocator@D@2@@std@@PEAX@std@@@2@XZ
    ?_Getal@?$basic_string@DU?$char_traits@D@std@@V?$allocator@D@2@@std@@AEAAAEAV?$allocator@D@2@XZ
    ?_Getal@?$basic_string@DU?$char_traits@D@std@@V?$allocator@D@2@@std@@AEBAAEBV?$allocator@D@2@XZ
    ?_Getal@?$deque@PEAUState@DFA@re2@@V?$allocator@PEAUState@DFA@re2@@@std@@@std@@AEAAAEAV?$allocator@PEAUState@DFA@re2@@@2@XZ
    ?_Getal@?$deque@PEAUState@DFA@re2@@V?$allocator@PEAUState@DFA@re2@@@std@@@std@@AEBAAEBV?$allocator@PEAUState@DFA@re2@@@2@XZ
    ?_Getal@?$deque@U?$WalkState@H@re2@@V?$allocator@U?$WalkState@H@re2@@@std@@@std@@AEAAAEAV?$allocator@U?$WalkState@H@re2@@@2@XZ
    ?_Getal@?$deque@U?$WalkState@H@re2@@V?$allocator@U?$WalkState@H@re2@@@std@@@std@@AEBAAEBV?$allocator@U?$WalkState@H@re2@@@2@XZ
    ?_Getal@?$deque@U?$WalkState@PEAVInfo@Prefilter@re2@@@re2@@V?$allocator@U?$WalkState@PEAVInfo@Prefilter@re2@@@re2@@@std@@@std@@AEAAAEAV?$allocator@U?$WalkState@PEAVInfo@Prefilter@re2@@@re2@@@2@XZ
    ?_Getal@?$deque@U?$WalkState@PEAVInfo@Prefilter@re2@@@re2@@V?$allocator@U?$WalkState@PEAVInfo@Prefilter@re2@@@re2@@@std@@@std@@AEBAAEBV?$allocator@U?$WalkState@PEAVInfo@Prefilter@re2@@@re2@@@2@XZ
    ?_Getal@?$deque@U?$WalkState@PEAVRegexp@re2@@@re2@@V?$allocator@U?$WalkState@PEAVRegexp@re2@@@re2@@@std@@@std@@AEAAAEAV?$allocator@U?$WalkState@PEAVRegexp@re2@@@re2@@@2@XZ
    ?_Getal@?$deque@U?$WalkState@PEAVRegexp@re2@@@re2@@V?$allocator@U?$WalkState@PEAVRegexp@re2@@@re2@@@std@@@std@@AEBAAEBV?$allocator@U?$WalkState@PEAVRegexp@re2@@@re2@@@2@XZ
    ?_Getal@?$deque@U?$WalkState@UFrag@re2@@@re2@@V?$allocator@U?$WalkState@UFrag@re2@@@re2@@@std@@@std@@AEAAAEAV?$allocator@U?$WalkState@UFrag@re2@@@re2@@@2@XZ
    ?_Getal@?$deque@U?$WalkState@UFrag@re2@@@re2@@V?$allocator@U?$WalkState@UFrag@re2@@@re2@@@std@@@std@@AEBAAEBV?$allocator@U?$WalkState@UFrag@re2@@@re2@@@2@XZ
    ?_Getal@?$deque@U?$WalkState@_N@re2@@V?$allocator@U?$WalkState@_N@re2@@@std@@@std@@AEAAAEAV?$allocator@U?$WalkState@_N@re2@@@2@XZ
    ?_Getal@?$deque@U?$WalkState@_N@re2@@V?$allocator@U?$WalkState@_N@re2@@@std@@@std@@AEBAAEBV?$allocator@U?$WalkState@_N@re2@@@2@XZ
    ?_Getal@?$deque@UThread@NFA@re2@@V?$allocator@UThread@NFA@re2@@@std@@@std@@AEAAAEAV?$allocator@UThread@NFA@re2@@@2@XZ
    ?_Getal@?$deque@UThread@NFA@re2@@V?$allocator@UThread@NFA@re2@@@std@@@std@@AEBAAEBV?$allocator@UThread@NFA@re2@@@2@XZ
    ?_Getal@?$list@PEAUState@DFA@re2@@V?$allocator@PEAUState@DFA@re2@@@std@@@std@@AEAAAEAV?$allocator@U?$_List_node@PEAUState@DFA@re2@@PEAX@std@@@2@XZ
    ?_Getal@?$list@PEAUState@DFA@re2@@V?$allocator@PEAUState@DFA@re2@@@std@@@std@@AEBAAEBV?$allocator@U?$_List_node@PEAUState@DFA@re2@@PEAX@std@@@2@XZ
    ?_Getal@?$list@U?$pair@$$CB_KH@std@@V?$allocator@U?$pair@$$CB_KH@std@@@2@@std@@AEAAAEAV?$allocator@U?$_List_node@U?$pair@$$CB_KH@std@@PEAX@std@@@2@XZ
    ?_Getal@?$list@U?$pair@$$CB_KH@std@@V?$allocator@U?$pair@$$CB_KH@std@@@2@@std@@AEBAAEBV?$allocator@U?$_List_node@U?$pair@$$CB_KH@std@@PEAX@std@@@2@XZ
    ?_Getal@?$list@U?$pair@QEAUState@DFA@re2@@H@std@@V?$allocator@U?$pair@QEAUState@DFA@re2@@H@std@@@2@@std@@AEAAAEAV?$allocator@U?$_List_node@U?$pair@QEAUState@DFA@re2@@H@std@@PEAX@std@@@2@XZ
    ?_Getal@?$list@U?$pair@QEAUState@DFA@re2@@H@std@@V?$allocator@U?$pair@QEAUState@DFA@re2@@H@std@@@2@@std@@AEBAAEBV?$allocator@U?$_List_node@U?$pair@QEAUState@DFA@re2@@H@std@@PEAX@std@@@2@XZ
    ?_Getal@?$vector@EV?$allocator@E@std@@@std@@AEAAAEAV?$allocator@E@2@XZ
    ?_Getal@?$vector@EV?$allocator@E@std@@@std@@AEBAAEBV?$allocator@E@2@XZ
    ?_Getal@?$vector@HV?$allocator@H@std@@@std@@AEAAAEAV?$allocator@H@2@XZ
    ?_Getal@?$vector@HV?$allocator@H@std@@@std@@AEBAAEBV?$allocator@H@2@XZ
    ?_Getal@?$vector@PEAVPrefilter@re2@@V?$allocator@PEAVPrefilter@re2@@@std@@@std@@AEAAAEAV?$allocator@PEAVPrefilter@re2@@@2@XZ
    ?_Getal@?$vector@PEAVPrefilter@re2@@V?$allocator@PEAVPrefilter@re2@@@std@@@std@@AEBAAEBV?$allocator@PEAVPrefilter@re2@@@2@XZ
    ?_Getal@?$vector@PEAVRE2@re2@@V?$allocator@PEAVRE2@re2@@@std@@@std@@AEAAAEAV?$allocator@PEAVRE2@re2@@@2@XZ
    ?_Getal@?$vector@PEAVRE2@re2@@V?$allocator@PEAVRE2@re2@@@std@@@std@@AEBAAEBV?$allocator@PEAVRE2@re2@@@2@XZ
    ?_Getal@?$vector@PEAVRegexp@re2@@V?$allocator@PEAVRegexp@re2@@@std@@@std@@AEAAAEAV?$allocator@PEAVRegexp@re2@@@2@XZ
    ?_Getal@?$vector@PEAVRegexp@re2@@V?$allocator@PEAVRegexp@re2@@@std@@@std@@AEBAAEBV?$allocator@PEAVRegexp@re2@@@2@XZ
    ?_Getal@?$vector@U?$pair@HH@std@@V?$allocator@U?$pair@HH@std@@@2@@std@@AEAAAEAV?$allocator@U?$pair@HH@std@@@2@XZ
    ?_Getal@?$vector@U?$pair@HH@std@@V?$allocator@U?$pair@HH@std@@@2@@std@@AEBAAEBV?$allocator@U?$pair@HH@std@@@2@XZ
    ?_Getal@?$vector@U?$pair@V?$basic_string@DU?$char_traits@D@std@@V?$allocator@D@2@@std@@PEAVRegexp@re2@@@std@@V?$allocator@U?$pair@V?$basic_string@DU?$char_traits@D@std@@V?$allocator@D@2@@std@@PEAVRegexp@re2@@@std@@@2@@std@@AEAAAEAV?$allocator@U?$pair@V?$basic_string@DU?$char_traits@D@std@@V?$allocator@D@2@@std@@PEAVRegexp@re2@@@std@@@2@XZ
    ?_Getal@?$vector@U?$pair@V?$basic_string@DU?$char_traits@D@std@@V?$allocator@D@2@@std@@PEAVRegexp@re2@@@std@@V?$allocator@U?$pair@V?$basic_string@DU?$char_traits@D@std@@V?$allocator@D@2@@std@@PEAVRegexp@re2@@@std@@@2@@std@@AEBAAEBV?$allocator@U?$pair@V?$basic_string@DU?$char_traits@D@std@@V?$allocator@D@2@@std@@PEAVRegexp@re2@@@std@@@2@XZ
    ?_Getal@?$vector@UEntry@PrefilterTree@re2@@V?$allocator@UEntry@PrefilterTree@re2@@@std@@@std@@AEAAAEAV?$allocator@UEntry@PrefilterTree@re2@@@2@XZ
    ?_Getal@?$vector@UEntry@PrefilterTree@re2@@V?$allocator@UEntry@PrefilterTree@re2@@@std@@@std@@AEBAAEBV?$allocator@UEntry@PrefilterTree@re2@@@2@XZ
    ?_Getal@?$vector@UFrame@re2@@V?$allocator@UFrame@re2@@@std@@@std@@AEAAAEAV?$allocator@UFrame@re2@@@2@XZ
    ?_Getal@?$vector@UFrame@re2@@V?$allocator@UFrame@re2@@@std@@@std@@AEBAAEBV?$allocator@UFrame@re2@@@2@XZ
    ?_Getal@?$vector@URuneRange@re2@@V?$allocator@URuneRange@re2@@@std@@@std@@AEAAAEAV?$allocator@URuneRange@re2@@@2@XZ
    ?_Getal@?$vector@URuneRange@re2@@V?$allocator@URuneRange@re2@@@std@@@std@@AEBAAEBV?$allocator@URuneRange@re2@@@2@XZ
    ?_Getal@?$vector@USplice@re2@@V?$allocator@USplice@re2@@@std@@@std@@AEAAAEAV?$allocator@USplice@re2@@@2@XZ
    ?_Getal@?$vector@USplice@re2@@V?$allocator@USplice@re2@@@std@@@std@@AEBAAEBV?$allocator@USplice@re2@@@2@XZ
    ?_Getal@?$vector@V?$basic_string@DU?$char_traits@D@std@@V?$allocator@D@2@@std@@V?$allocator@V?$basic_string@DU?$char_traits@D@std@@V?$allocator@D@2@@std@@@2@@std@@AEAAAEAV?$allocator@V?$basic_string@DU?$char_traits@D@std@@V?$allocator@D@2@@std@@@2@XZ
    ?_Getal@?$vector@V?$basic_string@DU?$char_traits@D@std@@V?$allocator@D@2@@std@@V?$allocator@V?$basic_string@DU?$char_traits@D@std@@V?$allocator@D@2@@std@@@2@@std@@AEBAAEBV?$allocator@V?$basic_string@DU?$char_traits@D@std@@V?$allocator@D@2@@std@@@2@XZ
    ?_Getal@?$vector@V?$vector@HV?$allocator@H@std@@@std@@V?$allocator@V?$vector@HV?$allocator@H@std@@@std@@@2@@std@@AEAAAEAV?$allocator@V?$vector@HV?$allocator@H@std@@@std@@@2@XZ
    ?_Getal@?$vector@V?$vector@HV?$allocator@H@std@@@std@@V?$allocator@V?$vector@HV?$allocator@H@std@@@std@@@2@@std@@AEBAAEBV?$allocator@V?$vector@HV?$allocator@H@std@@@std@@@2@XZ
    ?_Getal@?$vector@VInst@Prog@re2@@V?$allocator@VInst@Prog@re2@@@std@@@std@@AEAAAEAV?$allocator@VInst@Prog@re2@@@2@XZ
    ?_Getal@?$vector@VInst@Prog@re2@@V?$allocator@VInst@Prog@re2@@@std@@@std@@AEBAAEBV?$allocator@VInst@Prog@re2@@@2@XZ
    ?_Getblock@?$_Deque_val@U?$_Deque_simple_types@PEAUState@DFA@re2@@@std@@@std@@QEBA_K_K@Z
    ?_Getblock@?$_Deque_val@U?$_Deque_simple_types@U?$WalkState@H@re2@@@std@@@std@@QEBA_K_K@Z
    ?_Getblock@?$_Deque_val@U?$_Deque_simple_types@U?$WalkState@PEAVInfo@Prefilter@re2@@@re2@@@std@@@std@@QEBA_K_K@Z
    ?_Getblock@?$_Deque_val@U?$_Deque_simple_types@U?$WalkState@PEAVRegexp@re2@@@re2@@@std@@@std@@QEBA_K_K@Z
    ?_Getblock@?$_Deque_val@U?$_Deque_simple_types@U?$WalkState@UFrag@re2@@@re2@@@std@@@std@@QEBA_K_K@Z
    ?_Getblock@?$_Deque_val@U?$_Deque_simple_types@U?$WalkState@_N@re2@@@std@@@std@@QEBA_K_K@Z
    ?_Getblock@?$_Deque_val@U?$_Deque_simple_types@UThread@NFA@re2@@@std@@@std@@QEBA_K_K@Z
    ?_Getblock@?$deque@PEAUState@DFA@re2@@V?$allocator@PEAUState@DFA@re2@@@std@@@std@@AEBA_K_K@Z
    ?_Getblock@?$deque@U?$WalkState@H@re2@@V?$allocator@U?$WalkState@H@re2@@@std@@@std@@AEBA_K_K@Z
    ?_Getblock@?$deque@U?$WalkState@PEAVInfo@Prefilter@re2@@@re2@@V?$allocator@U?$WalkState@PEAVInfo@Prefilter@re2@@@re2@@@std@@@std@@AEBA_K_K@Z
    ?_Getblock@?$deque@U?$WalkState@PEAVRegexp@re2@@@re2@@V?$allocator@U?$WalkState@PEAVRegexp@re2@@@re2@@@std@@@std@@AEBA_K_K@Z
    ?_Getblock@?$deque@U?$WalkState@UFrag@re2@@@re2@@V?$allocator@U?$WalkState@UFrag@re2@@@re2@@@std@@@std@@AEBA_K_K@Z
    ?_Getblock@?$deque@U?$WalkState@_N@re2@@V?$allocator@U?$WalkState@_N@re2@@@std@@@std@@AEBA_K_K@Z
    ?_Getblock@?$deque@UThread@NFA@re2@@V?$allocator@UThread@NFA@re2@@@std@@@std@@AEBA_K_K@Z
    ?_Getcomp@?$_Tree@V?$_Tmap_traits@HHU?$less@H@std@@V?$allocator@U?$pair@$$CBHH@std@@@2@$0A@@std@@@std@@IEBAAEBU?$less@H@2@XZ
    ?_Getcomp@?$_Tree@V?$_Tmap_traits@HV?$basic_string@DU?$char_traits@D@std@@V?$allocator@D@2@@std@@U?$less@H@2@V?$allocator@U?$pair@$$CBHV?$basic_string@DU?$char_traits@D@std@@V?$allocator@D@2@@std@@@std@@@2@$0A@@std@@@std@@IEBAAEBU?$less@H@2@XZ
    ?_Getcomp@?$_Tree@V?$_Tmap_traits@PEAVRegexp@re2@@HU?$less@PEAVRegexp@re2@@@std@@V?$allocator@U?$pair@QEAVRegexp@re2@@H@std@@@4@$0A@@std@@@std@@IEBAAEBU?$less@PEAVRegexp@re2@@@2@XZ
    ?_Getcomp@?$_Tree@V?$_Tmap_traits@V?$basic_string@DU?$char_traits@D@std@@V?$allocator@D@2@@std@@HU?$less@V?$basic_string@DU?$char_traits@D@std@@V?$allocator@D@2@@std@@@2@V?$allocator@U?$pair@$$CBV?$basic_string@DU?$char_traits@D@std@@V?$allocator@D@2@@std@@H@std@@@2@$0A@@std@@@std@@IEBAAEBU?$less@V?$basic_string@DU?$char_traits@D@std@@V?$allocator@D@2@@std@@@2@XZ
    ?_Getcomp@?$_Tree@V?$_Tmap_traits@V?$basic_string@DU?$char_traits@D@std@@V?$allocator@D@2@@std@@PEAVPrefilter@re2@@U?$less@V?$basic_string@DU?$char_traits@D@std@@V?$allocator@D@2@@std@@@2@V?$allocator@U?$pair@$$CBV?$basic_string@DU?$char_traits@D@std@@V?$allocator@D@2@@std@@PEAVPrefilter@re2@@@std@@@2@$0A@@std@@@std@@IEBAAEBU?$less@V?$basic_string@DU?$char_traits@D@std@@V?$allocator@D@2@@std@@@2@XZ
    ?_Getcomp@?$_Tree@V?$_Tset_traits@HU?$less@H@std@@V?$allocator@H@2@$0A@@std@@@std@@IEBAAEBU?$less@H@2@XZ
    ?_Getcomp@?$_Tree@V?$_Tset_traits@URuneRange@re2@@URuneRangeLess@2@V?$allocator@URuneRange@re2@@@std@@$0A@@std@@@std@@IEBAAEBURuneRangeLess@re2@@XZ
    ?_Getcomp@?$_Tree@V?$_Tset_traits@V?$basic_string@DU?$char_traits@D@std@@V?$allocator@D@2@@std@@U?$less@V?$basic_string@DU?$char_traits@D@std@@V?$allocator@D@2@@std@@@2@V?$allocator@V?$basic_string@DU?$char_traits@D@std@@V?$allocator@D@2@@std@@@2@$0A@@std@@@std@@IEBAAEBU?$less@V?$basic_string@DU?$char_traits@D@std@@V?$allocator@D@2@@std@@@2@XZ
    ?_Getcont@_Iterator_base0@std@@QEBAPEBU_Container_base0@2@XZ
    ?_Getimpl@?$_Func_class@XPEBH_N@std@@AEBAPEAV?$_Func_base@XPEBH_N@2@XZ
    ?_Getstate@?$basic_stringbuf@DU?$char_traits@D@std@@V?$allocator@D@2@@std@@CAHH@Z
    ?_Growmap@?$deque@PEAUState@DFA@re2@@V?$allocator@PEAUState@DFA@re2@@@std@@@std@@AEAAX_K@Z
    ?_Growmap@?$deque@U?$WalkState@H@re2@@V?$allocator@U?$WalkState@H@re2@@@std@@@std@@AEAAX_K@Z
    ?_Growmap@?$deque@U?$WalkState@PEAVInfo@Prefilter@re2@@@re2@@V?$allocator@U?$WalkState@PEAVInfo@Prefilter@re2@@@re2@@@std@@@std@@AEAAX_K@Z
    ?_Growmap@?$deque@U?$WalkState@PEAVRegexp@re2@@@re2@@V?$allocator@U?$WalkState@PEAVRegexp@re2@@@re2@@@std@@@std@@AEAAX_K@Z
    ?_Growmap@?$deque@U?$WalkState@UFrag@re2@@@re2@@V?$allocator@U?$WalkState@UFrag@re2@@@re2@@@std@@@std@@AEAAX_K@Z
    ?_Growmap@?$deque@U?$WalkState@_N@re2@@V?$allocator@U?$WalkState@_N@re2@@@std@@@std@@AEAAX_K@Z
    ?_Growmap@?$deque@UThread@NFA@re2@@V?$allocator@UThread@NFA@re2@@@std@@@std@@AEAAX_K@Z
    ?_Insert_new_node_before@?$_Hash@V?$_Umap_traits@PEAUState@DFA@re2@@HV?$_Uhash_compare@PEAUState@DFA@re2@@U?$hash@PEAUState@DFA@re2@@@std@@U?$equal_to@PEAUState@DFA@re2@@@5@@std@@V?$allocator@U?$pair@QEAUState@DFA@re2@@H@std@@@5@$0A@@std@@@std@@IEAAPEAU?$_List_node@U?$pair@QEAUState@DFA@re2@@H@std@@PEAX@2@_KQEAU32@1@Z
    ?_Insert_new_node_before@?$_Hash@V?$_Umap_traits@_KHV?$_Uhash_compare@_KU?$hash@_K@std@@U?$equal_to@_K@2@@std@@V?$allocator@U?$pair@$$CB_KH@std@@@2@$0A@@std@@@std@@IEAAPEAU?$_List_node@U?$pair@$$CB_KH@std@@PEAX@2@_KQEAU32@1@Z
    ?_Insert_new_node_before@?$_Hash@V?$_Uset_traits@PEAUState@DFA@re2@@V?$_Uhash_compare@PEAUState@DFA@re2@@UStateHash@23@UStateEqual@23@@std@@V?$allocator@PEAUState@DFA@re2@@@5@$0A@@std@@@std@@IEAAPEAU?$_List_node@PEAUState@DFA@re2@@PEAX@2@_KQEAU32@1@Z
    ?_Insert_node@?$_Tree_val@U?$_Tree_simple_types@H@std@@@std@@QEAAPEAU?$_Tree_node@HPEAX@2@U?$_Tree_id@PEAU?$_Tree_node@HPEAX@std@@@2@QEAU32@@Z
    ?_Insert_node@?$_Tree_val@U?$_Tree_simple_types@U?$pair@$$CBHH@std@@@std@@@std@@QEAAPEAU?$_Tree_node@U?$pair@$$CBHH@std@@PEAX@2@U?$_Tree_id@PEAU?$_Tree_node@U?$pair@$$CBHH@std@@PEAX@std@@@2@QEAU32@@Z
    ?_Insert_node@?$_Tree_val@U?$_Tree_simple_types@U?$pair@$$CBHV?$basic_string@DU?$char_traits@D@std@@V?$allocator@D@2@@std@@@std@@@std@@@std@@QEAAPEAU?$_Tree_node@U?$pair@$$CBHV?$basic_string@DU?$char_traits@D@std@@V?$allocator@D@2@@std@@@std@@PEAX@2@U?$_Tree_id@PEAU?$_Tree_node@U?$pair@$$CBHV?$basic_string@DU?$char_traits@D@std@@V?$allocator@D@2@@std@@@std@@PEAX@std@@@2@QEAU32@@Z
    ?_Insert_node@?$_Tree_val@U?$_Tree_simple_types@U?$pair@$$CBV?$basic_string@DU?$char_traits@D@std@@V?$allocator@D@2@@std@@H@std@@@std@@@std@@QEAAPEAU?$_Tree_node@U?$pair@$$CBV?$basic_string@DU?$char_traits@D@std@@V?$allocator@D@2@@std@@H@std@@PEAX@2@U?$_Tree_id@PEAU?$_Tree_node@U?$pair@$$CBV?$basic_string@DU?$char_traits@D@std@@V?$allocator@D@2@@std@@H@std@@PEAX@std@@@2@QEAU32@@Z
    ?_Insert_node@?$_Tree_val@U?$_Tree_simple_types@U?$pair@$$CBV?$basic_string@DU?$char_traits@D@std@@V?$allocator@D@2@@std@@PEAVPrefilter@re2@@@std@@@std@@@std@@QEAAPEAU?$_Tree_node@U?$pair@$$CBV?$basic_string@DU?$char_traits@D@std@@V?$allocator@D@2@@std@@PEAVPrefilter@re2@@@std@@PEAX@2@U?$_Tree_id@PEAU?$_Tree_node@U?$pair@$$CBV?$basic_string@DU?$char_traits@D@std@@V?$allocator@D@2@@std@@PEAVPrefilter@re2@@@std@@PEAX@std@@@2@QEAU32@@Z
    ?_Insert_node@?$_Tree_val@U?$_Tree_simple_types@U?$pair@QEAVRegexp@re2@@H@std@@@std@@@std@@QEAAPEAU?$_Tree_node@U?$pair@QEAVRegexp@re2@@H@std@@PEAX@2@U?$_Tree_id@PEAU?$_Tree_node@U?$pair@QEAVRegexp@re2@@H@std@@PEAX@std@@@2@QEAU32@@Z
    ?_Insert_node@?$_Tree_val@U?$_Tree_simple_types@URuneRange@re2@@@std@@@std@@QEAAPEAU?$_Tree_node@URuneRange@re2@@PEAX@2@U?$_Tree_id@PEAU?$_Tree_node@URuneRange@re2@@PEAX@std@@@2@QEAU32@@Z
    ?_Insert_node@?$_Tree_val@U?$_Tree_simple_types@V?$basic_string@DU?$char_traits@D@std@@V?$allocator@D@2@@std@@@std@@@std@@QEAAPEAU?$_Tree_node@V?$basic_string@DU?$char_traits@D@std@@V?$allocator@D@2@@std@@PEAX@2@U?$_Tree_id@PEAU?$_Tree_node@V?$basic_string@DU?$char_traits@D@std@@V?$allocator@D@2@@std@@PEAX@std@@@2@QEAU32@@Z
    ?_Kfn@?$_Tset_traits@HU?$less@H@std@@V?$allocator@H@2@$0A@@std@@SAAEBHAEBH@Z
    ?_Kfn@?$_Tset_traits@URuneRange@re2@@URuneRangeLess@2@V?$allocator@URuneRange@re2@@@std@@$0A@@std@@SAAEBURuneRange@re2@@AEBU34@@Z
    ?_Kfn@?$_Tset_traits@V?$basic_string@DU?$char_traits@D@std@@V?$allocator@D@2@@std@@U?$less@V?$basic_string@DU?$char_traits@D@std@@V?$allocator@D@2@@std@@@2@V?$allocator@V?$basic_string@DU?$char_traits@D@std@@V?$allocator@D@2@@std@@@2@$0A@@std@@SAAEBV?$basic_string@DU?$char_traits@D@std@@V?$allocator@D@2@@2@AEBV32@@Z
    ?_Kfn@?$_Uset_traits@PEAUState@DFA@re2@@V?$_Uhash_compare@PEAUState@DFA@re2@@UStateHash@23@UStateEqual@23@@std@@V?$allocator@PEAUState@DFA@re2@@@5@$0A@@std@@SAAEBQEAUState@DFA@re2@@AEBQEAU345@@Z
    ?_Large_string_engaged@?$_String_val@U?$_Simple_types@D@std@@@std@@QEBA_NXZ
    ?_Load_barrier@std@@YAXW4memory_order@1@@Z
    ?_Lrotate@?$_Tree_val@U?$_Tree_simple_types@H@std@@@std@@QEAAXPEAU?$_Tree_node@HPEAX@2@@Z
    ?_Lrotate@?$_Tree_val@U?$_Tree_simple_types@U?$pair@$$CBHH@std@@@std@@@std@@QEAAXPEAU?$_Tree_node@U?$pair@$$CBHH@std@@PEAX@2@@Z
    ?_Lrotate@?$_Tree_val@U?$_Tree_simple_types@U?$pair@$$CBHV?$basic_string@DU?$char_traits@D@std@@V?$allocator@D@2@@std@@@std@@@std@@@std@@QEAAXPEAU?$_Tree_node@U?$pair@$$CBHV?$basic_string@DU?$char_traits@D@std@@V?$allocator@D@2@@std@@@std@@PEAX@2@@Z
    ?_Lrotate@?$_Tree_val@U?$_Tree_simple_types@U?$pair@$$CBV?$basic_string@DU?$char_traits@D@std@@V?$allocator@D@2@@std@@H@std@@@std@@@std@@QEAAXPEAU?$_Tree_node@U?$pair@$$CBV?$basic_string@DU?$char_traits@D@std@@V?$allocator@D@2@@std@@H@std@@PEAX@2@@Z
    ?_Lrotate@?$_Tree_val@U?$_Tree_simple_types@U?$pair@$$CBV?$basic_string@DU?$char_traits@D@std@@V?$allocator@D@2@@std@@PEAVPrefilter@re2@@@std@@@std@@@std@@QEAAXPEAU?$_Tree_node@U?$pair@$$CBV?$basic_string@DU?$char_traits@D@std@@V?$allocator@D@2@@std@@PEAVPrefilter@re2@@@std@@PEAX@2@@Z
    ?_Lrotate@?$_Tree_val@U?$_Tree_simple_types@U?$pair@QEAVRegexp@re2@@H@std@@@std@@@std@@QEAAXPEAU?$_Tree_node@U?$pair@QEAVRegexp@re2@@H@std@@PEAX@2@@Z
    ?_Lrotate@?$_Tree_val@U?$_Tree_simple_types@URuneRange@re2@@@std@@@std@@QEAAXPEAU?$_Tree_node@URuneRange@re2@@PEAX@2@@Z
    ?_Lrotate@?$_Tree_val@U?$_Tree_simple_types@V?$basic_string@DU?$char_traits@D@std@@V?$allocator@D@2@@std@@@std@@@std@@QEAAXPEAU?$_Tree_node@V?$basic_string@DU?$char_traits@D@std@@V?$allocator@D@2@@std@@PEAX@2@@Z
    ?_Make_iter@?$list@PEAUState@DFA@re2@@V?$allocator@PEAUState@DFA@re2@@@std@@@std@@QEBA?AV?$_List_iterator@V?$_List_val@U?$_List_simple_types@PEAUState@DFA@re2@@@std@@@std@@@2@PEAU?$_List_node@PEAUState@DFA@re2@@PEAX@2@@Z
    ?_Make_iter@?$list@U?$pair@$$CB_KH@std@@V?$allocator@U?$pair@$$CB_KH@std@@@2@@std@@QEBA?AV?$_List_iterator@V?$_List_val@U?$_List_simple_types@U?$pair@$$CB_KH@std@@@std@@@std@@@2@PEAU?$_List_node@U?$pair@$$CB_KH@std@@PEAX@2@@Z
    ?_Make_iter@?$list@U?$pair@QEAUState@DFA@re2@@H@std@@V?$allocator@U?$pair@QEAUState@DFA@re2@@H@std@@@2@@std@@QEBA?AV?$_List_iterator@V?$_List_val@U?$_List_simple_types@U?$pair@QEAUState@DFA@re2@@H@std@@@std@@@std@@@2@PEAU?$_List_node@U?$pair@QEAUState@DFA@re2@@H@std@@PEAX@2@@Z
    ?_Make_iterator_offset@?$vector@EV?$allocator@E@std@@@std@@AEAA?AV?$_Vector_iterator@V?$_Vector_val@U?$_Simple_types@E@std@@@std@@@2@_K@Z
    ?_Make_iterator_offset@?$vector@HV?$allocator@H@std@@@std@@AEAA?AV?$_Vector_iterator@V?$_Vector_val@U?$_Simple_types@H@std@@@std@@@2@_K@Z
    ?_Map@?$deque@PEAUState@DFA@re2@@V?$allocator@PEAUState@DFA@re2@@@std@@@std@@AEAAAEAPEAPEAPEAUState@DFA@re2@@XZ
    ?_Map@?$deque@U?$WalkState@H@re2@@V?$allocator@U?$WalkState@H@re2@@@std@@@std@@AEAAAEAPEAPEAU?$WalkState@H@re2@@XZ
    ?_Map@?$deque@U?$WalkState@PEAVInfo@Prefilter@re2@@@re2@@V?$allocator@U?$WalkState@PEAVInfo@Prefilter@re2@@@re2@@@std@@@std@@AEAAAEAPEAPEAU?$WalkState@PEAVInfo@Prefilter@re2@@@re2@@XZ
    ?_Map@?$deque@U?$WalkState@PEAVRegexp@re2@@@re2@@V?$allocator@U?$WalkState@PEAVRegexp@re2@@@re2@@@std@@@std@@AEAAAEAPEAPEAU?$WalkState@PEAVRegexp@re2@@@re2@@XZ
    ?_Map@?$deque@U?$WalkState@UFrag@re2@@@re2@@V?$allocator@U?$WalkState@UFrag@re2@@@re2@@@std@@@std@@AEAAAEAPEAPEAU?$WalkState@UFrag@re2@@@re2@@XZ
    ?_Map@?$deque@U?$WalkState@_N@re2@@V?$allocator@U?$WalkState@_N@re2@@@std@@@std@@AEAAAEAPEAPEAU?$WalkState@_N@re2@@XZ
    ?_Map@?$deque@UThread@NFA@re2@@V?$allocator@UThread@NFA@re2@@@std@@@std@@AEAAAEAPEAPEAUThread@NFA@re2@@XZ
    ?_Mapsize@?$deque@PEAUState@DFA@re2@@V?$allocator@PEAUState@DFA@re2@@@std@@@std@@AEAAAEA_KXZ
    ?_Mapsize@?$deque@U?$WalkState@H@re2@@V?$allocator@U?$WalkState@H@re2@@@std@@@std@@AEAAAEA_KXZ
    ?_Mapsize@?$deque@U?$WalkState@PEAVInfo@Prefilter@re2@@@re2@@V?$allocator@U?$WalkState@PEAVInfo@Prefilter@re2@@@re2@@@std@@@std@@AEAAAEA_KXZ
    ?_Mapsize@?$deque@U?$WalkState@PEAVRegexp@re2@@@re2@@V?$allocator@U?$WalkState@PEAVRegexp@re2@@@re2@@@std@@@std@@AEAAAEA_KXZ
    ?_Mapsize@?$deque@U?$WalkState@UFrag@re2@@@re2@@V?$allocator@U?$WalkState@UFrag@re2@@@re2@@@std@@@std@@AEAAAEA_KXZ
    ?_Mapsize@?$deque@U?$WalkState@_N@re2@@V?$allocator@U?$WalkState@_N@re2@@@std@@@std@@AEAAAEA_KXZ
    ?_Mapsize@?$deque@UThread@NFA@re2@@V?$allocator@UThread@NFA@re2@@@std@@@std@@AEAAAEA_KXZ
    ?_Max@?$_Tree_val@U?$_Tree_simple_types@U?$pair@QEAVRegexp@re2@@H@std@@@std@@@std@@SAPEAU?$_Tree_node@U?$pair@QEAVRegexp@re2@@H@std@@PEAX@2@PEAU32@@Z
    ?_Max@?$_Tree_val@U?$_Tree_simple_types@URuneRange@re2@@@std@@@std@@SAPEAU?$_Tree_node@URuneRange@re2@@PEAX@2@PEAU32@@Z
    ?_Max@?$_Tree_val@U?$_Tree_simple_types@V?$basic_string@DU?$char_traits@D@std@@V?$allocator@D@2@@std@@@std@@@std@@SAPEAU?$_Tree_node@V?$basic_string@DU?$char_traits@D@std@@V?$allocator@D@2@@std@@PEAX@2@PEAU32@@Z
    ?_Max_bucket_size@?$_Hash@V?$_Umap_traits@PEAUState@DFA@re2@@HV?$_Uhash_compare@PEAUState@DFA@re2@@U?$hash@PEAUState@DFA@re2@@@std@@U?$equal_to@PEAUState@DFA@re2@@@5@@std@@V?$allocator@U?$pair@QEAUState@DFA@re2@@H@std@@@5@$0A@@std@@@std@@IEAAAEAMXZ
    ?_Max_bucket_size@?$_Hash@V?$_Umap_traits@PEAUState@DFA@re2@@HV?$_Uhash_compare@PEAUState@DFA@re2@@U?$hash@PEAUState@DFA@re2@@@std@@U?$equal_to@PEAUState@DFA@re2@@@5@@std@@V?$allocator@U?$pair@QEAUState@DFA@re2@@H@std@@@5@$0A@@std@@@std@@IEBAAEBMXZ
    ?_Max_bucket_size@?$_Hash@V?$_Umap_traits@_KHV?$_Uhash_compare@_KU?$hash@_K@std@@U?$equal_to@_K@2@@std@@V?$allocator@U?$pair@$$CB_KH@std@@@2@$0A@@std@@@std@@IEAAAEAMXZ
    ?_Max_bucket_size@?$_Hash@V?$_Umap_traits@_KHV?$_Uhash_compare@_KU?$hash@_K@std@@U?$equal_to@_K@2@@std@@V?$allocator@U?$pair@$$CB_KH@std@@@2@$0A@@std@@@std@@IEBAAEBMXZ
    ?_Max_bucket_size@?$_Hash@V?$_Uset_traits@PEAUState@DFA@re2@@V?$_Uhash_compare@PEAUState@DFA@re2@@UStateHash@23@UStateEqual@23@@std@@V?$allocator@PEAUState@DFA@re2@@@5@$0A@@std@@@std@@IEAAAEAMXZ
    ?_Max_bucket_size@?$_Hash@V?$_Uset_traits@PEAUState@DFA@re2@@V?$_Uhash_compare@PEAUState@DFA@re2@@UStateHash@23@UStateEqual@23@@std@@V?$allocator@PEAUState@DFA@re2@@@5@$0A@@std@@@std@@IEBAAEBMXZ
    ?_Memcpy_val_from@?$basic_string@DU?$char_traits@D@std@@V?$allocator@D@2@@std@@AEAAXAEBV12@@Z
    ?_Min@?$_Tree_val@U?$_Tree_simple_types@U?$pair@$$CBHH@std@@@std@@@std@@SAPEAU?$_Tree_node@U?$pair@$$CBHH@std@@PEAX@2@PEAU32@@Z
    ?_Min@?$_Tree_val@U?$_Tree_simple_types@U?$pair@$$CBV?$basic_string@DU?$char_traits@D@std@@V?$allocator@D@2@@std@@PEAVPrefilter@re2@@@std@@@std@@@std@@SAPEAU?$_Tree_node@U?$pair@$$CBV?$basic_string@DU?$char_traits@D@std@@V?$allocator@D@2@@std@@PEAVPrefilter@re2@@@std@@PEAX@2@PEAU32@@Z
    ?_Min@?$_Tree_val@U?$_Tree_simple_types@U?$pair@QEAVRegexp@re2@@H@std@@@std@@@std@@SAPEAU?$_Tree_node@U?$pair@QEAVRegexp@re2@@H@std@@PEAX@2@PEAU32@@Z
    ?_Min@?$_Tree_val@U?$_Tree_simple_types@URuneRange@re2@@@std@@@std@@SAPEAU?$_Tree_node@URuneRange@re2@@PEAX@2@PEAU32@@Z
    ?_Min@?$_Tree_val@U?$_Tree_simple_types@V?$basic_string@DU?$char_traits@D@std@@V?$allocator@D@2@@std@@@std@@@std@@SAPEAU?$_Tree_node@V?$basic_string@DU?$char_traits@D@std@@V?$allocator@D@2@@std@@PEAX@2@PEAU32@@Z
    ?_Min_buckets@?$_Hash@V?$_Umap_traits@PEAUState@DFA@re2@@HV?$_Uhash_compare@PEAUState@DFA@re2@@U?$hash@PEAUState@DFA@re2@@@std@@U?$equal_to@PEAUState@DFA@re2@@@5@@std@@V?$allocator@U?$pair@QEAUState@DFA@re2@@H@std@@@5@$0A@@std@@@std@@2_KB
    ?_Min_buckets@?$_Hash@V?$_Umap_traits@_KHV?$_Uhash_compare@_KU?$hash@_K@std@@U?$equal_to@_K@2@@std@@V?$allocator@U?$pair@$$CB_KH@std@@@2@$0A@@std@@@std@@2_KB
    ?_Min_buckets@?$_Hash@V?$_Uset_traits@PEAUState@DFA@re2@@V?$_Uhash_compare@PEAUState@DFA@re2@@UStateHash@23@UStateEqual@23@@std@@V?$allocator@PEAUState@DFA@re2@@@5@$0A@@std@@@std@@2_KB
    ?_Min_load_factor_buckets@?$_Hash@V?$_Umap_traits@PEAUState@DFA@re2@@HV?$_Uhash_compare@PEAUState@DFA@re2@@U?$hash@PEAUState@DFA@re2@@@std@@U?$equal_to@PEAUState@DFA@re2@@@5@@std@@V?$allocator@U?$pair@QEAUState@DFA@re2@@H@std@@@5@$0A@@std@@@std@@IEBA_K_K@Z
    ?_Min_load_factor_buckets@?$_Hash@V?$_Umap_traits@_KHV?$_Uhash_compare@_KU?$hash@_K@std@@U?$equal_to@_K@2@@std@@V?$allocator@U?$pair@$$CB_KH@std@@@2@$0A@@std@@@std@@IEBA_K_K@Z
    ?_Min_load_factor_buckets@?$_Hash@V?$_Uset_traits@PEAUState@DFA@re2@@V?$_Uhash_compare@PEAUState@DFA@re2@@UStateHash@23@UStateEqual@23@@std@@V?$allocator@PEAUState@DFA@re2@@@5@$0A@@std@@@std@@IEBA_K_K@Z
    ?_Move_assign@?$basic_string@DU?$char_traits@D@std@@V?$allocator@D@2@@std@@AEAAXAEAV12@U_Equal_allocators@2@@Z
    ?_Move_construct@?$vector@HV?$allocator@H@std@@@std@@AEAAXAEAV12@U?$integral_constant@_N$00@2@@Z
    ?_Move_construct@?$vector@PEAVRE2@re2@@V?$allocator@PEAVRE2@re2@@@std@@@std@@AEAAXAEAV12@U?$integral_constant@_N$00@2@@Z
    ?_Move_construct@?$vector@U?$pair@V?$basic_string@DU?$char_traits@D@std@@V?$allocator@D@2@@std@@PEAVRegexp@re2@@@std@@V?$allocator@U?$pair@V?$basic_string@DU?$char_traits@D@std@@V?$allocator@D@2@@std@@PEAVRegexp@re2@@@std@@@2@@std@@AEAAXAEAV12@U?$integral_constant@_N$00@2@@Z
    ?_Move_construct@?$vector@USplice@re2@@V?$allocator@USplice@re2@@@std@@@std@@AEAAXAEAV12@U?$integral_constant@_N$00@2@@Z
    ?_Myoff@?$deque@PEAUState@DFA@re2@@V?$allocator@PEAUState@DFA@re2@@@std@@@std@@AEAAAEA_KXZ
    ?_Myoff@?$deque@U?$WalkState@H@re2@@V?$allocator@U?$WalkState@H@re2@@@std@@@std@@AEAAAEA_KXZ
    ?_Myoff@?$deque@U?$WalkState@PEAVInfo@Prefilter@re2@@@re2@@V?$allocator@U?$WalkState@PEAVInfo@Prefilter@re2@@@re2@@@std@@@std@@AEAAAEA_KXZ
    ?_Myoff@?$deque@U?$WalkState@PEAVRegexp@re2@@@re2@@V?$allocator@U?$WalkState@PEAVRegexp@re2@@@re2@@@std@@@std@@AEAAAEA_KXZ
    ?_Myoff@?$deque@U?$WalkState@UFrag@re2@@@re2@@V?$allocator@U?$WalkState@UFrag@re2@@@re2@@@std@@@std@@AEAAAEA_KXZ
    ?_Myoff@?$deque@U?$WalkState@_N@re2@@V?$allocator@U?$WalkState@_N@re2@@@std@@@std@@AEAAAEA_KXZ
    ?_Myoff@?$deque@UThread@NFA@re2@@V?$allocator@UThread@NFA@re2@@@std@@@std@@AEAAAEA_KXZ
    ?_Myptr@?$_String_val@U?$_Simple_types@D@std@@@std@@QEAAPEADXZ
    ?_Myptr@?$_String_val@U?$_Simple_types@D@std@@@std@@QEBAPEBDXZ
    ?_Mysize@?$deque@PEAUState@DFA@re2@@V?$allocator@PEAUState@DFA@re2@@@std@@@std@@AEAAAEA_KXZ
    ?_Mysize@?$deque@PEAUState@DFA@re2@@V?$allocator@PEAUState@DFA@re2@@@std@@@std@@AEBAAEB_KXZ
    ?_Mysize@?$deque@U?$WalkState@H@re2@@V?$allocator@U?$WalkState@H@re2@@@std@@@std@@AEAAAEA_KXZ
    ?_Mysize@?$deque@U?$WalkState@H@re2@@V?$allocator@U?$WalkState@H@re2@@@std@@@std@@AEBAAEB_KXZ
    ?_Mysize@?$deque@U?$WalkState@PEAVInfo@Prefilter@re2@@@re2@@V?$allocator@U?$WalkState@PEAVInfo@Prefilter@re2@@@re2@@@std@@@std@@AEAAAEA_KXZ
    ?_Mysize@?$deque@U?$WalkState@PEAVInfo@Prefilter@re2@@@re2@@V?$allocator@U?$WalkState@PEAVInfo@Prefilter@re2@@@re2@@@std@@@std@@AEBAAEB_KXZ
    ?_Mysize@?$deque@U?$WalkState@PEAVRegexp@re2@@@re2@@V?$allocator@U?$WalkState@PEAVRegexp@re2@@@re2@@@std@@@std@@AEAAAEA_KXZ
    ?_Mysize@?$deque@U?$WalkState@PEAVRegexp@re2@@@re2@@V?$allocator@U?$WalkState@PEAVRegexp@re2@@@re2@@@std@@@std@@AEBAAEB_KXZ
    ?_Mysize@?$deque@U?$WalkState@UFrag@re2@@@re2@@V?$allocator@U?$WalkState@UFrag@re2@@@re2@@@std@@@std@@AEAAAEA_KXZ
    ?_Mysize@?$deque@U?$WalkState@UFrag@re2@@@re2@@V?$allocator@U?$WalkState@UFrag@re2@@@re2@@@std@@@std@@AEBAAEB_KXZ
    ?_Mysize@?$deque@U?$WalkState@_N@re2@@V?$allocator@U?$WalkState@_N@re2@@@std@@@std@@AEAAAEA_KXZ
    ?_Mysize@?$deque@U?$WalkState@_N@re2@@V?$allocator@U?$WalkState@_N@re2@@@std@@@std@@AEBAAEB_KXZ
    ?_Mysize@?$deque@UThread@NFA@re2@@V?$allocator@UThread@NFA@re2@@@std@@@std@@AEAAAEA_KXZ
    ?_Mysize@?$deque@UThread@NFA@re2@@V?$allocator@UThread@NFA@re2@@@std@@@std@@AEBAAEB_KXZ
    ?_OptionsStorage@?1??__local_stdio_printf_options@@9@4_KA
    ?_Orphan_all@?$deque@PEAUState@DFA@re2@@V?$allocator@PEAUState@DFA@re2@@@std@@@std@@AEAAXXZ
    ?_Orphan_all@?$deque@U?$WalkState@H@re2@@V?$allocator@U?$WalkState@H@re2@@@std@@@std@@AEAAXXZ
    ?_Orphan_all@?$deque@U?$WalkState@PEAVInfo@Prefilter@re2@@@re2@@V?$allocator@U?$WalkState@PEAVInfo@Prefilter@re2@@@re2@@@std@@@std@@AEAAXXZ
    ?_Orphan_all@?$deque@U?$WalkState@PEAVRegexp@re2@@@re2@@V?$allocator@U?$WalkState@PEAVRegexp@re2@@@re2@@@std@@@std@@AEAAXXZ
    ?_Orphan_all@?$deque@U?$WalkState@UFrag@re2@@@re2@@V?$allocator@U?$WalkState@UFrag@re2@@@re2@@@std@@@std@@AEAAXXZ
    ?_Orphan_all@?$deque@U?$WalkState@_N@re2@@V?$allocator@U?$WalkState@_N@re2@@@std@@@std@@AEAAXXZ
    ?_Orphan_all@?$deque@UThread@NFA@re2@@V?$allocator@UThread@NFA@re2@@@std@@@std@@AEAAXXZ
    ?_Orphan_all@_Container_base0@std@@QEAAXXZ
    ?_Orphan_all@_Container_base12@std@@QEAAXXZ
    ?_Orphan_non_end@?$_List_val@U?$_List_simple_types@PEAUState@DFA@re2@@@std@@@std@@QEAAXXZ
    ?_Orphan_non_end@?$_List_val@U?$_List_simple_types@U?$pair@$$CB_KH@std@@@std@@@std@@QEAAXXZ
    ?_Orphan_non_end@?$_List_val@U?$_List_simple_types@U?$pair@QEAUState@DFA@re2@@H@std@@@std@@@std@@QEAAXXZ
    ?_Orphan_ptr@?$_Tree_val@U?$_Tree_simple_types@U?$pair@$$CBHH@std@@@std@@@std@@QEAAXQEAU?$_Tree_node@U?$pair@$$CBHH@std@@PEAX@2@@Z
    ?_Orphan_ptr@?$_Tree_val@U?$_Tree_simple_types@U?$pair@QEAVRegexp@re2@@H@std@@@std@@@std@@QEAAXQEAU?$_Tree_node@U?$pair@QEAVRegexp@re2@@H@std@@PEAX@2@@Z
    ?_Orphan_ptr@?$_Tree_val@U?$_Tree_simple_types@URuneRange@re2@@@std@@@std@@QEAAXQEAU?$_Tree_node@URuneRange@re2@@PEAX@2@@Z
    ?_Orphan_ptr@?$_Tree_val@U?$_Tree_simple_types@V?$basic_string@DU?$char_traits@D@std@@V?$allocator@D@2@@std@@@std@@@std@@QEAAXQEAU?$_Tree_node@V?$basic_string@DU?$char_traits@D@std@@V?$allocator@D@2@@std@@PEAX@2@@Z
    ?_Orphan_range@?$vector@EV?$allocator@E@std@@@std@@AEBAXPEAE0@Z
    ?_Orphan_range@?$vector@HV?$allocator@H@std@@@std@@AEBAXPEAH0@Z
    ?_Orphan_range@?$vector@PEAVPrefilter@re2@@V?$allocator@PEAVPrefilter@re2@@@std@@@std@@AEBAXPEAPEAVPrefilter@re2@@0@Z
    ?_Orphan_range@?$vector@PEAVRE2@re2@@V?$allocator@PEAVRE2@re2@@@std@@@std@@AEBAXPEAPEAVRE2@re2@@0@Z
    ?_Orphan_range@?$vector@PEAVRegexp@re2@@V?$allocator@PEAVRegexp@re2@@@std@@@std@@AEBAXPEAPEAVRegexp@re2@@0@Z
    ?_Orphan_range@?$vector@U?$pair@HH@std@@V?$allocator@U?$pair@HH@std@@@2@@std@@AEBAXPEAU?$pair@HH@2@0@Z
    ?_Orphan_range@?$vector@U?$pair@V?$basic_string@DU?$char_traits@D@std@@V?$allocator@D@2@@std@@PEAVRegexp@re2@@@std@@V?$allocator@U?$pair@V?$basic_string@DU?$char_traits@D@std@@V?$allocator@D@2@@std@@PEAVRegexp@re2@@@std@@@2@@std@@AEBAXPEAU?$pair@V?$basic_string@DU?$char_traits@D@std@@V?$allocator@D@2@@std@@PEAVRegexp@re2@@@2@0@Z
    ?_Orphan_range@?$vector@UEntry@PrefilterTree@re2@@V?$allocator@UEntry@PrefilterTree@re2@@@std@@@std@@AEBAXPEAUEntry@PrefilterTree@re2@@0@Z
    ?_Orphan_range@?$vector@UFrame@re2@@V?$allocator@UFrame@re2@@@std@@@std@@AEBAXPEAUFrame@re2@@0@Z
    ?_Orphan_range@?$vector@URuneRange@re2@@V?$allocator@URuneRange@re2@@@std@@@std@@AEBAXPEAURuneRange@re2@@0@Z
    ?_Orphan_range@?$vector@USplice@re2@@V?$allocator@USplice@re2@@@std@@@std@@AEBAXPEAUSplice@re2@@0@Z
    ?_Orphan_range@?$vector@V?$basic_string@DU?$char_traits@D@std@@V?$allocator@D@2@@std@@V?$allocator@V?$basic_string@DU?$char_traits@D@std@@V?$allocator@D@2@@std@@@2@@std@@AEBAXPEAV?$basic_string@DU?$char_traits@D@std@@V?$allocator@D@2@@2@0@Z
    ?_Orphan_range@?$vector@V?$vector@HV?$allocator@H@std@@@std@@V?$allocator@V?$vector@HV?$allocator@H@std@@@std@@@2@@std@@AEBAXPEAV?$vector@HV?$allocator@H@std@@@2@0@Z
    ?_Orphan_range@?$vector@VInst@Prog@re2@@V?$allocator@VInst@Prog@re2@@@std@@@std@@AEBAXPEAVInst@Prog@re2@@0@Z
    ?_Reallocate_exactly@?$vector@HV?$allocator@H@std@@@std@@AEAAX_K@Z
    ?_Reallocate_exactly@?$vector@PEAVRE2@re2@@V?$allocator@PEAVRE2@re2@@@std@@@std@@AEAAX_K@Z
    ?_Reallocate_exactly@?$vector@U?$pair@V?$basic_string@DU?$char_traits@D@std@@V?$allocator@D@2@@std@@PEAVRegexp@re2@@@std@@V?$allocator@U?$pair@V?$basic_string@DU?$char_traits@D@std@@V?$allocator@D@2@@std@@PEAVRegexp@re2@@@std@@@2@@std@@AEAAX_K@Z
    ?_Reallocate_exactly@?$vector@URuneRange@re2@@V?$allocator@URuneRange@re2@@@std@@@std@@AEAAX_K@Z
    ?_Reallocate_exactly@?$vector@VInst@Prog@re2@@V?$allocator@VInst@Prog@re2@@@std@@@std@@AEAAX_K@Z
    ?_Rehash_for_1@?$_Hash@V?$_Umap_traits@PEAUState@DFA@re2@@HV?$_Uhash_compare@PEAUState@DFA@re2@@U?$hash@PEAUState@DFA@re2@@@std@@U?$equal_to@PEAUState@DFA@re2@@@5@@std@@V?$allocator@U?$pair@QEAUState@DFA@re2@@H@std@@@5@$0A@@std@@@std@@IEAAXXZ
    ?_Rehash_for_1@?$_Hash@V?$_Umap_traits@_KHV?$_Uhash_compare@_KU?$hash@_K@std@@U?$equal_to@_K@2@@std@@V?$allocator@U?$pair@$$CB_KH@std@@@2@$0A@@std@@@std@@IEAAXXZ
    ?_Rehash_for_1@?$_Hash@V?$_Uset_traits@PEAUState@DFA@re2@@V?$_Uhash_compare@PEAUState@DFA@re2@@UStateHash@23@UStateEqual@23@@std@@V?$allocator@PEAUState@DFA@re2@@@5@$0A@@std@@@std@@IEAAXXZ
    ?_Release@?$_Alloc_construct_ptr@V?$allocator@U?$_List_node@PEAUState@DFA@re2@@PEAX@std@@@std@@@std@@QEAAPEAU?$_List_node@PEAUState@DFA@re2@@PEAX@2@XZ
    ?_Release@?$_Alloc_construct_ptr@V?$allocator@U?$_List_node@U?$pair@$$CB_KH@std@@PEAX@std@@@std@@@std@@QEAAPEAU?$_List_node@U?$pair@$$CB_KH@std@@PEAX@2@XZ
    ?_Release@?$_Alloc_construct_ptr@V?$allocator@U?$_List_node@U?$pair@QEAUState@DFA@re2@@H@std@@PEAX@std@@@std@@@std@@QEAAPEAU?$_List_node@U?$pair@QEAUState@DFA@re2@@H@std@@PEAX@2@XZ
    ?_Release@?$_Alloc_construct_ptr@V?$allocator@U?$_Tree_node@HPEAX@std@@@std@@@std@@QEAAPEAU?$_Tree_node@HPEAX@2@XZ
    ?_Release@?$_Alloc_construct_ptr@V?$allocator@U?$_Tree_node@U?$pair@$$CBHH@std@@PEAX@std@@@std@@@std@@QEAAPEAU?$_Tree_node@U?$pair@$$CBHH@std@@PEAX@2@XZ
    ?_Release@?$_Alloc_construct_ptr@V?$allocator@U?$_Tree_node@U?$pair@$$CBHV?$basic_string@DU?$char_traits@D@std@@V?$allocator@D@2@@std@@@std@@PEAX@std@@@std@@@std@@QEAAPEAU?$_Tree_node@U?$pair@$$CBHV?$basic_string@DU?$char_traits@D@std@@V?$allocator@D@2@@std@@@std@@PEAX@2@XZ
    ?_Release@?$_Alloc_construct_ptr@V?$allocator@U?$_Tree_node@U?$pair@$$CBV?$basic_string@DU?$char_traits@D@std@@V?$allocator@D@2@@std@@H@std@@PEAX@std@@@std@@@std@@QEAAPEAU?$_Tree_node@U?$pair@$$CBV?$basic_string@DU?$char_traits@D@std@@V?$allocator@D@2@@std@@H@std@@PEAX@2@XZ
    ?_Release@?$_Alloc_construct_ptr@V?$allocator@U?$_Tree_node@U?$pair@$$CBV?$basic_string@DU?$char_traits@D@std@@V?$allocator@D@2@@std@@PEAVPrefilter@re2@@@std@@PEAX@std@@@std@@@std@@QEAAPEAU?$_Tree_node@U?$pair@$$CBV?$basic_string@DU?$char_traits@D@std@@V?$allocator@D@2@@std@@PEAVPrefilter@re2@@@std@@PEAX@2@XZ
    ?_Release@?$_Alloc_construct_ptr@V?$allocator@U?$_Tree_node@U?$pair@QEAVRegexp@re2@@H@std@@PEAX@std@@@std@@@std@@QEAAPEAU?$_Tree_node@U?$pair@QEAVRegexp@re2@@H@std@@PEAX@2@XZ
    ?_Release@?$_Alloc_construct_ptr@V?$allocator@U?$_Tree_node@URuneRange@re2@@PEAX@std@@@std@@@std@@QEAAPEAU?$_Tree_node@URuneRange@re2@@PEAX@2@XZ
    ?_Release@?$_Alloc_construct_ptr@V?$allocator@U?$_Tree_node@V?$basic_string@DU?$char_traits@D@std@@V?$allocator@D@2@@std@@PEAX@std@@@std@@@std@@QEAAPEAU?$_Tree_node@V?$basic_string@DU?$char_traits@D@std@@V?$allocator@D@2@@std@@PEAX@2@XZ
    ?_Release@?$_Uninitialized_backout@PEAV?$_List_unchecked_const_iterator@V?$_List_val@U?$_List_simple_types@PEAUState@DFA@re2@@@std@@@std@@U_Iterator_base0@2@@std@@@std@@QEAAPEAV?$_List_unchecked_const_iterator@V?$_List_val@U?$_List_simple_types@PEAUState@DFA@re2@@@std@@@std@@U_Iterator_base0@2@@2@XZ
    ?_Release@?$_Uninitialized_backout@PEAV?$_List_unchecked_iterator@V?$_List_val@U?$_List_simple_types@U?$pair@$$CB_KH@std@@@std@@@std@@@std@@@std@@QEAAPEAV?$_List_unchecked_iterator@V?$_List_val@U?$_List_simple_types@U?$pair@$$CB_KH@std@@@std@@@std@@@2@XZ
    ?_Release@?$_Uninitialized_backout@PEAV?$_List_unchecked_iterator@V?$_List_val@U?$_List_simple_types@U?$pair@QEAUState@DFA@re2@@H@std@@@std@@@std@@@std@@@std@@QEAAPEAV?$_List_unchecked_iterator@V?$_List_val@U?$_List_simple_types@U?$pair@QEAUState@DFA@re2@@H@std@@@std@@@std@@@2@XZ
    ?_Release@?$_Uninitialized_backout_al@V?$allocator@U?$pair@HH@std@@@std@@@std@@QEAAPEAU?$pair@HH@2@XZ
    ?_Release@?$_Uninitialized_backout_al@V?$allocator@U?$pair@V?$basic_string@DU?$char_traits@D@std@@V?$allocator@D@2@@std@@PEAVRegexp@re2@@@std@@@std@@@std@@QEAAPEAU?$pair@V?$basic_string@DU?$char_traits@D@std@@V?$allocator@D@2@@std@@PEAVRegexp@re2@@@2@XZ
    ?_Release@?$_Uninitialized_backout_al@V?$allocator@UEntry@PrefilterTree@re2@@@std@@@std@@QEAAPEAUEntry@PrefilterTree@re2@@XZ
    ?_Release@?$_Uninitialized_backout_al@V?$allocator@UFrame@re2@@@std@@@std@@QEAAPEAUFrame@re2@@XZ
    ?_Release@?$_Uninitialized_backout_al@V?$allocator@URuneRange@re2@@@std@@@std@@QEAAPEAURuneRange@re2@@XZ
    ?_Release@?$_Uninitialized_backout_al@V?$allocator@USplice@re2@@@std@@@std@@QEAAPEAUSplice@re2@@XZ
    ?_Release@?$_Uninitialized_backout_al@V?$allocator@V?$basic_string@DU?$char_traits@D@std@@V?$allocator@D@2@@std@@@std@@@std@@QEAAPEAV?$basic_string@DU?$char_traits@D@std@@V?$allocator@D@2@@2@XZ
    ?_Release@?$_Uninitialized_backout_al@V?$allocator@V?$vector@HV?$allocator@H@std@@@std@@@std@@@std@@QEAAPEAV?$vector@HV?$allocator@H@std@@@2@XZ
    ?_Release@_Fake_proxy_ptr_impl@std@@QEAAXXZ
    ?_Rrotate@?$_Tree_val@U?$_Tree_simple_types@H@std@@@std@@QEAAXPEAU?$_Tree_node@HPEAX@2@@Z
    ?_Rrotate@?$_Tree_val@U?$_Tree_simple_types@U?$pair@$$CBHH@std@@@std@@@std@@QEAAXPEAU?$_Tree_node@U?$pair@$$CBHH@std@@PEAX@2@@Z
    ?_Rrotate@?$_Tree_val@U?$_Tree_simple_types@U?$pair@$$CBHV?$basic_string@DU?$char_traits@D@std@@V?$allocator@D@2@@std@@@std@@@std@@@std@@QEAAXPEAU?$_Tree_node@U?$pair@$$CBHV?$basic_string@DU?$char_traits@D@std@@V?$allocator@D@2@@std@@@std@@PEAX@2@@Z
    ?_Rrotate@?$_Tree_val@U?$_Tree_simple_types@U?$pair@$$CBV?$basic_string@DU?$char_traits@D@std@@V?$allocator@D@2@@std@@H@std@@@std@@@std@@QEAAXPEAU?$_Tree_node@U?$pair@$$CBV?$basic_string@DU?$char_traits@D@std@@V?$allocator@D@2@@std@@H@std@@PEAX@2@@Z
    ?_Rrotate@?$_Tree_val@U?$_Tree_simple_types@U?$pair@$$CBV?$basic_string@DU?$char_traits@D@std@@V?$allocator@D@2@@std@@PEAVPrefilter@re2@@@std@@@std@@@std@@QEAAXPEAU?$_Tree_node@U?$pair@$$CBV?$basic_string@DU?$char_traits@D@std@@V?$allocator@D@2@@std@@PEAVPrefilter@re2@@@std@@PEAX@2@@Z
    ?_Rrotate@?$_Tree_val@U?$_Tree_simple_types@U?$pair@QEAVRegexp@re2@@H@std@@@std@@@std@@QEAAXPEAU?$_Tree_node@U?$pair@QEAVRegexp@re2@@H@std@@PEAX@2@@Z
    ?_Rrotate@?$_Tree_val@U?$_Tree_simple_types@URuneRange@re2@@@std@@@std@@QEAAXPEAU?$_Tree_node@URuneRange@re2@@PEAX@2@@Z
    ?_Rrotate@?$_Tree_val@U?$_Tree_simple_types@V?$basic_string@DU?$char_traits@D@std@@V?$allocator@D@2@@std@@@std@@@std@@QEAAXPEAU?$_Tree_node@V?$basic_string@DU?$char_traits@D@std@@V?$allocator@D@2@@std@@PEAX@2@@Z
    ?_Seek_to@?$_Vector_const_iterator@V?$_Vector_val@U?$_Simple_types@U?$pair@HH@std@@@std@@@std@@@std@@QEAAXPEBU?$pair@HH@2@@Z
    ?_Swap_data@?$basic_string@DU?$char_traits@D@std@@V?$allocator@D@2@@std@@QEAAXAEAV12@U?$integral_constant@_N$00@2@@Z
    ?_Swap_proxy_and_iterators@_Container_base0@std@@QEAAXAEAU12@@Z
    ?_Take_contents@?$_Vector_val@U?$_Simple_types@H@std@@@std@@QEAAXAEAV12@@Z
    ?_Take_contents@?$_Vector_val@U?$_Simple_types@PEAVRE2@re2@@@std@@@std@@QEAAXAEAV12@@Z
    ?_Throw_bad_array_new_length@std@@YAXXZ
    ?_Throw_tree_length_error@std@@YAXXZ
    ?_Tidy@?$_Hash_vec@V?$allocator@V?$_List_unchecked_const_iterator@V?$_List_val@U?$_List_simple_types@PEAUState@DFA@re2@@@std@@@std@@U_Iterator_base0@2@@std@@@std@@@std@@QEAAXXZ
    ?_Tidy@?$_Hash_vec@V?$allocator@V?$_List_unchecked_iterator@V?$_List_val@U?$_List_simple_types@U?$pair@$$CB_KH@std@@@std@@@std@@@std@@@std@@@std@@QEAAXXZ
    ?_Tidy@?$_Hash_vec@V?$allocator@V?$_List_unchecked_iterator@V?$_List_val@U?$_List_simple_types@U?$pair@QEAUState@DFA@re2@@H@std@@@std@@@std@@@std@@@std@@@std@@QEAAXXZ
    ?_Tidy@?$basic_stringbuf@DU?$char_traits@D@std@@V?$allocator@D@2@@std@@IEAAXXZ
    ?_Tidy@?$deque@PEAUState@DFA@re2@@V?$allocator@PEAUState@DFA@re2@@@std@@@std@@AEAAXXZ
    ?_Tidy@?$deque@U?$WalkState@H@re2@@V?$allocator@U?$WalkState@H@re2@@@std@@@std@@AEAAXXZ
    ?_Tidy@?$deque@U?$WalkState@PEAVInfo@Prefilter@re2@@@re2@@V?$allocator@U?$WalkState@PEAVInfo@Prefilter@re2@@@re2@@@std@@@std@@AEAAXXZ
    ?_Tidy@?$deque@U?$WalkState@PEAVRegexp@re2@@@re2@@V?$allocator@U?$WalkState@PEAVRegexp@re2@@@re2@@@std@@@std@@AEAAXXZ
    ?_Tidy@?$deque@U?$WalkState@UFrag@re2@@@re2@@V?$allocator@U?$WalkState@UFrag@re2@@@re2@@@std@@@std@@AEAAXXZ
    ?_Tidy@?$deque@U?$WalkState@_N@re2@@V?$allocator@U?$WalkState@_N@re2@@@std@@@std@@AEAAXXZ
    ?_Tidy@?$deque@UThread@NFA@re2@@V?$allocator@UThread@NFA@re2@@@std@@@std@@AEAAXXZ
    ?_Tidy@?$list@PEAUState@DFA@re2@@V?$allocator@PEAUState@DFA@re2@@@std@@@std@@AEAAXXZ
    ?_Tidy@?$list@U?$pair@$$CB_KH@std@@V?$allocator@U?$pair@$$CB_KH@std@@@2@@std@@AEAAXXZ
    ?_Tidy@?$list@U?$pair@QEAUState@DFA@re2@@H@std@@V?$allocator@U?$pair@QEAUState@DFA@re2@@H@std@@@2@@std@@AEAAXXZ
    ?_Tidy@?$vector@EV?$allocator@E@std@@@std@@AEAAXXZ
    ?_Tidy@?$vector@HV?$allocator@H@std@@@std@@AEAAXXZ
    ?_Tidy@?$vector@PEAVPrefilter@re2@@V?$allocator@PEAVPrefilter@re2@@@std@@@std@@AEAAXXZ
    ?_Tidy@?$vector@PEAVRE2@re2@@V?$allocator@PEAVRE2@re2@@@std@@@std@@AEAAXXZ
    ?_Tidy@?$vector@PEAVRegexp@re2@@V?$allocator@PEAVRegexp@re2@@@std@@@std@@AEAAXXZ
    ?_Tidy@?$vector@U?$pair@HH@std@@V?$allocator@U?$pair@HH@std@@@2@@std@@AEAAXXZ
    ?_Tidy@?$vector@U?$pair@V?$basic_string@DU?$char_traits@D@std@@V?$allocator@D@2@@std@@PEAVRegexp@re2@@@std@@V?$allocator@U?$pair@V?$basic_string@DU?$char_traits@D@std@@V?$allocator@D@2@@std@@PEAVRegexp@re2@@@std@@@2@@std@@AEAAXXZ
    ?_Tidy@?$vector@UEntry@PrefilterTree@re2@@V?$allocator@UEntry@PrefilterTree@re2@@@std@@@std@@AEAAXXZ
    ?_Tidy@?$vector@UFrame@re2@@V?$allocator@UFrame@re2@@@std@@@std@@AEAAXXZ
    ?_Tidy@?$vector@URuneRange@re2@@V?$allocator@URuneRange@re2@@@std@@@std@@AEAAXXZ
    ?_Tidy@?$vector@USplice@re2@@V?$allocator@USplice@re2@@@std@@@std@@AEAAXXZ
    ?_Tidy@?$vector@V?$vector@HV?$allocator@H@std@@@std@@V?$allocator@V?$vector@HV?$allocator@H@std@@@std@@@2@@std@@AEAAXXZ
    ?_Tidy@?$vector@VInst@Prog@re2@@V?$allocator@VInst@Prog@re2@@@std@@@std@@AEAAXXZ
    ?_Tidy_deallocate@?$basic_string@DU?$char_traits@D@std@@V?$allocator@D@2@@std@@AEAAXXZ
    ?_Tidy_init@?$basic_string@DU?$char_traits@D@std@@V?$allocator@D@2@@std@@AEAAXXZ
    ?_Ufill@?$vector@EV?$allocator@E@std@@@std@@AEAAPEAEPEAE_KAEBE@Z
    ?_Ufill@?$vector@HV?$allocator@H@std@@@std@@AEAAPEAHPEAH_KU_Value_init_tag@2@@Z
    ?_Ufill@?$vector@PEAVPrefilter@re2@@V?$allocator@PEAVPrefilter@re2@@@std@@@std@@AEAAPEAPEAVPrefilter@re2@@PEAPEAV34@_KU_Value_init_tag@2@@Z
    ?_Ufill@?$vector@PEAVRegexp@re2@@V?$allocator@PEAVRegexp@re2@@@std@@@std@@AEAAPEAPEAVRegexp@re2@@PEAPEAV34@_KU_Value_init_tag@2@@Z
    ?_Ufill@?$vector@UEntry@PrefilterTree@re2@@V?$allocator@UEntry@PrefilterTree@re2@@@std@@@std@@AEAAPEAUEntry@PrefilterTree@re2@@PEAU345@_KU_Value_init_tag@2@@Z
    ?_Umove@?$vector@EV?$allocator@E@std@@@std@@AEAAPEAEPEAE00@Z
    ?_Umove@?$vector@HV?$allocator@H@std@@@std@@AEAAPEAHPEAH00@Z
    ?_Umove@?$vector@PEAVPrefilter@re2@@V?$allocator@PEAVPrefilter@re2@@@std@@@std@@AEAAPEAPEAVPrefilter@re2@@PEAPEAV34@00@Z
    ?_Umove@?$vector@PEAVRE2@re2@@V?$allocator@PEAVRE2@re2@@@std@@@std@@AEAAPEAPEAVRE2@re2@@PEAPEAV34@00@Z
    ?_Umove@?$vector@PEAVRegexp@re2@@V?$allocator@PEAVRegexp@re2@@@std@@@std@@AEAAPEAPEAVRegexp@re2@@PEAPEAV34@00@Z
    ?_Umove@?$vector@U?$pair@HH@std@@V?$allocator@U?$pair@HH@std@@@2@@std@@AEAAPEAU?$pair@HH@2@PEAU32@00@Z
    ?_Umove@?$vector@U?$pair@V?$basic_string@DU?$char_traits@D@std@@V?$allocator@D@2@@std@@PEAVRegexp@re2@@@std@@V?$allocator@U?$pair@V?$basic_string@DU?$char_traits@D@std@@V?$allocator@D@2@@std@@PEAVRegexp@re2@@@std@@@2@@std@@AEAAPEAU?$pair@V?$basic_string@DU?$char_traits@D@std@@V?$allocator@D@2@@std@@PEAVRegexp@re2@@@2@PEAU32@00@Z
    ?_Umove@?$vector@UFrame@re2@@V?$allocator@UFrame@re2@@@std@@@std@@AEAAPEAUFrame@re2@@PEAU34@00@Z
    ?_Umove@?$vector@URuneRange@re2@@V?$allocator@URuneRange@re2@@@std@@@std@@AEAAPEAURuneRange@re2@@PEAU34@00@Z
    ?_Umove@?$vector@USplice@re2@@V?$allocator@USplice@re2@@@std@@@std@@AEAAPEAUSplice@re2@@PEAU34@00@Z
    ?_Umove@?$vector@V?$basic_string@DU?$char_traits@D@std@@V?$allocator@D@2@@std@@V?$allocator@V?$basic_string@DU?$char_traits@D@std@@V?$allocator@D@2@@std@@@2@@std@@AEAAPEAV?$basic_string@DU?$char_traits@D@std@@V?$allocator@D@2@@2@PEAV32@00@Z
    ?_Umove@?$vector@V?$vector@HV?$allocator@H@std@@@std@@V?$allocator@V?$vector@HV?$allocator@H@std@@@std@@@2@@std@@AEAAPEAV?$vector@HV?$allocator@H@std@@@2@PEAV32@00@Z
    ?_Umove@?$vector@VInst@Prog@re2@@V?$allocator@VInst@Prog@re2@@@std@@@std@@AEAAPEAVInst@Prog@re2@@PEAV345@00@Z
    ?_Umove_if_noexcept1@?$vector@EV?$allocator@E@std@@@std@@AEAAXPEAE00U?$integral_constant@_N$00@2@@Z
    ?_Umove_if_noexcept1@?$vector@HV?$allocator@H@std@@@std@@AEAAXPEAH00U?$integral_constant@_N$00@2@@Z
    ?_Umove_if_noexcept1@?$vector@PEAVPrefilter@re2@@V?$allocator@PEAVPrefilter@re2@@@std@@@std@@AEAAXPEAPEAVPrefilter@re2@@00U?$integral_constant@_N$00@2@@Z
    ?_Umove_if_noexcept1@?$vector@PEAVRE2@re2@@V?$allocator@PEAVRE2@re2@@@std@@@std@@AEAAXPEAPEAVRE2@re2@@00U?$integral_constant@_N$00@2@@Z
    ?_Umove_if_noexcept1@?$vector@PEAVRegexp@re2@@V?$allocator@PEAVRegexp@re2@@@std@@@std@@AEAAXPEAPEAVRegexp@re2@@00U?$integral_constant@_N$00@2@@Z
    ?_Umove_if_noexcept1@?$vector@U?$pair@HH@std@@V?$allocator@U?$pair@HH@std@@@2@@std@@AEAAXPEAU?$pair@HH@2@00U?$integral_constant@_N$00@2@@Z
    ?_Umove_if_noexcept1@?$vector@U?$pair@V?$basic_string@DU?$char_traits@D@std@@V?$allocator@D@2@@std@@PEAVRegexp@re2@@@std@@V?$allocator@U?$pair@V?$basic_string@DU?$char_traits@D@std@@V?$allocator@D@2@@std@@PEAVRegexp@re2@@@std@@@2@@std@@AEAAXPEAU?$pair@V?$basic_string@DU?$char_traits@D@std@@V?$allocator@D@2@@std@@PEAVRegexp@re2@@@2@00U?$integral_constant@_N$00@2@@Z
    ?_Umove_if_noexcept1@?$vector@UEntry@PrefilterTree@re2@@V?$allocator@UEntry@PrefilterTree@re2@@@std@@@std@@AEAAXPEAUEntry@PrefilterTree@re2@@00U?$integral_constant@_N$00@2@@Z
    ?_Umove_if_noexcept1@?$vector@UFrame@re2@@V?$allocator@UFrame@re2@@@std@@@std@@AEAAXPEAUFrame@re2@@00U?$integral_constant@_N$00@2@@Z
    ?_Umove_if_noexcept1@?$vector@URuneRange@re2@@V?$allocator@URuneRange@re2@@@std@@@std@@AEAAXPEAURuneRange@re2@@00U?$integral_constant@_N$00@2@@Z
    ?_Umove_if_noexcept1@?$vector@USplice@re2@@V?$allocator@USplice@re2@@@std@@@std@@AEAAXPEAUSplice@re2@@00U?$integral_constant@_N$00@2@@Z
    ?_Umove_if_noexcept1@?$vector@V?$basic_string@DU?$char_traits@D@std@@V?$allocator@D@2@@std@@V?$allocator@V?$basic_string@DU?$char_traits@D@std@@V?$allocator@D@2@@std@@@2@@std@@AEAAXPEAV?$basic_string@DU?$char_traits@D@std@@V?$allocator@D@2@@2@00U?$integral_constant@_N$00@2@@Z
    ?_Umove_if_noexcept1@?$vector@V?$vector@HV?$allocator@H@std@@@std@@V?$allocator@V?$vector@HV?$allocator@H@std@@@std@@@2@@std@@AEAAXPEAV?$vector@HV?$allocator@H@std@@@2@00U?$integral_constant@_N$00@2@@Z
    ?_Umove_if_noexcept1@?$vector@VInst@Prog@re2@@V?$allocator@VInst@Prog@re2@@@std@@@std@@AEAAXPEAVInst@Prog@re2@@00U?$integral_constant@_N$00@2@@Z
    ?_Umove_if_noexcept@?$vector@EV?$allocator@E@std@@@std@@AEAAXPEAE00@Z
    ?_Umove_if_noexcept@?$vector@HV?$allocator@H@std@@@std@@AEAAXPEAH00@Z
    ?_Umove_if_noexcept@?$vector@PEAVPrefilter@re2@@V?$allocator@PEAVPrefilter@re2@@@std@@@std@@AEAAXPEAPEAVPrefilter@re2@@00@Z
    ?_Umove_if_noexcept@?$vector@PEAVRE2@re2@@V?$allocator@PEAVRE2@re2@@@std@@@std@@AEAAXPEAPEAVRE2@re2@@00@Z
    ?_Umove_if_noexcept@?$vector@PEAVRegexp@re2@@V?$allocator@PEAVRegexp@re2@@@std@@@std@@AEAAXPEAPEAVRegexp@re2@@00@Z
    ?_Umove_if_noexcept@?$vector@U?$pair@HH@std@@V?$allocator@U?$pair@HH@std@@@2@@std@@AEAAXPEAU?$pair@HH@2@00@Z
    ?_Umove_if_noexcept@?$vector@U?$pair@V?$basic_string@DU?$char_traits@D@std@@V?$allocator@D@2@@std@@PEAVRegexp@re2@@@std@@V?$allocator@U?$pair@V?$basic_string@DU?$char_traits@D@std@@V?$allocator@D@2@@std@@PEAVRegexp@re2@@@std@@@2@@std@@AEAAXPEAU?$pair@V?$basic_string@DU?$char_traits@D@std@@V?$allocator@D@2@@std@@PEAVRegexp@re2@@@2@00@Z
    ?_Umove_if_noexcept@?$vector@UEntry@PrefilterTree@re2@@V?$allocator@UEntry@PrefilterTree@re2@@@std@@@std@@AEAAXPEAUEntry@PrefilterTree@re2@@00@Z
    ?_Umove_if_noexcept@?$vector@UFrame@re2@@V?$allocator@UFrame@re2@@@std@@@std@@AEAAXPEAUFrame@re2@@00@Z
    ?_Umove_if_noexcept@?$vector@URuneRange@re2@@V?$allocator@URuneRange@re2@@@std@@@std@@AEAAXPEAURuneRange@re2@@00@Z
    ?_Umove_if_noexcept@?$vector@USplice@re2@@V?$allocator@USplice@re2@@@std@@@std@@AEAAXPEAUSplice@re2@@00@Z
    ?_Umove_if_noexcept@?$vector@V?$basic_string@DU?$char_traits@D@std@@V?$allocator@D@2@@std@@V?$allocator@V?$basic_string@DU?$char_traits@D@std@@V?$allocator@D@2@@std@@@2@@std@@AEAAXPEAV?$basic_string@DU?$char_traits@D@std@@V?$allocator@D@2@@2@00@Z
    ?_Umove_if_noexcept@?$vector@V?$vector@HV?$allocator@H@std@@@std@@V?$allocator@V?$vector@HV?$allocator@H@std@@@std@@@2@@std@@AEAAXPEAV?$vector@HV?$allocator@H@std@@@2@00@Z
    ?_Umove_if_noexcept@?$vector@VInst@Prog@re2@@V?$allocator@VInst@Prog@re2@@@std@@@std@@AEAAXPEAVInst@Prog@re2@@00@Z
    ?_Unchecked_begin@?$_Hash@V?$_Umap_traits@PEAUState@DFA@re2@@HV?$_Uhash_compare@PEAUState@DFA@re2@@U?$hash@PEAUState@DFA@re2@@@std@@U?$equal_to@PEAUState@DFA@re2@@@5@@std@@V?$allocator@U?$pair@QEAUState@DFA@re2@@H@std@@@5@$0A@@std@@@std@@QEAA?AV?$_List_unchecked_iterator@V?$_List_val@U?$_List_simple_types@U?$pair@QEAUState@DFA@re2@@H@std@@@std@@@std@@@2@XZ
    ?_Unchecked_begin@?$_Hash@V?$_Umap_traits@_KHV?$_Uhash_compare@_KU?$hash@_K@std@@U?$equal_to@_K@2@@std@@V?$allocator@U?$pair@$$CB_KH@std@@@2@$0A@@std@@@std@@QEAA?AV?$_List_unchecked_iterator@V?$_List_val@U?$_List_simple_types@U?$pair@$$CB_KH@std@@@std@@@std@@@2@XZ
    ?_Unchecked_begin@?$_Hash@V?$_Uset_traits@PEAUState@DFA@re2@@V?$_Uhash_compare@PEAUState@DFA@re2@@UStateHash@23@UStateEqual@23@@std@@V?$allocator@PEAUState@DFA@re2@@@5@$0A@@std@@@std@@QEAA?AV?$_List_unchecked_const_iterator@V?$_List_val@U?$_List_simple_types@PEAUState@DFA@re2@@@std@@@std@@U_Iterator_base0@2@@2@XZ
    ?_Unchecked_begin@?$_Tree@V?$_Tmap_traits@PEAVRegexp@re2@@HU?$less@PEAVRegexp@re2@@@std@@V?$allocator@U?$pair@QEAVRegexp@re2@@H@std@@@4@$0A@@std@@@std@@QEAA?AV?$_Tree_unchecked_iterator@V?$_Tree_val@U?$_Tree_simple_types@U?$pair@QEAVRegexp@re2@@H@std@@@std@@@std@@@2@XZ
    ?_Unchecked_begin@?$deque@PEAUState@DFA@re2@@V?$allocator@PEAUState@DFA@re2@@@std@@@std@@QEAA?AV?$_Deque_unchecked_iterator@V?$_Deque_val@U?$_Deque_simple_types@PEAUState@DFA@re2@@@std@@@std@@@2@XZ
    ?_Unchecked_begin@?$deque@UThread@NFA@re2@@V?$allocator@UThread@NFA@re2@@@std@@@std@@QEAA?AV?$_Deque_unchecked_iterator@V?$_Deque_val@U?$_Deque_simple_types@UThread@NFA@re2@@@std@@@std@@@2@XZ
    ?_Unchecked_begin@?$list@PEAUState@DFA@re2@@V?$allocator@PEAUState@DFA@re2@@@std@@@std@@QEAA?AV?$_List_unchecked_iterator@V?$_List_val@U?$_List_simple_types@PEAUState@DFA@re2@@@std@@@std@@@2@XZ
    ?_Unchecked_begin@?$list@U?$pair@$$CB_KH@std@@V?$allocator@U?$pair@$$CB_KH@std@@@2@@std@@QEAA?AV?$_List_unchecked_iterator@V?$_List_val@U?$_List_simple_types@U?$pair@$$CB_KH@std@@@std@@@std@@@2@XZ
    ?_Unchecked_begin@?$list@U?$pair@QEAUState@DFA@re2@@H@std@@V?$allocator@U?$pair@QEAUState@DFA@re2@@H@std@@@2@@std@@QEAA?AV?$_List_unchecked_iterator@V?$_List_val@U?$_List_simple_types@U?$pair@QEAUState@DFA@re2@@H@std@@@std@@@std@@@2@XZ
    ?_Unchecked_begin@?$vector@HV?$allocator@H@std@@@std@@QEAAPEAHXZ
    ?_Unchecked_end@?$_Hash@V?$_Umap_traits@PEAUState@DFA@re2@@HV?$_Uhash_compare@PEAUState@DFA@re2@@U?$hash@PEAUState@DFA@re2@@@std@@U?$equal_to@PEAUState@DFA@re2@@@5@@std@@V?$allocator@U?$pair@QEAUState@DFA@re2@@H@std@@@5@$0A@@std@@@std@@QEAA?AV?$_List_unchecked_iterator@V?$_List_val@U?$_List_simple_types@U?$pair@QEAUState@DFA@re2@@H@std@@@std@@@std@@@2@XZ
    ?_Unchecked_end@?$_Hash@V?$_Umap_traits@_KHV?$_Uhash_compare@_KU?$hash@_K@std@@U?$equal_to@_K@2@@std@@V?$allocator@U?$pair@$$CB_KH@std@@@2@$0A@@std@@@std@@QEAA?AV?$_List_unchecked_iterator@V?$_List_val@U?$_List_simple_types@U?$pair@$$CB_KH@std@@@std@@@std@@@2@XZ
    ?_Unchecked_end@?$_Hash@V?$_Uset_traits@PEAUState@DFA@re2@@V?$_Uhash_compare@PEAUState@DFA@re2@@UStateHash@23@UStateEqual@23@@std@@V?$allocator@PEAUState@DFA@re2@@@5@$0A@@std@@@std@@QEAA?AV?$_List_unchecked_const_iterator@V?$_List_val@U?$_List_simple_types@PEAUState@DFA@re2@@@std@@@std@@U_Iterator_base0@2@@2@XZ
    ?_Unchecked_end@?$deque@U?$WalkState@H@re2@@V?$allocator@U?$WalkState@H@re2@@@std@@@std@@QEAA?AV?$_Deque_unchecked_iterator@V?$_Deque_val@U?$_Deque_simple_types@U?$WalkState@H@re2@@@std@@@std@@@2@XZ
    ?_Unchecked_end@?$deque@U?$WalkState@PEAVInfo@Prefilter@re2@@@re2@@V?$allocator@U?$WalkState@PEAVInfo@Prefilter@re2@@@re2@@@std@@@std@@QEAA?AV?$_Deque_unchecked_iterator@V?$_Deque_val@U?$_Deque_simple_types@U?$WalkState@PEAVInfo@Prefilter@re2@@@re2@@@std@@@std@@@2@XZ
    ?_Unchecked_end@?$deque@U?$WalkState@PEAVRegexp@re2@@@re2@@V?$allocator@U?$WalkState@PEAVRegexp@re2@@@re2@@@std@@@std@@QEAA?AV?$_Deque_unchecked_iterator@V?$_Deque_val@U?$_Deque_simple_types@U?$WalkState@PEAVRegexp@re2@@@re2@@@std@@@std@@@2@XZ
    ?_Unchecked_end@?$deque@U?$WalkState@UFrag@re2@@@re2@@V?$allocator@U?$WalkState@UFrag@re2@@@re2@@@std@@@std@@QEAA?AV?$_Deque_unchecked_iterator@V?$_Deque_val@U?$_Deque_simple_types@U?$WalkState@UFrag@re2@@@re2@@@std@@@std@@@2@XZ
    ?_Unchecked_end@?$deque@U?$WalkState@_N@re2@@V?$allocator@U?$WalkState@_N@re2@@@std@@@std@@QEAA?AV?$_Deque_unchecked_iterator@V?$_Deque_val@U?$_Deque_simple_types@U?$WalkState@_N@re2@@@std@@@std@@@2@XZ
    ?_Unchecked_end@?$deque@UThread@NFA@re2@@V?$allocator@UThread@NFA@re2@@@std@@@std@@QEAA?AV?$_Deque_unchecked_iterator@V?$_Deque_val@U?$_Deque_simple_types@UThread@NFA@re2@@@std@@@std@@@2@XZ
    ?_Unchecked_end@?$list@PEAUState@DFA@re2@@V?$allocator@PEAUState@DFA@re2@@@std@@@std@@QEAA?AV?$_List_unchecked_iterator@V?$_List_val@U?$_List_simple_types@PEAUState@DFA@re2@@@std@@@std@@@2@XZ
    ?_Unchecked_end@?$list@U?$pair@$$CB_KH@std@@V?$allocator@U?$pair@$$CB_KH@std@@@2@@std@@QEAA?AV?$_List_unchecked_iterator@V?$_List_val@U?$_List_simple_types@U?$pair@$$CB_KH@std@@@std@@@std@@@2@XZ
    ?_Unchecked_end@?$list@U?$pair@QEAUState@DFA@re2@@H@std@@V?$allocator@U?$pair@QEAUState@DFA@re2@@H@std@@@2@@std@@QEAA?AV?$_List_unchecked_iterator@V?$_List_val@U?$_List_simple_types@U?$pair@QEAUState@DFA@re2@@H@std@@@std@@@std@@@2@XZ
    ?_Unchecked_end@?$vector@HV?$allocator@H@std@@@std@@QEAAPEAHXZ
    ?_Unchecked_erase@?$_Hash@V?$_Umap_traits@PEAUState@DFA@re2@@HV?$_Uhash_compare@PEAUState@DFA@re2@@U?$hash@PEAUState@DFA@re2@@@std@@U?$equal_to@PEAUState@DFA@re2@@@5@@std@@V?$allocator@U?$pair@QEAUState@DFA@re2@@H@std@@@5@$0A@@std@@@std@@AEAAPEAU?$_List_node@U?$pair@QEAUState@DFA@re2@@H@std@@PEAX@2@PEAU32@QEAU32@@Z
    ?_Unchecked_erase@?$_Hash@V?$_Umap_traits@_KHV?$_Uhash_compare@_KU?$hash@_K@std@@U?$equal_to@_K@2@@std@@V?$allocator@U?$pair@$$CB_KH@std@@@2@$0A@@std@@@std@@AEAAPEAU?$_List_node@U?$pair@$$CB_KH@std@@PEAX@2@PEAU32@QEAU32@@Z
    ?_Unchecked_splice@?$_List_val@U?$_List_simple_types@PEAUState@DFA@re2@@@std@@@std@@SAPEAU?$_List_node@PEAUState@DFA@re2@@PEAX@2@QEAU32@00@Z
    ?_Unchecked_splice@?$_List_val@U?$_List_simple_types@U?$pair@$$CB_KH@std@@@std@@@std@@SAPEAU?$_List_node@U?$pair@$$CB_KH@std@@PEAX@2@QEAU32@00@Z
    ?_Unchecked_splice@?$_List_val@U?$_List_simple_types@U?$pair@QEAUState@DFA@re2@@H@std@@@std@@@std@@SAPEAU?$_List_node@U?$pair@QEAUState@DFA@re2@@H@std@@PEAX@2@QEAU32@00@Z
    ?_Unwrapped@?$_Tree_const_iterator@V?$_Tree_val@U?$_Tree_simple_types@URuneRange@re2@@@std@@@std@@@std@@QEBA?AV?$_Tree_unchecked_const_iterator@V?$_Tree_val@U?$_Tree_simple_types@URuneRange@re2@@@std@@@std@@U_Iterator_base0@2@@2@XZ
    ?_Unwrapped@?$_Tree_const_iterator@V?$_Tree_val@U?$_Tree_simple_types@V?$basic_string@DU?$char_traits@D@std@@V?$allocator@D@2@@std@@@std@@@std@@@std@@QEBA?AV?$_Tree_unchecked_const_iterator@V?$_Tree_val@U?$_Tree_simple_types@V?$basic_string@DU?$char_traits@D@std@@V?$allocator@D@2@@std@@@std@@@std@@U_Iterator_base0@2@@2@XZ
    ?_Unwrapped@?$_Vector_const_iterator@V?$_Vector_val@U?$_Simple_types@H@std@@@std@@@std@@QEBAPEBHXZ
    ?_Unwrapped@?$_Vector_iterator@V?$_Vector_val@U?$_Simple_types@H@std@@@std@@@std@@QEBAPEAHXZ
    ?_Unwrapped@?$_Vector_iterator@V?$_Vector_val@U?$_Simple_types@U?$pair@HH@std@@@std@@@std@@@std@@QEBAPEAU?$pair@HH@2@XZ
    ?_Unwrapped@?$_Vector_iterator@V?$_Vector_val@U?$_Simple_types@U?$pair@V?$basic_string@DU?$char_traits@D@std@@V?$allocator@D@2@@std@@PEAVRegexp@re2@@@std@@@std@@@std@@@std@@QEBAPEAU?$pair@V?$basic_string@DU?$char_traits@D@std@@V?$allocator@D@2@@std@@PEAVRegexp@re2@@@2@XZ
    ?_Xlen@?$deque@PEAUState@DFA@re2@@V?$allocator@PEAUState@DFA@re2@@@std@@@std@@AEBAXXZ
    ?_Xlen@?$deque@U?$WalkState@H@re2@@V?$allocator@U?$WalkState@H@re2@@@std@@@std@@AEBAXXZ
    ?_Xlen@?$deque@U?$WalkState@PEAVInfo@Prefilter@re2@@@re2@@V?$allocator@U?$WalkState@PEAVInfo@Prefilter@re2@@@re2@@@std@@@std@@AEBAXXZ
    ?_Xlen@?$deque@U?$WalkState@PEAVRegexp@re2@@@re2@@V?$allocator@U?$WalkState@PEAVRegexp@re2@@@re2@@@std@@@std@@AEBAXXZ
    ?_Xlen@?$deque@U?$WalkState@UFrag@re2@@@re2@@V?$allocator@U?$WalkState@UFrag@re2@@@re2@@@std@@@std@@AEBAXXZ
    ?_Xlen@?$deque@U?$WalkState@_N@re2@@V?$allocator@U?$WalkState@_N@re2@@@std@@@std@@AEBAXXZ
    ?_Xlen@?$deque@UThread@NFA@re2@@V?$allocator@UThread@NFA@re2@@@std@@@std@@AEBAXXZ
    ?_Xlen_string@std@@YAXXZ
    ?_Xlength@?$vector@EV?$allocator@E@std@@@std@@CAXXZ
    ?_Xlength@?$vector@HV?$allocator@H@std@@@std@@CAXXZ
    ?_Xlength@?$vector@PEAVPrefilter@re2@@V?$allocator@PEAVPrefilter@re2@@@std@@@std@@CAXXZ
    ?_Xlength@?$vector@PEAVRE2@re2@@V?$allocator@PEAVRE2@re2@@@std@@@std@@CAXXZ
    ?_Xlength@?$vector@PEAVRegexp@re2@@V?$allocator@PEAVRegexp@re2@@@std@@@std@@CAXXZ
    ?_Xlength@?$vector@U?$pair@HH@std@@V?$allocator@U?$pair@HH@std@@@2@@std@@CAXXZ
    ?_Xlength@?$vector@U?$pair@V?$basic_string@DU?$char_traits@D@std@@V?$allocator@D@2@@std@@PEAVRegexp@re2@@@std@@V?$allocator@U?$pair@V?$basic_string@DU?$char_traits@D@std@@V?$allocator@D@2@@std@@PEAVRegexp@re2@@@std@@@2@@std@@CAXXZ
    ?_Xlength@?$vector@UEntry@PrefilterTree@re2@@V?$allocator@UEntry@PrefilterTree@re2@@@std@@@std@@CAXXZ
    ?_Xlength@?$vector@UFrame@re2@@V?$allocator@UFrame@re2@@@std@@@std@@CAXXZ
    ?_Xlength@?$vector@URuneRange@re2@@V?$allocator@URuneRange@re2@@@std@@@std@@CAXXZ
    ?_Xlength@?$vector@USplice@re2@@V?$allocator@USplice@re2@@@std@@@std@@CAXXZ
    ?_Xlength@?$vector@V?$basic_string@DU?$char_traits@D@std@@V?$allocator@D@2@@std@@V?$allocator@V?$basic_string@DU?$char_traits@D@std@@V?$allocator@D@2@@std@@@2@@std@@CAXXZ
    ?_Xlength@?$vector@V?$vector@HV?$allocator@H@std@@@std@@V?$allocator@V?$vector@HV?$allocator@H@std@@@std@@@2@@std@@CAXXZ
    ?_Xlength@?$vector@VInst@Prog@re2@@V?$allocator@VInst@Prog@re2@@@std@@@std@@CAXXZ
    ?_Xran@?$_String_val@U?$_Simple_types@D@std@@@std@@SAXXZ
    ?allocate@?$allocator@D@std@@QEAAPEAD_K@Z
    ?allocate@?$allocator@E@std@@QEAAPEAE_K@Z
    ?allocate@?$allocator@G@std@@QEAAPEAG_K@Z
    ?allocate@?$allocator@H@std@@QEAAPEAH_K@Z
    ?allocate@?$allocator@PEAPEAUState@DFA@re2@@@std@@QEAAPEAPEAPEAUState@DFA@re2@@_K@Z
    ?allocate@?$allocator@PEAU?$WalkState@H@re2@@@std@@QEAAPEAPEAU?$WalkState@H@re2@@_K@Z
    ?allocate@?$allocator@PEAU?$WalkState@PEAVInfo@Prefilter@re2@@@re2@@@std@@QEAAPEAPEAU?$WalkState@PEAVInfo@Prefilter@re2@@@re2@@_K@Z
    ?allocate@?$allocator@PEAU?$WalkState@PEAVRegexp@re2@@@re2@@@std@@QEAAPEAPEAU?$WalkState@PEAVRegexp@re2@@@re2@@_K@Z
    ?allocate@?$allocator@PEAU?$WalkState@UFrag@re2@@@re2@@@std@@QEAAPEAPEAU?$WalkState@UFrag@re2@@@re2@@_K@Z
    ?allocate@?$allocator@PEAU?$WalkState@_N@re2@@@std@@QEAAPEAPEAU?$WalkState@_N@re2@@_K@Z
    ?allocate@?$allocator@PEAUState@DFA@re2@@@std@@QEAAPEAPEAUState@DFA@re2@@_K@Z
    ?allocate@?$allocator@PEAUThread@NFA@re2@@@std@@QEAAPEAPEAUThread@NFA@re2@@_K@Z
    ?allocate@?$allocator@PEAVPrefilter@re2@@@std@@QEAAPEAPEAVPrefilter@re2@@_K@Z
    ?allocate@?$allocator@PEAVRE2@re2@@@std@@QEAAPEAPEAVRE2@re2@@_K@Z
    ?allocate@?$allocator@PEAVRegexp@re2@@@std@@QEAAPEAPEAVRegexp@re2@@_K@Z
    ?allocate@?$allocator@PEBD@std@@QEAAPEAPEBD_K@Z
    ?allocate@?$allocator@U?$WalkState@H@re2@@@std@@QEAAPEAU?$WalkState@H@re2@@_K@Z
    ?allocate@?$allocator@U?$WalkState@PEAVInfo@Prefilter@re2@@@re2@@@std@@QEAAPEAU?$WalkState@PEAVInfo@Prefilter@re2@@@re2@@_K@Z
    ?allocate@?$allocator@U?$WalkState@PEAVRegexp@re2@@@re2@@@std@@QEAAPEAU?$WalkState@PEAVRegexp@re2@@@re2@@_K@Z
    ?allocate@?$allocator@U?$WalkState@UFrag@re2@@@re2@@@std@@QEAAPEAU?$WalkState@UFrag@re2@@@re2@@_K@Z
    ?allocate@?$allocator@U?$WalkState@_N@re2@@@std@@QEAAPEAU?$WalkState@_N@re2@@_K@Z
    ?allocate@?$allocator@U?$_List_node@PEAUState@DFA@re2@@PEAX@std@@@std@@QEAAPEAU?$_List_node@PEAUState@DFA@re2@@PEAX@2@_K@Z
    ?allocate@?$allocator@U?$_List_node@U?$pair@$$CB_KH@std@@PEAX@std@@@std@@QEAAPEAU?$_List_node@U?$pair@$$CB_KH@std@@PEAX@2@_K@Z
    ?allocate@?$allocator@U?$_List_node@U?$pair@QEAUState@DFA@re2@@H@std@@PEAX@std@@@std@@QEAAPEAU?$_List_node@U?$pair@QEAUState@DFA@re2@@H@std@@PEAX@2@_K@Z
    ?allocate@?$allocator@U?$_Tree_node@HPEAX@std@@@std@@QEAAPEAU?$_Tree_node@HPEAX@2@_K@Z
    ?allocate@?$allocator@U?$_Tree_node@U?$pair@$$CBHH@std@@PEAX@std@@@std@@QEAAPEAU?$_Tree_node@U?$pair@$$CBHH@std@@PEAX@2@_K@Z
    ?allocate@?$allocator@U?$_Tree_node@U?$pair@$$CBHV?$basic_string@DU?$char_traits@D@std@@V?$allocator@D@2@@std@@@std@@PEAX@std@@@std@@QEAAPEAU?$_Tree_node@U?$pair@$$CBHV?$basic_string@DU?$char_traits@D@std@@V?$allocator@D@2@@std@@@std@@PEAX@2@_K@Z
    ?allocate@?$allocator@U?$_Tree_node@U?$pair@$$CBV?$basic_string@DU?$char_traits@D@std@@V?$allocator@D@2@@std@@H@std@@PEAX@std@@@std@@QEAAPEAU?$_Tree_node@U?$pair@$$CBV?$basic_string@DU?$char_traits@D@std@@V?$allocator@D@2@@std@@H@std@@PEAX@2@_K@Z
    ?allocate@?$allocator@U?$_Tree_node@U?$pair@$$CBV?$basic_string@DU?$char_traits@D@std@@V?$allocator@D@2@@std@@PEAVPrefilter@re2@@@std@@PEAX@std@@@std@@QEAAPEAU?$_Tree_node@U?$pair@$$CBV?$basic_string@DU?$char_traits@D@std@@V?$allocator@D@2@@std@@PEAVPrefilter@re2@@@std@@PEAX@2@_K@Z
    ?allocate@?$allocator@U?$_Tree_node@U?$pair@QEAVRegexp@re2@@H@std@@PEAX@std@@@std@@QEAAPEAU?$_Tree_node@U?$pair@QEAVRegexp@re2@@H@std@@PEAX@2@_K@Z
    ?allocate@?$allocator@U?$_Tree_node@URuneRange@re2@@PEAX@std@@@std@@QEAAPEAU?$_Tree_node@URuneRange@re2@@PEAX@2@_K@Z
    ?allocate@?$allocator@U?$_Tree_node@V?$basic_string@DU?$char_traits@D@std@@V?$allocator@D@2@@std@@PEAX@std@@@std@@QEAAPEAU?$_Tree_node@V?$basic_string@DU?$char_traits@D@std@@V?$allocator@D@2@@std@@PEAX@2@_K@Z
    ?allocate@?$allocator@U?$pair@HH@std@@@std@@QEAAPEAU?$pair@HH@2@_K@Z
    ?allocate@?$allocator@U?$pair@V?$basic_string@DU?$char_traits@D@std@@V?$allocator@D@2@@std@@PEAVRegexp@re2@@@std@@@std@@QEAAPEAU?$pair@V?$basic_string@DU?$char_traits@D@std@@V?$allocator@D@2@@std@@PEAVRegexp@re2@@@2@_K@Z
    ?allocate@?$allocator@UAddState@NFA@re2@@@std@@QEAAPEAUAddState@NFA@re2@@_K@Z
    ?allocate@?$allocator@UEntry@PrefilterTree@re2@@@std@@QEAAPEAUEntry@PrefilterTree@re2@@_K@Z
    ?allocate@?$allocator@UFrame@re2@@@std@@QEAAPEAUFrame@re2@@_K@Z
    ?allocate@?$allocator@UInstCond@re2@@@std@@QEAAPEAUInstCond@re2@@_K@Z
    ?allocate@?$allocator@UJob@re2@@@std@@QEAAPEAUJob@re2@@_K@Z
    ?allocate@?$allocator@URuneRange@re2@@@std@@QEAAPEAURuneRange@re2@@_K@Z
    ?allocate@?$allocator@USplice@re2@@@std@@QEAAPEAUSplice@re2@@_K@Z
    ?allocate@?$allocator@UThread@NFA@re2@@@std@@QEAAPEAUThread@NFA@re2@@_K@Z
    ?allocate@?$allocator@U_Container_proxy@std@@@std@@QEAAPEAU_Container_proxy@2@_K@Z
    ?allocate@?$allocator@V?$_List_unchecked_const_iterator@V?$_List_val@U?$_List_simple_types@PEAUState@DFA@re2@@@std@@@std@@U_Iterator_base0@2@@std@@@std@@QEAAPEAV?$_List_unchecked_const_iterator@V?$_List_val@U?$_List_simple_types@PEAUState@DFA@re2@@@std@@@std@@U_Iterator_base0@2@@2@_K@Z
    ?allocate@?$allocator@V?$_List_unchecked_iterator@V?$_List_val@U?$_List_simple_types@U?$pair@$$CB_KH@std@@@std@@@std@@@std@@@std@@QEAAPEAV?$_List_unchecked_iterator@V?$_List_val@U?$_List_simple_types@U?$pair@$$CB_KH@std@@@std@@@std@@@2@_K@Z
    ?allocate@?$allocator@V?$_List_unchecked_iterator@V?$_List_val@U?$_List_simple_types@U?$pair@QEAUState@DFA@re2@@H@std@@@std@@@std@@@std@@@std@@QEAAPEAV?$_List_unchecked_iterator@V?$_List_val@U?$_List_simple_types@U?$pair@QEAUState@DFA@re2@@H@std@@@std@@@std@@@2@_K@Z
    ?allocate@?$allocator@V?$basic_string@DU?$char_traits@D@std@@V?$allocator@D@2@@std@@@std@@QEAAPEAV?$basic_string@DU?$char_traits@D@std@@V?$allocator@D@2@@2@_K@Z
    ?allocate@?$allocator@V?$vector@HV?$allocator@H@std@@@std@@@std@@QEAAPEAV?$vector@HV?$allocator@H@std@@@2@_K@Z
    ?allocate@?$allocator@VIndexValue@?$SparseArray@H@re2@@@std@@QEAAPEAVIndexValue@?$SparseArray@H@re2@@_K@Z
    ?allocate@?$allocator@VIndexValue@?$SparseArray@PEAUThread@NFA@re2@@@re2@@@std@@QEAAPEAVIndexValue@?$SparseArray@PEAUThread@NFA@re2@@@re2@@_K@Z
    ?allocate@?$allocator@VInst@Prog@re2@@@std@@QEAAPEAVInst@Prog@re2@@_K@Z
    ?allocate@?$allocator@_K@std@@QEAAPEA_K_K@Z
    ?anchor_end@Prog@re2@@QEAA_NXZ
    ?anchor_start@Prog@re2@@QEAA_NXZ
    ?append@?$basic_string@DU?$char_traits@D@std@@V?$allocator@D@2@@std@@QEAAAEAV12@AEBV12@@Z
    ?append@?$basic_string@DU?$char_traits@D@std@@V?$allocator@D@2@@std@@QEAAAEAV12@QEBD@Z
    ?append@?$basic_string@DU?$char_traits@D@std@@V?$allocator@D@2@@std@@QEAAAEAV12@QEBD_K@Z
    ?append@?$basic_string@DU?$char_traits@D@std@@V?$allocator@D@2@@std@@QEAAAEAV12@_KD@Z
    ?assign@?$_Narrow_char_traits@DH@std@@SAPEADQEAD_KD@Z
    ?assign@?$_Narrow_char_traits@DH@std@@SAXAEADAEBD@Z
    ?assign@?$basic_string@DU?$char_traits@D@std@@V?$allocator@D@2@@std@@QEAAAEAV12@AEBV12@_K_K@Z
    ?assign@?$basic_string@DU?$char_traits@D@std@@V?$allocator@D@2@@std@@QEAAAEAV12@QEBD@Z
    ?assign@?$basic_string@DU?$char_traits@D@std@@V?$allocator@D@2@@std@@QEAAAEAV12@QEBD_K@Z
    ?atom@Prefilter@re2@@QEBAAEBV?$basic_string@DU?$char_traits@D@std@@V?$allocator@D@2@@std@@XZ
    ?back@?$basic_string@DU?$char_traits@D@std@@V?$allocator@D@2@@std@@QEAAAEADXZ
    ?back@?$deque@U?$WalkState@H@re2@@V?$allocator@U?$WalkState@H@re2@@@std@@@std@@QEAAAEAU?$WalkState@H@re2@@XZ
    ?back@?$deque@U?$WalkState@PEAVInfo@Prefilter@re2@@@re2@@V?$allocator@U?$WalkState@PEAVInfo@Prefilter@re2@@@re2@@@std@@@std@@QEAAAEAU?$WalkState@PEAVInfo@Prefilter@re2@@@re2@@XZ
    ?back@?$deque@U?$WalkState@PEAVRegexp@re2@@@re2@@V?$allocator@U?$WalkState@PEAVRegexp@re2@@@re2@@@std@@@std@@QEAAAEAU?$WalkState@PEAVRegexp@re2@@@re2@@XZ
    ?back@?$deque@U?$WalkState@UFrag@re2@@@re2@@V?$allocator@U?$WalkState@UFrag@re2@@@re2@@@std@@@std@@QEAAAEAU?$WalkState@UFrag@re2@@@re2@@XZ
    ?back@?$deque@U?$WalkState@_N@re2@@V?$allocator@U?$WalkState@_N@re2@@@std@@@std@@QEAAAEAU?$WalkState@_N@re2@@XZ
    ?back@?$deque@UThread@NFA@re2@@V?$allocator@UThread@NFA@re2@@@std@@@std@@QEAAAEAUThread@NFA@re2@@XZ
    ?back@?$vector@HV?$allocator@H@std@@@std@@QEAAAEAHXZ
    ?back@?$vector@UFrame@re2@@V?$allocator@UFrame@re2@@@std@@@std@@QEAAAEAUFrame@re2@@XZ
    ?back@?$vector@VInst@Prog@re2@@V?$allocator@VInst@Prog@re2@@@std@@@std@@QEAAAEAVInst@Prog@re2@@XZ
    ?begin@?$SparseArray@H@re2@@QEAAPEAVIndexValue@12@XZ
    ?begin@?$SparseArray@PEAUThread@NFA@re2@@@re2@@QEAAPEAVIndexValue@12@XZ
    ?begin@?$SparseSetT@X@re2@@QEAAPEAHXZ
    ?begin@?$_Hash@V?$_Uset_traits@PEAUState@DFA@re2@@V?$_Uhash_compare@PEAUState@DFA@re2@@UStateHash@23@UStateEqual@23@@std@@V?$allocator@PEAUState@DFA@re2@@@5@$0A@@std@@@std@@QEAA?AV?$_List_const_iterator@V?$_List_val@U?$_List_simple_types@PEAUState@DFA@re2@@@std@@@std@@@2@XZ
    ?begin@?$_Tree@V?$_Tmap_traits@HHU?$less@H@std@@V?$allocator@U?$pair@$$CBHH@std@@@2@$0A@@std@@@std@@QEAA?AV?$_Tree_iterator@V?$_Tree_val@U?$_Tree_simple_types@U?$pair@$$CBHH@std@@@std@@@std@@@2@XZ
    ?begin@?$_Tree@V?$_Tmap_traits@V?$basic_string@DU?$char_traits@D@std@@V?$allocator@D@2@@std@@PEAVPrefilter@re2@@U?$less@V?$basic_string@DU?$char_traits@D@std@@V?$allocator@D@2@@std@@@2@V?$allocator@U?$pair@$$CBV?$basic_string@DU?$char_traits@D@std@@V?$allocator@D@2@@std@@PEAVPrefilter@re2@@@std@@@2@$0A@@std@@@std@@QEAA?AV?$_Tree_iterator@V?$_Tree_val@U?$_Tree_simple_types@U?$pair@$$CBV?$basic_string@DU?$char_traits@D@std@@V?$allocator@D@2@@std@@PEAVPrefilter@re2@@@std@@@std@@@std@@@2@XZ
    ?begin@?$_Tree@V?$_Tset_traits@URuneRange@re2@@URuneRangeLess@2@V?$allocator@URuneRange@re2@@@std@@$0A@@std@@@std@@QEAA?AV?$_Tree_const_iterator@V?$_Tree_val@U?$_Tree_simple_types@URuneRange@re2@@@std@@@std@@@2@XZ
    ?begin@?$_Tree@V?$_Tset_traits@V?$basic_string@DU?$char_traits@D@std@@V?$allocator@D@2@@std@@U?$less@V?$basic_string@DU?$char_traits@D@std@@V?$allocator@D@2@@std@@@2@V?$allocator@V?$basic_string@DU?$char_traits@D@std@@V?$allocator@D@2@@std@@@2@$0A@@std@@@std@@QEAA?AV?$_Tree_const_iterator@V?$_Tree_val@U?$_Tree_simple_types@V?$basic_string@DU?$char_traits@D@std@@V?$allocator@D@2@@std@@@std@@@std@@@2@XZ
    ?begin@?$_Tree@V?$_Tset_traits@V?$basic_string@DU?$char_traits@D@std@@V?$allocator@D@2@@std@@U?$less@V?$basic_string@DU?$char_traits@D@std@@V?$allocator@D@2@@std@@@2@V?$allocator@V?$basic_string@DU?$char_traits@D@std@@V?$allocator@D@2@@std@@@2@$0A@@std@@@std@@QEBA?AV?$_Tree_const_iterator@V?$_Tree_val@U?$_Tree_simple_types@V?$basic_string@DU?$char_traits@D@std@@V?$allocator@D@2@@std@@@std@@@std@@@2@XZ
    ?begin@?$initializer_list@H@std@@QEBAPEBHXZ
    ?begin@?$initializer_list@_N@std@@QEBAPEB_NXZ
    ?begin@?$list@PEAUState@DFA@re2@@V?$allocator@PEAUState@DFA@re2@@@std@@@std@@QEAA?AV?$_List_iterator@V?$_List_val@U?$_List_simple_types@PEAUState@DFA@re2@@@std@@@std@@@2@XZ
    ?begin@?$vector@HV?$allocator@H@std@@@std@@QEAA?AV?$_Vector_iterator@V?$_Vector_val@U?$_Simple_types@H@std@@@std@@@2@XZ
    ?begin@?$vector@HV?$allocator@H@std@@@std@@QEBA?AV?$_Vector_const_iterator@V?$_Vector_val@U?$_Simple_types@H@std@@@std@@@2@XZ
    ?begin@?$vector@U?$pair@HH@std@@V?$allocator@U?$pair@HH@std@@@2@@std@@QEAA?AV?$_Vector_iterator@V?$_Vector_val@U?$_Simple_types@U?$pair@HH@std@@@std@@@std@@@2@XZ
    ?begin@?$vector@U?$pair@V?$basic_string@DU?$char_traits@D@std@@V?$allocator@D@2@@std@@PEAVRegexp@re2@@@std@@V?$allocator@U?$pair@V?$basic_string@DU?$char_traits@D@std@@V?$allocator@D@2@@std@@PEAVRegexp@re2@@@std@@@2@@std@@QEAA?AV?$_Vector_iterator@V?$_Vector_val@U?$_Simple_types@U?$pair@V?$basic_string@DU?$char_traits@D@std@@V?$allocator@D@2@@std@@PEAVRegexp@re2@@@std@@@std@@@std@@@2@XZ
    ?begin@?$vector@USplice@re2@@V?$allocator@USplice@re2@@@std@@@std@@QEAA?AV?$_Vector_iterator@V?$_Vector_val@U?$_Simple_types@USplice@re2@@@std@@@std@@@2@XZ
    ?begin@CharClass@re2@@QEAAPEAURuneRange@2@XZ
    ?begin@CharClassBuilder@re2@@QEAA?AV?$_Tree_const_iterator@V?$_Tree_val@U?$_Tree_simple_types@URuneRange@re2@@@std@@@std@@@std@@XZ
    ?begin@StringPiece@re2@@QEBAPEBDXZ
    ?bucket@?$_Hash@V?$_Umap_traits@PEAUState@DFA@re2@@HV?$_Uhash_compare@PEAUState@DFA@re2@@U?$hash@PEAUState@DFA@re2@@@std@@U?$equal_to@PEAUState@DFA@re2@@@5@@std@@V?$allocator@U?$pair@QEAUState@DFA@re2@@H@std@@@5@$0A@@std@@@std@@QEBA_KAEBQEAUState@DFA@re2@@@Z
    ?bucket@?$_Hash@V?$_Umap_traits@_KHV?$_Uhash_compare@_KU?$hash@_K@std@@U?$equal_to@_K@2@@std@@V?$allocator@U?$pair@$$CB_KH@std@@@2@$0A@@std@@@std@@QEBA_KAEB_K@Z
    ?bucket@?$_Hash@V?$_Uset_traits@PEAUState@DFA@re2@@V?$_Uhash_compare@PEAUState@DFA@re2@@UStateHash@23@UStateEqual@23@@std@@V?$allocator@PEAUState@DFA@re2@@@5@$0A@@std@@@std@@QEBA_KAEBQEAUState@DFA@re2@@@Z
    ?bucket_count@?$_Hash@V?$_Umap_traits@PEAUState@DFA@re2@@HV?$_Uhash_compare@PEAUState@DFA@re2@@U?$hash@PEAUState@DFA@re2@@@std@@U?$equal_to@PEAUState@DFA@re2@@@5@@std@@V?$allocator@U?$pair@QEAUState@DFA@re2@@H@std@@@5@$0A@@std@@@std@@QEBA_KXZ
    ?bucket_count@?$_Hash@V?$_Umap_traits@_KHV?$_Uhash_compare@_KU?$hash@_K@std@@U?$equal_to@_K@2@@std@@V?$allocator@U?$pair@$$CB_KH@std@@@2@$0A@@std@@@std@@QEBA_KXZ
    ?bucket_count@?$_Hash@V?$_Uset_traits@PEAUState@DFA@re2@@V?$_Uhash_compare@PEAUState@DFA@re2@@UStateHash@23@UStateEqual@23@@std@@V?$allocator@PEAUState@DFA@re2@@@5@$0A@@std@@@std@@QEBA_KXZ
    ?bytemap@Prog@re2@@QEAAPEBEXZ
    ?bytemap_range@Prog@re2@@QEAAHXZ
    ?c_str@?$basic_string@DU?$char_traits@D@std@@V?$allocator@D@2@@std@@QEBAPEBDXZ
    ?can_prefix_accel@Prog@re2@@QEAA_NXZ
    ?cap@Inst@Prog@re2@@QEAAHXZ
    ?cap@Regexp@re2@@QEAAHXZ
    ?capacity@?$vector@EV?$allocator@E@std@@@std@@QEBA_KXZ
    ?capacity@?$vector@HV?$allocator@H@std@@@std@@QEBA_KXZ
    ?capacity@?$vector@PEAVPrefilter@re2@@V?$allocator@PEAVPrefilter@re2@@@std@@@std@@QEBA_KXZ
    ?capacity@?$vector@PEAVRE2@re2@@V?$allocator@PEAVRE2@re2@@@std@@@std@@QEBA_KXZ
    ?capacity@?$vector@PEAVRegexp@re2@@V?$allocator@PEAVRegexp@re2@@@std@@@std@@QEBA_KXZ
    ?capacity@?$vector@U?$pair@HH@std@@V?$allocator@U?$pair@HH@std@@@2@@std@@QEBA_KXZ
    ?capacity@?$vector@U?$pair@V?$basic_string@DU?$char_traits@D@std@@V?$allocator@D@2@@std@@PEAVRegexp@re2@@@std@@V?$allocator@U?$pair@V?$basic_string@DU?$char_traits@D@std@@V?$allocator@D@2@@std@@PEAVRegexp@re2@@@std@@@2@@std@@QEBA_KXZ
    ?capacity@?$vector@UEntry@PrefilterTree@re2@@V?$allocator@UEntry@PrefilterTree@re2@@@std@@@std@@QEBA_KXZ
    ?capacity@?$vector@UFrame@re2@@V?$allocator@UFrame@re2@@@std@@@std@@QEBA_KXZ
    ?capacity@?$vector@URuneRange@re2@@V?$allocator@URuneRange@re2@@@std@@@std@@QEBA_KXZ
    ?capacity@?$vector@USplice@re2@@V?$allocator@USplice@re2@@@std@@@std@@QEBA_KXZ
    ?capacity@?$vector@V?$basic_string@DU?$char_traits@D@std@@V?$allocator@D@2@@std@@V?$allocator@V?$basic_string@DU?$char_traits@D@std@@V?$allocator@D@2@@std@@@2@@std@@QEBA_KXZ
    ?capacity@?$vector@V?$vector@HV?$allocator@H@std@@@std@@V?$allocator@V?$vector@HV?$allocator@H@std@@@std@@@2@@std@@QEBA_KXZ
    ?capacity@?$vector@VInst@Prog@re2@@V?$allocator@VInst@Prog@re2@@@std@@@std@@QEBA_KXZ
    ?case_sensitive@Options@RE2@re2@@QEBA_NXZ
    ?cc@Regexp@re2@@QEAAPEAVCharClass@2@XZ
    ?chartorune@re2@@YAHPEAHPEBD@Z
    ?clear@?$SparseArray@H@re2@@QEAAXXZ
    ?clear@?$SparseArray@PEAUThread@NFA@re2@@@re2@@QEAAXXZ
    ?clear@?$SparseSetT@X@re2@@QEAAXXZ
    ?clear@?$_Hash@V?$_Umap_traits@PEAUState@DFA@re2@@HV?$_Uhash_compare@PEAUState@DFA@re2@@U?$hash@PEAUState@DFA@re2@@@std@@U?$equal_to@PEAUState@DFA@re2@@@5@@std@@V?$allocator@U?$pair@QEAUState@DFA@re2@@H@std@@@5@$0A@@std@@@std@@QEAAXXZ
    ?clear@?$_Hash@V?$_Umap_traits@_KHV?$_Uhash_compare@_KU?$hash@_K@std@@U?$equal_to@_K@2@@std@@V?$allocator@U?$pair@$$CB_KH@std@@@2@$0A@@std@@@std@@QEAAXXZ
    ?clear@?$_Hash@V?$_Uset_traits@PEAUState@DFA@re2@@V?$_Uhash_compare@PEAUState@DFA@re2@@UStateHash@23@UStateEqual@23@@std@@V?$allocator@PEAUState@DFA@re2@@@5@$0A@@std@@@std@@QEAAXXZ
    ?clear@?$_Tree@V?$_Tmap_traits@HHU?$less@H@std@@V?$allocator@U?$pair@$$CBHH@std@@@2@$0A@@std@@@std@@QEAAXXZ
    ?clear@?$_Tree@V?$_Tmap_traits@PEAVRegexp@re2@@HU?$less@PEAVRegexp@re2@@@std@@V?$allocator@U?$pair@QEAVRegexp@re2@@H@std@@@4@$0A@@std@@@std@@QEAAXXZ
    ?clear@?$_Tree@V?$_Tset_traits@URuneRange@re2@@URuneRangeLess@2@V?$allocator@URuneRange@re2@@@std@@$0A@@std@@@std@@QEAAXXZ
    ?clear@?$basic_string@DU?$char_traits@D@std@@V?$allocator@D@2@@std@@QEAAXXZ
    ?clear@?$list@PEAUState@DFA@re2@@V?$allocator@PEAUState@DFA@re2@@@std@@@std@@QEAAXXZ
    ?clear@?$list@U?$pair@$$CB_KH@std@@V?$allocator@U?$pair@$$CB_KH@std@@@2@@std@@QEAAXXZ
    ?clear@?$list@U?$pair@QEAUState@DFA@re2@@H@std@@V?$allocator@U?$pair@QEAUState@DFA@re2@@H@std@@@2@@std@@QEAAXXZ
    ?clear@?$vector@HV?$allocator@H@std@@@std@@QEAAXXZ
    ?clear@?$vector@PEAVPrefilter@re2@@V?$allocator@PEAVPrefilter@re2@@@std@@@std@@QEAAXXZ
    ?clear@?$vector@PEAVRE2@re2@@V?$allocator@PEAVRE2@re2@@@std@@@std@@QEAAXXZ
    ?clear@?$vector@U?$pair@HH@std@@V?$allocator@U?$pair@HH@std@@@2@@std@@QEAAXXZ
    ?clear@?$vector@U?$pair@V?$basic_string@DU?$char_traits@D@std@@V?$allocator@D@2@@std@@PEAVRegexp@re2@@@std@@V?$allocator@U?$pair@V?$basic_string@DU?$char_traits@D@std@@V?$allocator@D@2@@std@@PEAVRegexp@re2@@@std@@@2@@std@@QEAAXXZ
    ?clear@?$vector@USplice@re2@@V?$allocator@USplice@re2@@@std@@@std@@QEAAXXZ
    ?clear@?$vector@V?$basic_string@DU?$char_traits@D@std@@V?$allocator@D@2@@std@@V?$allocator@V?$basic_string@DU?$char_traits@D@std@@V?$allocator@D@2@@std@@@2@@std@@QEAAXXZ
    ?clear@Workq@DFA@re2@@QEAAXXZ
    ?code@RegexpStatus@re2@@QEBA?AW4RegexpStatusCode@2@XZ
    ?compare@?$_Narrow_char_traits@DH@std@@SAHQEBD0_K@Z
    ?compare@?$basic_string@DU?$char_traits@D@std@@V?$allocator@D@2@@std@@QEBAHAEBV12@@Z
    ?contains@?$SparseSetT@X@re2@@QEBA_NH@Z
    ?context@hooks@re2@@3PEBVRE2@2@EB
    ?copy@StringPiece@re2@@QEBA_KPEAD_K1@Z
    ?create_index@?$SparseArray@H@re2@@AEAAXH@Z
    ?create_index@?$SparseArray@PEAUThread@NFA@re2@@@re2@@AEAAXH@Z
    ?create_index@?$SparseSetT@X@re2@@AEAAXH@Z
    ?data@?$PODArray@E@re2@@QEBAPEAEXZ
    ?data@?$PODArray@G@re2@@QEBAPEAGXZ
    ?data@?$PODArray@H@re2@@QEBAPEAHXZ
    ?data@?$PODArray@PEAVRegexp@re2@@@re2@@QEBAPEAPEAVRegexp@2@XZ
    ?data@?$PODArray@PEBD@re2@@QEBAPEAPEBDXZ
    ?data@?$PODArray@UAddState@NFA@re2@@@re2@@QEBAPEAUAddState@NFA@2@XZ
    ?data@?$PODArray@UJob@re2@@@re2@@QEBAPEAUJob@2@XZ
    ?data@?$PODArray@VIndexValue@?$SparseArray@H@re2@@@re2@@QEBAPEAVIndexValue@?$SparseArray@H@2@XZ
    ?data@?$PODArray@VIndexValue@?$SparseArray@PEAUThread@NFA@re2@@@re2@@@re2@@QEBAPEAVIndexValue@?$SparseArray@PEAUThread@NFA@re2@@@2@XZ
    ?data@?$PODArray@VInst@Prog@re2@@@re2@@QEBAPEAVInst@Prog@2@XZ
    ?data@?$PODArray@_K@re2@@QEBAPEA_KXZ
    ?data@?$basic_string@DU?$char_traits@D@std@@V?$allocator@D@2@@std@@QEAAPEADXZ
    ?data@?$basic_string@DU?$char_traits@D@std@@V?$allocator@D@2@@std@@QEBAPEBDXZ
    ?data@?$vector@EV?$allocator@E@std@@@std@@QEAAPEAEXZ
    ?data@?$vector@HV?$allocator@H@std@@@std@@QEAAPEAHXZ
    ?data@?$vector@VInst@Prog@re2@@V?$allocator@VInst@Prog@re2@@@std@@@std@@QEAAPEAVInst@Prog@re2@@XZ
    ?data@StringPiece@re2@@QEBAPEBDXZ
    ?deallocate@?$_Default_allocator_traits@V?$allocator@U?$_List_node@PEAUState@DFA@re2@@PEAX@std@@@std@@@std@@SAXAEAV?$allocator@U?$_List_node@PEAUState@DFA@re2@@PEAX@std@@@2@QEAU?$_List_node@PEAUState@DFA@re2@@PEAX@2@_K@Z
    ?deallocate@?$_Default_allocator_traits@V?$allocator@U?$_List_node@U?$pair@$$CB_KH@std@@PEAX@std@@@std@@@std@@SAXAEAV?$allocator@U?$_List_node@U?$pair@$$CB_KH@std@@PEAX@std@@@2@QEAU?$_List_node@U?$pair@$$CB_KH@std@@PEAX@2@_K@Z
    ?deallocate@?$_Default_allocator_traits@V?$allocator@U?$_List_node@U?$pair@QEAUState@DFA@re2@@H@std@@PEAX@std@@@std@@@std@@SAXAEAV?$allocator@U?$_List_node@U?$pair@QEAUState@DFA@re2@@H@std@@PEAX@std@@@2@QEAU?$_List_node@U?$pair@QEAUState@DFA@re2@@H@std@@PEAX@2@_K@Z
    ?deallocate@?$_Default_allocator_traits@V?$allocator@U?$_Tree_node@HPEAX@std@@@std@@@std@@SAXAEAV?$allocator@U?$_Tree_node@HPEAX@std@@@2@QEAU?$_Tree_node@HPEAX@2@_K@Z
    ?deallocate@?$_Default_allocator_traits@V?$allocator@U?$_Tree_node@U?$pair@$$CBHH@std@@PEAX@std@@@std@@@std@@SAXAEAV?$allocator@U?$_Tree_node@U?$pair@$$CBHH@std@@PEAX@std@@@2@QEAU?$_Tree_node@U?$pair@$$CBHH@std@@PEAX@2@_K@Z
    ?deallocate@?$_Default_allocator_traits@V?$allocator@U?$_Tree_node@U?$pair@$$CBHV?$basic_string@DU?$char_traits@D@std@@V?$allocator@D@2@@std@@@std@@PEAX@std@@@std@@@std@@SAXAEAV?$allocator@U?$_Tree_node@U?$pair@$$CBHV?$basic_string@DU?$char_traits@D@std@@V?$allocator@D@2@@std@@@std@@PEAX@std@@@2@QEAU?$_Tree_node@U?$pair@$$CBHV?$basic_string@DU?$char_traits@D@std@@V?$allocator@D@2@@std@@@std@@PEAX@2@_K@Z
    ?deallocate@?$_Default_allocator_traits@V?$allocator@U?$_Tree_node@U?$pair@$$CBV?$basic_string@DU?$char_traits@D@std@@V?$allocator@D@2@@std@@H@std@@PEAX@std@@@std@@@std@@SAXAEAV?$allocator@U?$_Tree_node@U?$pair@$$CBV?$basic_string@DU?$char_traits@D@std@@V?$allocator@D@2@@std@@H@std@@PEAX@std@@@2@QEAU?$_Tree_node@U?$pair@$$CBV?$basic_string@DU?$char_traits@D@std@@V?$allocator@D@2@@std@@H@std@@PEAX@2@_K@Z
    ?deallocate@?$_Default_allocator_traits@V?$allocator@U?$_Tree_node@U?$pair@$$CBV?$basic_string@DU?$char_traits@D@std@@V?$allocator@D@2@@std@@PEAVPrefilter@re2@@@std@@PEAX@std@@@std@@@std@@SAXAEAV?$allocator@U?$_Tree_node@U?$pair@$$CBV?$basic_string@DU?$char_traits@D@std@@V?$allocator@D@2@@std@@PEAVPrefilter@re2@@@std@@PEAX@std@@@2@QEAU?$_Tree_node@U?$pair@$$CBV?$basic_string@DU?$char_traits@D@std@@V?$allocator@D@2@@std@@PEAVPrefilter@re2@@@std@@PEAX@2@_K@Z
    ?deallocate@?$_Default_allocator_traits@V?$allocator@U?$_Tree_node@U?$pair@QEAVRegexp@re2@@H@std@@PEAX@std@@@std@@@std@@SAXAEAV?$allocator@U?$_Tree_node@U?$pair@QEAVRegexp@re2@@H@std@@PEAX@std@@@2@QEAU?$_Tree_node@U?$pair@QEAVRegexp@re2@@H@std@@PEAX@2@_K@Z
    ?deallocate@?$_Default_allocator_traits@V?$allocator@U?$_Tree_node@URuneRange@re2@@PEAX@std@@@std@@@std@@SAXAEAV?$allocator@U?$_Tree_node@URuneRange@re2@@PEAX@std@@@2@QEAU?$_Tree_node@URuneRange@re2@@PEAX@2@_K@Z
    ?deallocate@?$_Default_allocator_traits@V?$allocator@U?$_Tree_node@V?$basic_string@DU?$char_traits@D@std@@V?$allocator@D@2@@std@@PEAX@std@@@std@@@std@@SAXAEAV?$allocator@U?$_Tree_node@V?$basic_string@DU?$char_traits@D@std@@V?$allocator@D@2@@std@@PEAX@std@@@2@QEAU?$_Tree_node@V?$basic_string@DU?$char_traits@D@std@@V?$allocator@D@2@@std@@PEAX@2@_K@Z
    ?deallocate@?$_Default_allocator_traits@V?$allocator@U_Container_proxy@std@@@std@@@std@@SAXAEAV?$allocator@U_Container_proxy@std@@@2@QEAU_Container_proxy@2@_K@Z
    ?deallocate@?$allocator@D@std@@QEAAXQEAD_K@Z
    ?deallocate@?$allocator@E@std@@QEAAXQEAE_K@Z
    ?deallocate@?$allocator@G@std@@QEAAXQEAG_K@Z
    ?deallocate@?$allocator@H@std@@QEAAXQEAH_K@Z
    ?deallocate@?$allocator@PEAPEAUState@DFA@re2@@@std@@QEAAXQEAPEAPEAUState@DFA@re2@@_K@Z
    ?deallocate@?$allocator@PEAU?$WalkState@H@re2@@@std@@QEAAXQEAPEAU?$WalkState@H@re2@@_K@Z
    ?deallocate@?$allocator@PEAU?$WalkState@PEAVInfo@Prefilter@re2@@@re2@@@std@@QEAAXQEAPEAU?$WalkState@PEAVInfo@Prefilter@re2@@@re2@@_K@Z
    ?deallocate@?$allocator@PEAU?$WalkState@PEAVRegexp@re2@@@re2@@@std@@QEAAXQEAPEAU?$WalkState@PEAVRegexp@re2@@@re2@@_K@Z
    ?deallocate@?$allocator@PEAU?$WalkState@UFrag@re2@@@re2@@@std@@QEAAXQEAPEAU?$WalkState@UFrag@re2@@@re2@@_K@Z
    ?deallocate@?$allocator@PEAU?$WalkState@_N@re2@@@std@@QEAAXQEAPEAU?$WalkState@_N@re2@@_K@Z
    ?deallocate@?$allocator@PEAUState@DFA@re2@@@std@@QEAAXQEAPEAUState@DFA@re2@@_K@Z
    ?deallocate@?$allocator@PEAUThread@NFA@re2@@@std@@QEAAXQEAPEAUThread@NFA@re2@@_K@Z
    ?deallocate@?$allocator@PEAVPrefilter@re2@@@std@@QEAAXQEAPEAVPrefilter@re2@@_K@Z
    ?deallocate@?$allocator@PEAVRE2@re2@@@std@@QEAAXQEAPEAVRE2@re2@@_K@Z
    ?deallocate@?$allocator@PEAVRegexp@re2@@@std@@QEAAXQEAPEAVRegexp@re2@@_K@Z
    ?deallocate@?$allocator@PEBD@std@@QEAAXQEAPEBD_K@Z
    ?deallocate@?$allocator@U?$WalkState@H@re2@@@std@@QEAAXQEAU?$WalkState@H@re2@@_K@Z
    ?deallocate@?$allocator@U?$WalkState@PEAVInfo@Prefilter@re2@@@re2@@@std@@QEAAXQEAU?$WalkState@PEAVInfo@Prefilter@re2@@@re2@@_K@Z
    ?deallocate@?$allocator@U?$WalkState@PEAVRegexp@re2@@@re2@@@std@@QEAAXQEAU?$WalkState@PEAVRegexp@re2@@@re2@@_K@Z
    ?deallocate@?$allocator@U?$WalkState@UFrag@re2@@@re2@@@std@@QEAAXQEAU?$WalkState@UFrag@re2@@@re2@@_K@Z
    ?deallocate@?$allocator@U?$WalkState@_N@re2@@@std@@QEAAXQEAU?$WalkState@_N@re2@@_K@Z
    ?deallocate@?$allocator@U?$_List_node@PEAUState@DFA@re2@@PEAX@std@@@std@@QEAAXQEAU?$_List_node@PEAUState@DFA@re2@@PEAX@2@_K@Z
    ?deallocate@?$allocator@U?$_List_node@U?$pair@$$CB_KH@std@@PEAX@std@@@std@@QEAAXQEAU?$_List_node@U?$pair@$$CB_KH@std@@PEAX@2@_K@Z
    ?deallocate@?$allocator@U?$_List_node@U?$pair@QEAUState@DFA@re2@@H@std@@PEAX@std@@@std@@QEAAXQEAU?$_List_node@U?$pair@QEAUState@DFA@re2@@H@std@@PEAX@2@_K@Z
    ?deallocate@?$allocator@U?$_Tree_node@HPEAX@std@@@std@@QEAAXQEAU?$_Tree_node@HPEAX@2@_K@Z
    ?deallocate@?$allocator@U?$_Tree_node@U?$pair@$$CBHH@std@@PEAX@std@@@std@@QEAAXQEAU?$_Tree_node@U?$pair@$$CBHH@std@@PEAX@2@_K@Z
    ?deallocate@?$allocator@U?$_Tree_node@U?$pair@$$CBHV?$basic_string@DU?$char_traits@D@std@@V?$allocator@D@2@@std@@@std@@PEAX@std@@@std@@QEAAXQEAU?$_Tree_node@U?$pair@$$CBHV?$basic_string@DU?$char_traits@D@std@@V?$allocator@D@2@@std@@@std@@PEAX@2@_K@Z
    ?deallocate@?$allocator@U?$_Tree_node@U?$pair@$$CBV?$basic_string@DU?$char_traits@D@std@@V?$allocator@D@2@@std@@H@std@@PEAX@std@@@std@@QEAAXQEAU?$_Tree_node@U?$pair@$$CBV?$basic_string@DU?$char_traits@D@std@@V?$allocator@D@2@@std@@H@std@@PEAX@2@_K@Z
    ?deallocate@?$allocator@U?$_Tree_node@U?$pair@$$CBV?$basic_string@DU?$char_traits@D@std@@V?$allocator@D@2@@std@@PEAVPrefilter@re2@@@std@@PEAX@std@@@std@@QEAAXQEAU?$_Tree_node@U?$pair@$$CBV?$basic_string@DU?$char_traits@D@std@@V?$allocator@D@2@@std@@PEAVPrefilter@re2@@@std@@PEAX@2@_K@Z
    ?deallocate@?$allocator@U?$_Tree_node@U?$pair@QEAVRegexp@re2@@H@std@@PEAX@std@@@std@@QEAAXQEAU?$_Tree_node@U?$pair@QEAVRegexp@re2@@H@std@@PEAX@2@_K@Z
    ?deallocate@?$allocator@U?$_Tree_node@URuneRange@re2@@PEAX@std@@@std@@QEAAXQEAU?$_Tree_node@URuneRange@re2@@PEAX@2@_K@Z
    ?deallocate@?$allocator@U?$_Tree_node@V?$basic_string@DU?$char_traits@D@std@@V?$allocator@D@2@@std@@PEAX@std@@@std@@QEAAXQEAU?$_Tree_node@V?$basic_string@DU?$char_traits@D@std@@V?$allocator@D@2@@std@@PEAX@2@_K@Z
    ?deallocate@?$allocator@U?$pair@HH@std@@@std@@QEAAXQEAU?$pair@HH@2@_K@Z
    ?deallocate@?$allocator@U?$pair@V?$basic_string@DU?$char_traits@D@std@@V?$allocator@D@2@@std@@PEAVRegexp@re2@@@std@@@std@@QEAAXQEAU?$pair@V?$basic_string@DU?$char_traits@D@std@@V?$allocator@D@2@@std@@PEAVRegexp@re2@@@2@_K@Z
    ?deallocate@?$allocator@UAddState@NFA@re2@@@std@@QEAAXQEAUAddState@NFA@re2@@_K@Z
    ?deallocate@?$allocator@UEntry@PrefilterTree@re2@@@std@@QEAAXQEAUEntry@PrefilterTree@re2@@_K@Z
    ?deallocate@?$allocator@UFrame@re2@@@std@@QEAAXQEAUFrame@re2@@_K@Z
    ?deallocate@?$allocator@UInstCond@re2@@@std@@QEAAXQEAUInstCond@re2@@_K@Z
    ?deallocate@?$allocator@UJob@re2@@@std@@QEAAXQEAUJob@re2@@_K@Z
    ?deallocate@?$allocator@URuneRange@re2@@@std@@QEAAXQEAURuneRange@re2@@_K@Z
    ?deallocate@?$allocator@USplice@re2@@@std@@QEAAXQEAUSplice@re2@@_K@Z
    ?deallocate@?$allocator@UThread@NFA@re2@@@std@@QEAAXQEAUThread@NFA@re2@@_K@Z
    ?deallocate@?$allocator@V?$_List_unchecked_const_iterator@V?$_List_val@U?$_List_simple_types@PEAUState@DFA@re2@@@std@@@std@@U_Iterator_base0@2@@std@@@std@@QEAAXQEAV?$_List_unchecked_const_iterator@V?$_List_val@U?$_List_simple_types@PEAUState@DFA@re2@@@std@@@std@@U_Iterator_base0@2@@2@_K@Z
    ?deallocate@?$allocator@V?$_List_unchecked_iterator@V?$_List_val@U?$_List_simple_types@U?$pair@$$CB_KH@std@@@std@@@std@@@std@@@std@@QEAAXQEAV?$_List_unchecked_iterator@V?$_List_val@U?$_List_simple_types@U?$pair@$$CB_KH@std@@@std@@@std@@@2@_K@Z
    ?deallocate@?$allocator@V?$_List_unchecked_iterator@V?$_List_val@U?$_List_simple_types@U?$pair@QEAUState@DFA@re2@@H@std@@@std@@@std@@@std@@@std@@QEAAXQEAV?$_List_unchecked_iterator@V?$_List_val@U?$_List_simple_types@U?$pair@QEAUState@DFA@re2@@H@std@@@std@@@std@@@2@_K@Z
    ?deallocate@?$allocator@V?$basic_string@DU?$char_traits@D@std@@V?$allocator@D@2@@std@@@std@@QEAAXQEAV?$basic_string@DU?$char_traits@D@std@@V?$allocator@D@2@@2@_K@Z
    ?deallocate@?$allocator@V?$vector@HV?$allocator@H@std@@@std@@@std@@QEAAXQEAV?$vector@HV?$allocator@H@std@@@2@_K@Z
    ?deallocate@?$allocator@VIndexValue@?$SparseArray@H@re2@@@std@@QEAAXQEAVIndexValue@?$SparseArray@H@re2@@_K@Z
    ?deallocate@?$allocator@VIndexValue@?$SparseArray@PEAUThread@NFA@re2@@@re2@@@std@@QEAAXQEAVIndexValue@?$SparseArray@PEAUThread@NFA@re2@@@re2@@_K@Z
    ?deallocate@?$allocator@VInst@Prog@re2@@@std@@QEAAXQEAVInst@Prog@re2@@_K@Z
    ?deallocate@?$allocator@_K@std@@QEAAXQEA_K_K@Z
    ?dot_nl@Options@RE2@re2@@QEBA_NXZ
    ?empty@?$SparseSetT@X@re2@@QEBAHXZ
    ?empty@?$basic_string@DU?$char_traits@D@std@@V?$allocator@D@2@@std@@QEBA_NXZ
    ?empty@?$deque@PEAUState@DFA@re2@@V?$allocator@PEAUState@DFA@re2@@@std@@@std@@QEBA_NXZ
    ?empty@?$deque@U?$WalkState@H@re2@@V?$allocator@U?$WalkState@H@re2@@@std@@@std@@QEBA_NXZ
    ?empty@?$deque@U?$WalkState@PEAVInfo@Prefilter@re2@@@re2@@V?$allocator@U?$WalkState@PEAVInfo@Prefilter@re2@@@re2@@@std@@@std@@QEBA_NXZ
    ?empty@?$deque@U?$WalkState@PEAVRegexp@re2@@@re2@@V?$allocator@U?$WalkState@PEAVRegexp@re2@@@re2@@@std@@@std@@QEBA_NXZ
    ?empty@?$deque@U?$WalkState@UFrag@re2@@@re2@@V?$allocator@U?$WalkState@UFrag@re2@@@re2@@@std@@@std@@QEBA_NXZ
    ?empty@?$deque@U?$WalkState@_N@re2@@V?$allocator@U?$WalkState@_N@re2@@@std@@@std@@QEBA_NXZ
    ?empty@?$deque@UThread@NFA@re2@@V?$allocator@UThread@NFA@re2@@@std@@@std@@QEBA_NXZ
    ?empty@?$stack@U?$WalkState@H@re2@@V?$deque@U?$WalkState@H@re2@@V?$allocator@U?$WalkState@H@re2@@@std@@@std@@@std@@QEBA_NXZ
    ?empty@?$stack@U?$WalkState@PEAVInfo@Prefilter@re2@@@re2@@V?$deque@U?$WalkState@PEAVInfo@Prefilter@re2@@@re2@@V?$allocator@U?$WalkState@PEAVInfo@Prefilter@re2@@@re2@@@std@@@std@@@std@@QEBA_NXZ
    ?empty@?$stack@U?$WalkState@PEAVRegexp@re2@@@re2@@V?$deque@U?$WalkState@PEAVRegexp@re2@@@re2@@V?$allocator@U?$WalkState@PEAVRegexp@re2@@@re2@@@std@@@std@@@std@@QEBA_NXZ
    ?empty@?$stack@U?$WalkState@UFrag@re2@@@re2@@V?$deque@U?$WalkState@UFrag@re2@@@re2@@V?$allocator@U?$WalkState@UFrag@re2@@@re2@@@std@@@std@@@std@@QEBA_NXZ
    ?empty@?$stack@U?$WalkState@_N@re2@@V?$deque@U?$WalkState@_N@re2@@V?$allocator@U?$WalkState@_N@re2@@@std@@@std@@@std@@QEBA_NXZ
    ?empty@?$vector@HV?$allocator@H@std@@@std@@QEBA_NXZ
    ?empty@?$vector@PEAVPrefilter@re2@@V?$allocator@PEAVPrefilter@re2@@@std@@@std@@QEBA_NXZ
    ?empty@?$vector@PEAVRE2@re2@@V?$allocator@PEAVRE2@re2@@@std@@@std@@QEBA_NXZ
    ?empty@?$vector@USplice@re2@@V?$allocator@USplice@re2@@@std@@@std@@QEBA_NXZ
    ?empty@CharClass@re2@@QEAA_NXZ
    ?empty@CharClassBuilder@re2@@QEAA_NXZ
    ?empty@Inst@Prog@re2@@QEAA?AW4EmptyOp@3@XZ
    ?empty@StringPiece@re2@@QEBA_NXZ
    ?encoding@Options@RE2@re2@@QEBA?AW4Encoding@123@XZ
    ?end@?$SparseArray@H@re2@@QEAAPEAVIndexValue@12@XZ
    ?end@?$SparseArray@PEAUThread@NFA@re2@@@re2@@QEAAPEAVIndexValue@12@XZ
    ?end@?$SparseSetT@X@re2@@QEAAPEAHXZ
    ?end@?$_Hash@V?$_Umap_traits@PEAUState@DFA@re2@@HV?$_Uhash_compare@PEAUState@DFA@re2@@U?$hash@PEAUState@DFA@re2@@@std@@U?$equal_to@PEAUState@DFA@re2@@@5@@std@@V?$allocator@U?$pair@QEAUState@DFA@re2@@H@std@@@5@$0A@@std@@@std@@QEAA?AV?$_List_iterator@V?$_List_val@U?$_List_simple_types@U?$pair@QEAUState@DFA@re2@@H@std@@@std@@@std@@@2@XZ
    ?end@?$_Hash@V?$_Umap_traits@_KHV?$_Uhash_compare@_KU?$hash@_K@std@@U?$equal_to@_K@2@@std@@V?$allocator@U?$pair@$$CB_KH@std@@@2@$0A@@std@@@std@@QEAA?AV?$_List_iterator@V?$_List_val@U?$_List_simple_types@U?$pair@$$CB_KH@std@@@std@@@std@@@2@XZ
    ?end@?$_Hash@V?$_Uset_traits@PEAUState@DFA@re2@@V?$_Uhash_compare@PEAUState@DFA@re2@@UStateHash@23@UStateEqual@23@@std@@V?$allocator@PEAUState@DFA@re2@@@5@$0A@@std@@@std@@QEAA?AV?$_List_const_iterator@V?$_List_val@U?$_List_simple_types@PEAUState@DFA@re2@@@std@@@std@@@2@XZ
    ?end@?$_Tree@V?$_Tmap_traits@HHU?$less@H@std@@V?$allocator@U?$pair@$$CBHH@std@@@2@$0A@@std@@@std@@QEAA?AV?$_Tree_iterator@V?$_Tree_val@U?$_Tree_simple_types@U?$pair@$$CBHH@std@@@std@@@std@@@2@XZ
    ?end@?$_Tree@V?$_Tmap_traits@V?$basic_string@DU?$char_traits@D@std@@V?$allocator@D@2@@std@@HU?$less@V?$basic_string@DU?$char_traits@D@std@@V?$allocator@D@2@@std@@@2@V?$allocator@U?$pair@$$CBV?$basic_string@DU?$char_traits@D@std@@V?$allocator@D@2@@std@@H@std@@@2@$0A@@std@@@std@@QEAA?AV?$_Tree_iterator@V?$_Tree_val@U?$_Tree_simple_types@U?$pair@$$CBV?$basic_string@DU?$char_traits@D@std@@V?$allocator@D@2@@std@@H@std@@@std@@@std@@@2@XZ
    ?end@?$_Tree@V?$_Tmap_traits@V?$basic_string@DU?$char_traits@D@std@@V?$allocator@D@2@@std@@PEAVPrefilter@re2@@U?$less@V?$basic_string@DU?$char_traits@D@std@@V?$allocator@D@2@@std@@@2@V?$allocator@U?$pair@$$CBV?$basic_string@DU?$char_traits@D@std@@V?$allocator@D@2@@std@@PEAVPrefilter@re2@@@std@@@2@$0A@@std@@@std@@QEAA?AV?$_Tree_iterator@V?$_Tree_val@U?$_Tree_simple_types@U?$pair@$$CBV?$basic_string@DU?$char_traits@D@std@@V?$allocator@D@2@@std@@PEAVPrefilter@re2@@@std@@@std@@@std@@@2@XZ
    ?end@?$_Tree@V?$_Tset_traits@URuneRange@re2@@URuneRangeLess@2@V?$allocator@URuneRange@re2@@@std@@$0A@@std@@@std@@QEAA?AV?$_Tree_const_iterator@V?$_Tree_val@U?$_Tree_simple_types@URuneRange@re2@@@std@@@std@@@2@XZ
    ?end@?$_Tree@V?$_Tset_traits@V?$basic_string@DU?$char_traits@D@std@@V?$allocator@D@2@@std@@U?$less@V?$basic_string@DU?$char_traits@D@std@@V?$allocator@D@2@@std@@@2@V?$allocator@V?$basic_string@DU?$char_traits@D@std@@V?$allocator@D@2@@std@@@2@$0A@@std@@@std@@QEAA?AV?$_Tree_const_iterator@V?$_Tree_val@U?$_Tree_simple_types@V?$basic_string@DU?$char_traits@D@std@@V?$allocator@D@2@@std@@@std@@@std@@@2@XZ
    ?end@?$_Tree@V?$_Tset_traits@V?$basic_string@DU?$char_traits@D@std@@V?$allocator@D@2@@std@@U?$less@V?$basic_string@DU?$char_traits@D@std@@V?$allocator@D@2@@std@@@2@V?$allocator@V?$basic_string@DU?$char_traits@D@std@@V?$allocator@D@2@@std@@@2@$0A@@std@@@std@@QEBA?AV?$_Tree_const_iterator@V?$_Tree_val@U?$_Tree_simple_types@V?$basic_string@DU?$char_traits@D@std@@V?$allocator@D@2@@std@@@std@@@std@@@2@XZ
    ?end@?$initializer_list@H@std@@QEBAPEBHXZ
    ?end@?$initializer_list@_N@std@@QEBAPEB_NXZ
    ?end@?$list@PEAUState@DFA@re2@@V?$allocator@PEAUState@DFA@re2@@@std@@@std@@QEAA?AV?$_List_iterator@V?$_List_val@U?$_List_simple_types@PEAUState@DFA@re2@@@std@@@std@@@2@XZ
    ?end@?$list@U?$pair@$$CB_KH@std@@V?$allocator@U?$pair@$$CB_KH@std@@@2@@std@@QEAA?AV?$_List_iterator@V?$_List_val@U?$_List_simple_types@U?$pair@$$CB_KH@std@@@std@@@std@@@2@XZ
    ?end@?$list@U?$pair@QEAUState@DFA@re2@@H@std@@V?$allocator@U?$pair@QEAUState@DFA@re2@@H@std@@@2@@std@@QEAA?AV?$_List_iterator@V?$_List_val@U?$_List_simple_types@U?$pair@QEAUState@DFA@re2@@H@std@@@std@@@std@@@2@XZ
    ?end@?$vector@EV?$allocator@E@std@@@std@@QEAA?AV?$_Vector_iterator@V?$_Vector_val@U?$_Simple_types@E@std@@@std@@@2@XZ
    ?end@?$vector@HV?$allocator@H@std@@@std@@QEAA?AV?$_Vector_iterator@V?$_Vector_val@U?$_Simple_types@H@std@@@std@@@2@XZ
    ?end@?$vector@HV?$allocator@H@std@@@std@@QEBA?AV?$_Vector_const_iterator@V?$_Vector_val@U?$_Simple_types@H@std@@@std@@@2@XZ
    ?end@?$vector@U?$pair@HH@std@@V?$allocator@U?$pair@HH@std@@@2@@std@@QEAA?AV?$_Vector_iterator@V?$_Vector_val@U?$_Simple_types@U?$pair@HH@std@@@std@@@std@@@2@XZ
    ?end@?$vector@U?$pair@V?$basic_string@DU?$char_traits@D@std@@V?$allocator@D@2@@std@@PEAVRegexp@re2@@@std@@V?$allocator@U?$pair@V?$basic_string@DU?$char_traits@D@std@@V?$allocator@D@2@@std@@PEAVRegexp@re2@@@std@@@2@@std@@QEAA?AV?$_Vector_iterator@V?$_Vector_val@U?$_Simple_types@U?$pair@V?$basic_string@DU?$char_traits@D@std@@V?$allocator@D@2@@std@@PEAVRegexp@re2@@@std@@@std@@@std@@@2@XZ
    ?end@?$vector@USplice@re2@@V?$allocator@USplice@re2@@@std@@@std@@QEAA?AV?$_Vector_iterator@V?$_Vector_val@U?$_Simple_types@USplice@re2@@@std@@@std@@@2@XZ
    ?end@CharClass@re2@@QEAAPEAURuneRange@2@XZ
    ?end@CharClassBuilder@re2@@QEAA?AV?$_Tree_const_iterator@V?$_Tree_val@U?$_Tree_simple_types@URuneRange@re2@@@std@@@std@@@std@@XZ
    ?end@StringPiece@re2@@QEBAPEBDXZ
    ?eof@?$_Narrow_char_traits@DH@std@@SAHXZ
    ?eq@?$_Narrow_char_traits@DH@std@@SA_NAEBD0@Z
    ?eq_int_type@?$_Narrow_char_traits@DH@std@@SA_NAEBH0@Z
    ?erase@?$_Tree@V?$_Tmap_traits@PEAVRegexp@re2@@HU?$less@PEAVRegexp@re2@@@std@@V?$allocator@U?$pair@QEAVRegexp@re2@@H@std@@@4@$0A@@std@@@std@@QEAA_KAEBQEAVRegexp@re2@@@Z
    ?erase@?$_Tree@V?$_Tset_traits@URuneRange@re2@@URuneRangeLess@2@V?$allocator@URuneRange@re2@@@std@@$0A@@std@@@std@@QEAA?AV?$_Tree_const_iterator@V?$_Tree_val@U?$_Tree_simple_types@URuneRange@re2@@@std@@@std@@@2@V32@@Z
    ?erase@?$_Tree@V?$_Tset_traits@V?$basic_string@DU?$char_traits@D@std@@V?$allocator@D@2@@std@@U?$less@V?$basic_string@DU?$char_traits@D@std@@V?$allocator@D@2@@std@@@2@V?$allocator@V?$basic_string@DU?$char_traits@D@std@@V?$allocator@D@2@@std@@@2@$0A@@std@@@std@@QEAA?AV?$_Tree_const_iterator@V?$_Tree_val@U?$_Tree_simple_types@V?$basic_string@DU?$char_traits@D@std@@V?$allocator@D@2@@std@@@std@@@std@@@2@V32@@Z
    ?erase@?$basic_string@DU?$char_traits@D@std@@V?$allocator@D@2@@std@@QEAAAEAV12@_K@Z
    ?error@RE2@re2@@QEBAAEBV?$basic_string@DU?$char_traits@D@std@@V?$allocator@D@2@@std@@XZ
    ?error_arg@RegexpStatus@re2@@QEBAAEBVStringPiece@2@XZ
    ?error_code@RE2@re2@@QEBA?AW4ErrorCode@12@XZ
    ?exact@Info@Prefilter@re2@@QEAAAEAV?$set@V?$basic_string@DU?$char_traits@D@std@@V?$allocator@D@2@@std@@U?$less@V?$basic_string@DU?$char_traits@D@std@@V?$allocator@D@2@@std@@@2@V?$allocator@V?$basic_string@DU?$char_traits@D@std@@V?$allocator@D@2@@std@@@2@@std@@XZ
    ?find@?$_Narrow_char_traits@DH@std@@SAPEBDQEBD_KAEBD@Z
    ?find@?$_Tree@V?$_Tmap_traits@HHU?$less@H@std@@V?$allocator@U?$pair@$$CBHH@std@@@2@$0A@@std@@@std@@QEAA?AV?$_Tree_iterator@V?$_Tree_val@U?$_Tree_simple_types@U?$pair@$$CBHH@std@@@std@@@std@@@2@AEBH@Z
    ?find@?$_Tree@V?$_Tmap_traits@V?$basic_string@DU?$char_traits@D@std@@V?$allocator@D@2@@std@@HU?$less@V?$basic_string@DU?$char_traits@D@std@@V?$allocator@D@2@@std@@@2@V?$allocator@U?$pair@$$CBV?$basic_string@DU?$char_traits@D@std@@V?$allocator@D@2@@std@@H@std@@@2@$0A@@std@@@std@@QEAA?AV?$_Tree_iterator@V?$_Tree_val@U?$_Tree_simple_types@U?$pair@$$CBV?$basic_string@DU?$char_traits@D@std@@V?$allocator@D@2@@std@@H@std@@@std@@@std@@@2@AEBV?$basic_string@DU?$char_traits@D@std@@V?$allocator@D@2@@2@@Z
    ?find@?$_Tree@V?$_Tmap_traits@V?$basic_string@DU?$char_traits@D@std@@V?$allocator@D@2@@std@@PEAVPrefilter@re2@@U?$less@V?$basic_string@DU?$char_traits@D@std@@V?$allocator@D@2@@std@@@2@V?$allocator@U?$pair@$$CBV?$basic_string@DU?$char_traits@D@std@@V?$allocator@D@2@@std@@PEAVPrefilter@re2@@@std@@@2@$0A@@std@@@std@@QEAA?AV?$_Tree_iterator@V?$_Tree_val@U?$_Tree_simple_types@U?$pair@$$CBV?$basic_string@DU?$char_traits@D@std@@V?$allocator@D@2@@std@@PEAVPrefilter@re2@@@std@@@std@@@std@@@2@AEBV?$basic_string@DU?$char_traits@D@std@@V?$allocator@D@2@@2@@Z
    ?find@?$_Tree@V?$_Tset_traits@URuneRange@re2@@URuneRangeLess@2@V?$allocator@URuneRange@re2@@@std@@$0A@@std@@@std@@QEAA?AV?$_Tree_const_iterator@V?$_Tree_val@U?$_Tree_simple_types@URuneRange@re2@@@std@@@std@@@2@AEBURuneRange@re2@@@Z
    ?find@?$basic_string@DU?$char_traits@D@std@@V?$allocator@D@2@@std@@QEBA_KAEBV12@_K@Z
    ?find@StringPiece@re2@@QEBA_KAEBV12@_K@Z
    ?find@StringPiece@re2@@QEBA_KD_K@Z
    ?flags@ParseState@Regexp@re2@@QEAA?AW4ParseFlags@23@XZ
    ?foldcase@Inst@Prog@re2@@QEAAHXZ
    ?front@?$basic_string@DU?$char_traits@D@std@@V?$allocator@D@2@@std@@QEAAAEADXZ
    ?front@?$deque@PEAUState@DFA@re2@@V?$allocator@PEAUState@DFA@re2@@@std@@@std@@QEAAAEAPEAUState@DFA@re2@@XZ
    ?full@CharClass@re2@@QEAA_NXZ
    ?full@CharClassBuilder@re2@@QEAA_NXZ
    ?fullrune@re2@@YAHPEBDH@Z
    ?get@?$unique_ptr@$$BY0A@EUDeleter@?$PODArray@E@re2@@@std@@QEBAPEAEXZ
    ?get@?$unique_ptr@$$BY0A@GUDeleter@?$PODArray@G@re2@@@std@@QEBAPEAGXZ
    ?get@?$unique_ptr@$$BY0A@HUDeleter@?$PODArray@H@re2@@@std@@QEBAPEAHXZ
    ?get@?$unique_ptr@$$BY0A@PEAVRegexp@re2@@UDeleter@?$PODArray@PEAVRegexp@re2@@@2@@std@@QEBAPEAPEAVRegexp@re2@@XZ
    ?get@?$unique_ptr@$$BY0A@PEBDUDeleter@?$PODArray@PEBD@re2@@@std@@QEBAPEAPEBDXZ
    ?get@?$unique_ptr@$$BY0A@UAddState@NFA@re2@@UDeleter@?$PODArray@UAddState@NFA@re2@@@3@@std@@QEBAPEAUAddState@NFA@re2@@XZ
    ?get@?$unique_ptr@$$BY0A@UJob@re2@@UDeleter@?$PODArray@UJob@re2@@@2@@std@@QEBAPEAUJob@re2@@XZ
    ?get@?$unique_ptr@$$BY0A@VIndexValue@?$SparseArray@H@re2@@UDeleter@?$PODArray@VIndexValue@?$SparseArray@H@re2@@@3@@std@@QEBAPEAVIndexValue@?$SparseArray@H@re2@@XZ
    ?get@?$unique_ptr@$$BY0A@VIndexValue@?$SparseArray@PEAUThread@NFA@re2@@@re2@@UDeleter@?$PODArray@VIndexValue@?$SparseArray@PEAUThread@NFA@re2@@@re2@@@3@@std@@QEBAPEAVIndexValue@?$SparseArray@PEAUThread@NFA@re2@@@re2@@XZ
    ?get@?$unique_ptr@$$BY0A@VInst@Prog@re2@@UDeleter@?$PODArray@VInst@Prog@re2@@@3@@std@@QEBAPEAVInst@Prog@re2@@XZ
    ?get@?$unique_ptr@$$BY0A@_KUDeleter@?$PODArray@_K@re2@@@std@@QEBAPEA_KXZ
    ?get@?$unique_ptr@V?$SparseSetT@X@re2@@U?$default_delete@V?$SparseSetT@X@re2@@@std@@@std@@QEBAPEAV?$SparseSetT@X@re2@@XZ
    ?get@HashMix@re2@@QEBA_KXZ
    ?get_allocator@?$basic_string@DU?$char_traits@D@std@@V?$allocator@D@2@@std@@QEBA?AV?$allocator@D@2@XZ
    ?get_deleter@?$unique_ptr@$$BY0A@HUDeleter@?$PODArray@H@re2@@@std@@QEBAAEBUDeleter@?$PODArray@H@re2@@XZ
    ?get_deleter@?$unique_ptr@$$BY0A@PEBDUDeleter@?$PODArray@PEBD@re2@@@std@@QEBAAEBUDeleter@?$PODArray@PEBD@re2@@XZ
    ?get_deleter@?$unique_ptr@$$BY0A@UAddState@NFA@re2@@UDeleter@?$PODArray@UAddState@NFA@re2@@@3@@std@@QEBAAEBUDeleter@?$PODArray@UAddState@NFA@re2@@@re2@@XZ
    ?get_deleter@?$unique_ptr@$$BY0A@UJob@re2@@UDeleter@?$PODArray@UJob@re2@@@2@@std@@QEBAAEBUDeleter@?$PODArray@UJob@re2@@@re2@@XZ
    ?get_deleter@?$unique_ptr@$$BY0A@VIndexValue@?$SparseArray@H@re2@@UDeleter@?$PODArray@VIndexValue@?$SparseArray@H@re2@@@3@@std@@QEBAAEBUDeleter@?$PODArray@VIndexValue@?$SparseArray@H@re2@@@re2@@XZ
    ?get_deleter@?$unique_ptr@$$BY0A@VIndexValue@?$SparseArray@PEAUThread@NFA@re2@@@re2@@UDeleter@?$PODArray@VIndexValue@?$SparseArray@PEAUThread@NFA@re2@@@re2@@@3@@std@@QEBAAEBUDeleter@?$PODArray@VIndexValue@?$SparseArray@PEAUThread@NFA@re2@@@re2@@@re2@@XZ
    ?get_deleter@?$unique_ptr@$$BY0A@VInst@Prog@re2@@UDeleter@?$PODArray@VInst@Prog@re2@@@3@@std@@QEBAAEBUDeleter@?$PODArray@VInst@Prog@re2@@@re2@@XZ
    ?get_deleter@?$unique_ptr@VPrefilterTree@re2@@U?$default_delete@VPrefilterTree@re2@@@std@@@std@@QEAAAEAU?$default_delete@VPrefilterTree@re2@@@2@XZ
    ?get_deleter@?$unique_ptr@VProg@re2@@U?$default_delete@VProg@re2@@@std@@@std@@QEAAAEAU?$default_delete@VProg@re2@@@2@XZ
    ?get_existing@?$SparseArray@H@re2@@QEAAAEAHH@Z
    ?get_existing@?$SparseArray@PEAUThread@NFA@re2@@@re2@@QEAAAEAPEAUThread@NFA@2@H@Z
    ?greedy@Inst@Prog@re2@@QEAA_NPEAV23@@Z
    ?has_index@?$SparseArray@H@re2@@QEBA_NH@Z
    ?has_index@?$SparseArray@PEAUThread@NFA@re2@@@re2@@QEBA_NH@Z
    ?hi@Inst@Prog@re2@@QEAAHXZ
    ?hint@Inst@Prog@re2@@QEAAHXZ
    ?index@IndexValue@?$SparseArray@H@re2@@QEBAHXZ
    ?index@IndexValue@?$SparseArray@PEAUThread@NFA@re2@@@re2@@QEBAHXZ
    ?insert@?$SparseSetT@X@re2@@QEAAPEAHH@Z
    ?insert@?$_Hash@V?$_Uset_traits@PEAUState@DFA@re2@@V?$_Uhash_compare@PEAUState@DFA@re2@@UStateHash@23@UStateEqual@23@@std@@V?$allocator@PEAUState@DFA@re2@@@5@$0A@@std@@@std@@QEAA?AU?$pair@V?$_List_const_iterator@V?$_List_val@U?$_List_simple_types@PEAUState@DFA@re2@@@std@@@std@@@std@@_N@2@AEBQEAUState@DFA@re2@@@Z
    ?insert@?$vector@EV?$allocator@E@std@@@std@@QEAA?AV?$_Vector_iterator@V?$_Vector_val@U?$_Simple_types@E@std@@@std@@@2@V?$_Vector_const_iterator@V?$_Vector_val@U?$_Simple_types@E@std@@@std@@@2@_KAEBE@Z
    ?insert_new@?$SparseSetT@X@re2@@QEAAPEAHH@Z
    ?insert_new@Workq@DFA@re2@@QEAAXH@Z
    ?inst@Prog@re2@@QEAAPEAVInst@12@H@Z
    ?inst_count@Prog@re2@@QEAAHW4InstOp@2@@Z
    ?is_exact@Info@Prefilter@re2@@QEBA_NXZ
    ?is_mark@Workq@DFA@re2@@QEAA_NH@Z
    ?last@Inst@Prog@re2@@QEAAHXZ
    ?latin1@Walker@Info@Prefilter@re2@@QEAA_NXZ
    ?length@?$_Narrow_char_traits@DH@std@@SA_KQEBD@Z
    ?less@?$SparseArray@H@re2@@SA_NAEBVIndexValue@12@0@Z
    ?list_count@Prog@re2@@QEAAHXZ
    ?list_heads@Prog@re2@@QEAAPEAGXZ
    ?literal@Options@RE2@re2@@QEBA_NXZ
    ?lo@Inst@Prog@re2@@QEAAHXZ
    ?load@?$_Atomic_storage@P6AXAEBUDFASearchFailure@hooks@re2@@@Z$07@std@@QEBAP6AXAEBUDFASearchFailure@hooks@re2@@@ZW4memory_order@2@@Z
    ?load@?$_Atomic_storage@P6AXAEBUDFAStateCacheReset@hooks@re2@@@Z$07@std@@QEBAP6AXAEBUDFAStateCacheReset@hooks@re2@@@ZW4memory_order@2@@Z
    ?load@?$_Atomic_storage@PEAUState@DFA@re2@@$07@std@@QEBAPEAUState@DFA@re2@@W4memory_order@2@@Z
    ?log_errors@Options@RE2@re2@@QEBA_NXZ
    ?longest_match@Options@RE2@re2@@QEBA_NXZ
    ?mark@Workq@DFA@re2@@QEAAXXZ
    ?match_id@Inst@Prog@re2@@QEAAHXZ
    ?match_id@Regexp@re2@@QEAAHXZ
    ?max@?$numeric_limits@H@std@@SAHXZ
    ?max@?$numeric_limits@_J@std@@SA_JXZ
    ?max@Regexp@re2@@QEAAHXZ
    ?max_load_factor@?$_Hash@V?$_Umap_traits@PEAUState@DFA@re2@@HV?$_Uhash_compare@PEAUState@DFA@re2@@U?$hash@PEAUState@DFA@re2@@@std@@U?$equal_to@PEAUState@DFA@re2@@@5@@std@@V?$allocator@U?$pair@QEAUState@DFA@re2@@H@std@@@5@$0A@@std@@@std@@QEBAMXZ
    ?max_load_factor@?$_Hash@V?$_Umap_traits@_KHV?$_Uhash_compare@_KU?$hash@_K@std@@U?$equal_to@_K@2@@std@@V?$allocator@U?$pair@$$CB_KH@std@@@2@$0A@@std@@@std@@QEBAMXZ
    ?max_load_factor@?$_Hash@V?$_Uset_traits@PEAUState@DFA@re2@@V?$_Uhash_compare@PEAUState@DFA@re2@@UStateHash@23@UStateEqual@23@@std@@V?$allocator@PEAUState@DFA@re2@@@5@$0A@@std@@@std@@QEBAMXZ
    ?max_mem@Options@RE2@re2@@QEBA_JXZ
    ?max_size@?$SparseArray@H@re2@@QEBAHXZ
    ?max_size@?$SparseArray@PEAUThread@NFA@re2@@@re2@@QEBAHXZ
    ?max_size@?$SparseSetT@X@re2@@QEBAHXZ
    ?max_size@?$_Default_allocator_traits@V?$allocator@D@std@@@std@@SA_KAEBV?$allocator@D@2@@Z
    ?max_size@?$_Default_allocator_traits@V?$allocator@E@std@@@std@@SA_KAEBV?$allocator@E@2@@Z
    ?max_size@?$_Default_allocator_traits@V?$allocator@H@std@@@std@@SA_KAEBV?$allocator@H@2@@Z
    ?max_size@?$_Default_allocator_traits@V?$allocator@PEAUState@DFA@re2@@@std@@@std@@SA_KAEBV?$allocator@PEAUState@DFA@re2@@@2@@Z
    ?max_size@?$_Default_allocator_traits@V?$allocator@PEAVPrefilter@re2@@@std@@@std@@SA_KAEBV?$allocator@PEAVPrefilter@re2@@@2@@Z
    ?max_size@?$_Default_allocator_traits@V?$allocator@PEAVRE2@re2@@@std@@@std@@SA_KAEBV?$allocator@PEAVRE2@re2@@@2@@Z
    ?max_size@?$_Default_allocator_traits@V?$allocator@PEAVRegexp@re2@@@std@@@std@@SA_KAEBV?$allocator@PEAVRegexp@re2@@@2@@Z
    ?max_size@?$_Default_allocator_traits@V?$allocator@U?$WalkState@H@re2@@@std@@@std@@SA_KAEBV?$allocator@U?$WalkState@H@re2@@@2@@Z
    ?max_size@?$_Default_allocator_traits@V?$allocator@U?$WalkState@PEAVInfo@Prefilter@re2@@@re2@@@std@@@std@@SA_KAEBV?$allocator@U?$WalkState@PEAVInfo@Prefilter@re2@@@re2@@@2@@Z
    ?max_size@?$_Default_allocator_traits@V?$allocator@U?$WalkState@PEAVRegexp@re2@@@re2@@@std@@@std@@SA_KAEBV?$allocator@U?$WalkState@PEAVRegexp@re2@@@re2@@@2@@Z
    ?max_size@?$_Default_allocator_traits@V?$allocator@U?$WalkState@UFrag@re2@@@re2@@@std@@@std@@SA_KAEBV?$allocator@U?$WalkState@UFrag@re2@@@re2@@@2@@Z
    ?max_size@?$_Default_allocator_traits@V?$allocator@U?$WalkState@_N@re2@@@std@@@std@@SA_KAEBV?$allocator@U?$WalkState@_N@re2@@@2@@Z
    ?max_size@?$_Default_allocator_traits@V?$allocator@U?$_List_node@PEAUState@DFA@re2@@PEAX@std@@@std@@@std@@SA_KAEBV?$allocator@U?$_List_node@PEAUState@DFA@re2@@PEAX@std@@@2@@Z
    ?max_size@?$_Default_allocator_traits@V?$allocator@U?$_List_node@U?$pair@$$CB_KH@std@@PEAX@std@@@std@@@std@@SA_KAEBV?$allocator@U?$_List_node@U?$pair@$$CB_KH@std@@PEAX@std@@@2@@Z
    ?max_size@?$_Default_allocator_traits@V?$allocator@U?$_List_node@U?$pair@QEAUState@DFA@re2@@H@std@@PEAX@std@@@std@@@std@@SA_KAEBV?$allocator@U?$_List_node@U?$pair@QEAUState@DFA@re2@@H@std@@PEAX@std@@@2@@Z
    ?max_size@?$_Default_allocator_traits@V?$allocator@U?$_Tree_node@HPEAX@std@@@std@@@std@@SA_KAEBV?$allocator@U?$_Tree_node@HPEAX@std@@@2@@Z
    ?max_size@?$_Default_allocator_traits@V?$allocator@U?$_Tree_node@U?$pair@$$CBHH@std@@PEAX@std@@@std@@@std@@SA_KAEBV?$allocator@U?$_Tree_node@U?$pair@$$CBHH@std@@PEAX@std@@@2@@Z
    ?max_size@?$_Default_allocator_traits@V?$allocator@U?$_Tree_node@U?$pair@$$CBHV?$basic_string@DU?$char_traits@D@std@@V?$allocator@D@2@@std@@@std@@PEAX@std@@@std@@@std@@SA_KAEBV?$allocator@U?$_Tree_node@U?$pair@$$CBHV?$basic_string@DU?$char_traits@D@std@@V?$allocator@D@2@@std@@@std@@PEAX@std@@@2@@Z
    ?max_size@?$_Default_allocator_traits@V?$allocator@U?$_Tree_node@U?$pair@$$CBV?$basic_string@DU?$char_traits@D@std@@V?$allocator@D@2@@std@@H@std@@PEAX@std@@@std@@@std@@SA_KAEBV?$allocator@U?$_Tree_node@U?$pair@$$CBV?$basic_string@DU?$char_traits@D@std@@V?$allocator@D@2@@std@@H@std@@PEAX@std@@@2@@Z
    ?max_size@?$_Default_allocator_traits@V?$allocator@U?$_Tree_node@U?$pair@$$CBV?$basic_string@DU?$char_traits@D@std@@V?$allocator@D@2@@std@@PEAVPrefilter@re2@@@std@@PEAX@std@@@std@@@std@@SA_KAEBV?$allocator@U?$_Tree_node@U?$pair@$$CBV?$basic_string@DU?$char_traits@D@std@@V?$allocator@D@2@@std@@PEAVPrefilter@re2@@@std@@PEAX@std@@@2@@Z
    ?max_size@?$_Default_allocator_traits@V?$allocator@U?$_Tree_node@U?$pair@QEAVRegexp@re2@@H@std@@PEAX@std@@@std@@@std@@SA_KAEBV?$allocator@U?$_Tree_node@U?$pair@QEAVRegexp@re2@@H@std@@PEAX@std@@@2@@Z
    ?max_size@?$_Default_allocator_traits@V?$allocator@U?$_Tree_node@URuneRange@re2@@PEAX@std@@@std@@@std@@SA_KAEBV?$allocator@U?$_Tree_node@URuneRange@re2@@PEAX@std@@@2@@Z
    ?max_size@?$_Default_allocator_traits@V?$allocator@U?$_Tree_node@V?$basic_string@DU?$char_traits@D@std@@V?$allocator@D@2@@std@@PEAX@std@@@std@@@std@@SA_KAEBV?$allocator@U?$_Tree_node@V?$basic_string@DU?$char_traits@D@std@@V?$allocator@D@2@@std@@PEAX@std@@@2@@Z
    ?max_size@?$_Default_allocator_traits@V?$allocator@U?$pair@HH@std@@@std@@@std@@SA_KAEBV?$allocator@U?$pair@HH@std@@@2@@Z
    ?max_size@?$_Default_allocator_traits@V?$allocator@U?$pair@V?$basic_string@DU?$char_traits@D@std@@V?$allocator@D@2@@std@@PEAVRegexp@re2@@@std@@@std@@@std@@SA_KAEBV?$allocator@U?$pair@V?$basic_string@DU?$char_traits@D@std@@V?$allocator@D@2@@std@@PEAVRegexp@re2@@@std@@@2@@Z
    ?max_size@?$_Default_allocator_traits@V?$allocator@UEntry@PrefilterTree@re2@@@std@@@std@@SA_KAEBV?$allocator@UEntry@PrefilterTree@re2@@@2@@Z
    ?max_size@?$_Default_allocator_traits@V?$allocator@UFrame@re2@@@std@@@std@@SA_KAEBV?$allocator@UFrame@re2@@@2@@Z
    ?max_size@?$_Default_allocator_traits@V?$allocator@URuneRange@re2@@@std@@@std@@SA_KAEBV?$allocator@URuneRange@re2@@@2@@Z
    ?max_size@?$_Default_allocator_traits@V?$allocator@USplice@re2@@@std@@@std@@SA_KAEBV?$allocator@USplice@re2@@@2@@Z
    ?max_size@?$_Default_allocator_traits@V?$allocator@UThread@NFA@re2@@@std@@@std@@SA_KAEBV?$allocator@UThread@NFA@re2@@@2@@Z
    ?max_size@?$_Default_allocator_traits@V?$allocator@V?$_List_unchecked_const_iterator@V?$_List_val@U?$_List_simple_types@PEAUState@DFA@re2@@@std@@@std@@U_Iterator_base0@2@@std@@@std@@@std@@SA_KAEBV?$allocator@V?$_List_unchecked_const_iterator@V?$_List_val@U?$_List_simple_types@PEAUState@DFA@re2@@@std@@@std@@U_Iterator_base0@2@@std@@@2@@Z
    ?max_size@?$_Default_allocator_traits@V?$allocator@V?$_List_unchecked_iterator@V?$_List_val@U?$_List_simple_types@U?$pair@$$CB_KH@std@@@std@@@std@@@std@@@std@@@std@@SA_KAEBV?$allocator@V?$_List_unchecked_iterator@V?$_List_val@U?$_List_simple_types@U?$pair@$$CB_KH@std@@@std@@@std@@@std@@@2@@Z
    ?max_size@?$_Default_allocator_traits@V?$allocator@V?$_List_unchecked_iterator@V?$_List_val@U?$_List_simple_types@U?$pair@QEAUState@DFA@re2@@H@std@@@std@@@std@@@std@@@std@@@std@@SA_KAEBV?$allocator@V?$_List_unchecked_iterator@V?$_List_val@U?$_List_simple_types@U?$pair@QEAUState@DFA@re2@@H@std@@@std@@@std@@@std@@@2@@Z
    ?max_size@?$_Default_allocator_traits@V?$allocator@V?$basic_string@DU?$char_traits@D@std@@V?$allocator@D@2@@std@@@std@@@std@@SA_KAEBV?$allocator@V?$basic_string@DU?$char_traits@D@std@@V?$allocator@D@2@@std@@@2@@Z
    ?max_size@?$_Default_allocator_traits@V?$allocator@V?$vector@HV?$allocator@H@std@@@std@@@std@@@std@@SA_KAEBV?$allocator@V?$vector@HV?$allocator@H@std@@@std@@@2@@Z
    ?max_size@?$_Default_allocator_traits@V?$allocator@VInst@Prog@re2@@@std@@@std@@SA_KAEBV?$allocator@VInst@Prog@re2@@@2@@Z
    ?max_size@?$_Hash_vec@V?$allocator@V?$_List_unchecked_const_iterator@V?$_List_val@U?$_List_simple_types@PEAUState@DFA@re2@@@std@@@std@@U_Iterator_base0@2@@std@@@std@@@std@@QEBA_KXZ
    ?max_size@?$_Hash_vec@V?$allocator@V?$_List_unchecked_iterator@V?$_List_val@U?$_List_simple_types@U?$pair@$$CB_KH@std@@@std@@@std@@@std@@@std@@@std@@QEBA_KXZ
    ?max_size@?$_Hash_vec@V?$allocator@V?$_List_unchecked_iterator@V?$_List_val@U?$_List_simple_types@U?$pair@QEAUState@DFA@re2@@H@std@@@std@@@std@@@std@@@std@@@std@@QEBA_KXZ
    ?max_size@?$_Tree@V?$_Tmap_traits@HHU?$less@H@std@@V?$allocator@U?$pair@$$CBHH@std@@@2@$0A@@std@@@std@@QEBA_KXZ
    ?max_size@?$_Tree@V?$_Tmap_traits@HV?$basic_string@DU?$char_traits@D@std@@V?$allocator@D@2@@std@@U?$less@H@2@V?$allocator@U?$pair@$$CBHV?$basic_string@DU?$char_traits@D@std@@V?$allocator@D@2@@std@@@std@@@2@$0A@@std@@@std@@QEBA_KXZ
    ?max_size@?$_Tree@V?$_Tmap_traits@PEAVRegexp@re2@@HU?$less@PEAVRegexp@re2@@@std@@V?$allocator@U?$pair@QEAVRegexp@re2@@H@std@@@4@$0A@@std@@@std@@QEBA_KXZ
    ?max_size@?$_Tree@V?$_Tmap_traits@V?$basic_string@DU?$char_traits@D@std@@V?$allocator@D@2@@std@@HU?$less@V?$basic_string@DU?$char_traits@D@std@@V?$allocator@D@2@@std@@@2@V?$allocator@U?$pair@$$CBV?$basic_string@DU?$char_traits@D@std@@V?$allocator@D@2@@std@@H@std@@@2@$0A@@std@@@std@@QEBA_KXZ
    ?max_size@?$_Tree@V?$_Tmap_traits@V?$basic_string@DU?$char_traits@D@std@@V?$allocator@D@2@@std@@PEAVPrefilter@re2@@U?$less@V?$basic_string@DU?$char_traits@D@std@@V?$allocator@D@2@@std@@@2@V?$allocator@U?$pair@$$CBV?$basic_string@DU?$char_traits@D@std@@V?$allocator@D@2@@std@@PEAVPrefilter@re2@@@std@@@2@$0A@@std@@@std@@QEBA_KXZ
    ?max_size@?$_Tree@V?$_Tset_traits@HU?$less@H@std@@V?$allocator@H@2@$0A@@std@@@std@@QEBA_KXZ
    ?max_size@?$_Tree@V?$_Tset_traits@URuneRange@re2@@URuneRangeLess@2@V?$allocator@URuneRange@re2@@@std@@$0A@@std@@@std@@QEBA_KXZ
    ?max_size@?$_Tree@V?$_Tset_traits@V?$basic_string@DU?$char_traits@D@std@@V?$allocator@D@2@@std@@U?$less@V?$basic_string@DU?$char_traits@D@std@@V?$allocator@D@2@@std@@@2@V?$allocator@V?$basic_string@DU?$char_traits@D@std@@V?$allocator@D@2@@std@@@2@$0A@@std@@@std@@QEBA_KXZ
    ?max_size@?$basic_string@DU?$char_traits@D@std@@V?$allocator@D@2@@std@@QEBA_KXZ
    ?max_size@?$deque@PEAUState@DFA@re2@@V?$allocator@PEAUState@DFA@re2@@@std@@@std@@QEBA_KXZ
    ?max_size@?$deque@U?$WalkState@H@re2@@V?$allocator@U?$WalkState@H@re2@@@std@@@std@@QEBA_KXZ
    ?max_size@?$deque@U?$WalkState@PEAVInfo@Prefilter@re2@@@re2@@V?$allocator@U?$WalkState@PEAVInfo@Prefilter@re2@@@re2@@@std@@@std@@QEBA_KXZ
    ?max_size@?$deque@U?$WalkState@PEAVRegexp@re2@@@re2@@V?$allocator@U?$WalkState@PEAVRegexp@re2@@@re2@@@std@@@std@@QEBA_KXZ
    ?max_size@?$deque@U?$WalkState@UFrag@re2@@@re2@@V?$allocator@U?$WalkState@UFrag@re2@@@re2@@@std@@@std@@QEBA_KXZ
    ?max_size@?$deque@U?$WalkState@_N@re2@@V?$allocator@U?$WalkState@_N@re2@@@std@@@std@@QEBA_KXZ
    ?max_size@?$deque@UThread@NFA@re2@@V?$allocator@UThread@NFA@re2@@@std@@@std@@QEBA_KXZ
    ?max_size@?$list@PEAUState@DFA@re2@@V?$allocator@PEAUState@DFA@re2@@@std@@@std@@QEBA_KXZ
    ?max_size@?$list@U?$pair@$$CB_KH@std@@V?$allocator@U?$pair@$$CB_KH@std@@@2@@std@@QEBA_KXZ
    ?max_size@?$list@U?$pair@QEAUState@DFA@re2@@H@std@@V?$allocator@U?$pair@QEAUState@DFA@re2@@H@std@@@2@@std@@QEBA_KXZ
    ?max_size@?$vector@EV?$allocator@E@std@@@std@@QEBA_KXZ
    ?max_size@?$vector@HV?$allocator@H@std@@@std@@QEBA_KXZ
    ?max_size@?$vector@PEAVPrefilter@re2@@V?$allocator@PEAVPrefilter@re2@@@std@@@std@@QEBA_KXZ
    ?max_size@?$vector@PEAVRE2@re2@@V?$allocator@PEAVRE2@re2@@@std@@@std@@QEBA_KXZ
    ?max_size@?$vector@PEAVRegexp@re2@@V?$allocator@PEAVRegexp@re2@@@std@@@std@@QEBA_KXZ
    ?max_size@?$vector@U?$pair@HH@std@@V?$allocator@U?$pair@HH@std@@@2@@std@@QEBA_KXZ
    ?max_size@?$vector@U?$pair@V?$basic_string@DU?$char_traits@D@std@@V?$allocator@D@2@@std@@PEAVRegexp@re2@@@std@@V?$allocator@U?$pair@V?$basic_string@DU?$char_traits@D@std@@V?$allocator@D@2@@std@@PEAVRegexp@re2@@@std@@@2@@std@@QEBA_KXZ
    ?max_size@?$vector@UEntry@PrefilterTree@re2@@V?$allocator@UEntry@PrefilterTree@re2@@@std@@@std@@QEBA_KXZ
    ?max_size@?$vector@UFrame@re2@@V?$allocator@UFrame@re2@@@std@@@std@@QEBA_KXZ
    ?max_size@?$vector@URuneRange@re2@@V?$allocator@URuneRange@re2@@@std@@@std@@QEBA_KXZ
    ?max_size@?$vector@USplice@re2@@V?$allocator@USplice@re2@@@std@@@std@@QEBA_KXZ
    ?max_size@?$vector@V?$basic_string@DU?$char_traits@D@std@@V?$allocator@D@2@@std@@V?$allocator@V?$basic_string@DU?$char_traits@D@std@@V?$allocator@D@2@@std@@@2@@std@@QEBA_KXZ
    ?max_size@?$vector@V?$vector@HV?$allocator@H@std@@@std@@V?$allocator@V?$vector@HV?$allocator@H@std@@@std@@@2@@std@@QEBA_KXZ
    ?max_size@?$vector@VInst@Prog@re2@@V?$allocator@VInst@Prog@re2@@@std@@@std@@QEBA_KXZ
    ?maxmark@Workq@DFA@re2@@QEAAHXZ
    ?min@Regexp@re2@@QEAAHXZ
    ?name@Regexp@re2@@QEAAPEBV?$basic_string@DU?$char_traits@D@std@@V?$allocator@D@2@@std@@XZ
    ?ncapture@NumCapturesWalker@re2@@QEAAHXZ
    ?never_capture@Options@RE2@re2@@QEBA_NXZ
    ?never_nl@Options@RE2@re2@@QEBA_NXZ
    ?not_eof@?$_Narrow_char_traits@DH@std@@SAHAEBH@Z
    ?nrunes@Regexp@re2@@QEAAHXZ
    ?nsub@Regexp@re2@@QEAAHXZ
    ?num_perl_groups@re2@@3HB
    ?num_posix_groups@re2@@3HB
    ?num_unicode_casefold@re2@@3HB
    ?num_unicode_groups@re2@@3HB
    ?num_unicode_tolower@re2@@3HB
    ?ok@DFA@re2@@QEBA_NXZ
    ?ok@RE2@re2@@QEBA_NXZ
    ?one_line@Options@RE2@re2@@QEBA_NXZ
    ?op@Prefilter@re2@@QEAA?AW4Op@12@XZ
    ?op@Regexp@re2@@QEAA?AW4RegexpOp@2@XZ
    ?opcode@Inst@Prog@re2@@QEAA?AW4InstOp@3@XZ
    ?options@RE2@re2@@QEBAAEBVOptions@12@XZ
    ?out1@Inst@Prog@re2@@QEAAHXZ
    ?out@Inst@Prog@re2@@QEAAHXZ
    ?overflow@?$basic_stringbuf@DU?$char_traits@D@std@@V?$allocator@D@2@@std@@MEAAHH@Z
    ?parse_flags@Regexp@re2@@QEAA?AW4ParseFlags@12@XZ
    ?pbackfail@?$basic_stringbuf@DU?$char_traits@D@std@@V?$allocator@D@2@@std@@MEAAHH@Z
    ?perl_classes@Options@RE2@re2@@QEBA_NXZ
    ?perl_groups@re2@@3QBUUGroup@1@B
    ?piecewise_construct@std@@3Upiecewise_construct_t@1@B
    ?pointer_to@?$pointer_traits@PEAD@std@@SAPEADAEAD@Z
    ?pointer_to@?$pointer_traits@PEAU?$pair@$$CBHH@std@@@std@@SAPEAU?$pair@$$CBHH@2@AEAU32@@Z
    ?pointer_to@?$pointer_traits@PEBU?$pair@$$CB_KH@std@@@std@@SAPEBU?$pair@$$CB_KH@2@AEBU32@@Z
    ?pointer_to@?$pointer_traits@PEBURuneRange@re2@@@std@@SAPEBURuneRange@re2@@AEBU34@@Z
    ?pointer_to@?$pointer_traits@PEBV?$basic_string@DU?$char_traits@D@std@@V?$allocator@D@2@@std@@@std@@SAPEBV?$basic_string@DU?$char_traits@D@std@@V?$allocator@D@2@@2@AEBV32@@Z
    ?pop@?$stack@U?$WalkState@H@re2@@V?$deque@U?$WalkState@H@re2@@V?$allocator@U?$WalkState@H@re2@@@std@@@std@@@std@@QEAAXXZ
    ?pop@?$stack@U?$WalkState@PEAVInfo@Prefilter@re2@@@re2@@V?$deque@U?$WalkState@PEAVInfo@Prefilter@re2@@@re2@@V?$allocator@U?$WalkState@PEAVInfo@Prefilter@re2@@@re2@@@std@@@std@@@std@@QEAAXXZ
    ?pop@?$stack@U?$WalkState@PEAVRegexp@re2@@@re2@@V?$deque@U?$WalkState@PEAVRegexp@re2@@@re2@@V?$allocator@U?$WalkState@PEAVRegexp@re2@@@re2@@@std@@@std@@@std@@QEAAXXZ
    ?pop@?$stack@U?$WalkState@UFrag@re2@@@re2@@V?$deque@U?$WalkState@UFrag@re2@@@re2@@V?$allocator@U?$WalkState@UFrag@re2@@@re2@@@std@@@std@@@std@@QEAAXXZ
    ?pop@?$stack@U?$WalkState@_N@re2@@V?$deque@U?$WalkState@_N@re2@@V?$allocator@U?$WalkState@_N@re2@@@std@@@std@@@std@@QEAAXXZ
    ?pop_back@?$basic_string@DU?$char_traits@D@std@@V?$allocator@D@2@@std@@QEAAXXZ
    ?pop_back@?$deque@PEAUState@DFA@re2@@V?$allocator@PEAUState@DFA@re2@@@std@@@std@@QEAAXXZ
    ?pop_back@?$deque@U?$WalkState@H@re2@@V?$allocator@U?$WalkState@H@re2@@@std@@@std@@QEAAXXZ
    ?pop_back@?$deque@U?$WalkState@PEAVInfo@Prefilter@re2@@@re2@@V?$allocator@U?$WalkState@PEAVInfo@Prefilter@re2@@@re2@@@std@@@std@@QEAAXXZ
    ?pop_back@?$deque@U?$WalkState@PEAVRegexp@re2@@@re2@@V?$allocator@U?$WalkState@PEAVRegexp@re2@@@re2@@@std@@@std@@QEAAXXZ
    ?pop_back@?$deque@U?$WalkState@UFrag@re2@@@re2@@V?$allocator@U?$WalkState@UFrag@re2@@@re2@@@std@@@std@@QEAAXXZ
    ?pop_back@?$deque@U?$WalkState@_N@re2@@V?$allocator@U?$WalkState@_N@re2@@@std@@@std@@QEAAXXZ
    ?pop_back@?$deque@UThread@NFA@re2@@V?$allocator@UThread@NFA@re2@@@std@@@std@@QEAAXXZ
    ?pop_back@?$vector@HV?$allocator@H@std@@@std@@QEAAXXZ
